records {
  basic_abi {
    type_abi {
      name: "android::hardware::graphics::bufferqueue::V1_0::IProducerListener"
      size: 12
      alignment: 4
    }
    name: "android::hardware::graphics::bufferqueue::V1_0::IProducerListener"
    access: public_access
    linker_set_key: "android::hardware::graphics::bufferqueue::V1_0::IProducerListener"
  }
  base_specifiers {
    basic_abi {
      type_abi {
        name: "android::hidl::base::V1_0::IBase"
      }
      name: ""
      access: public_access
    }
    is_virtual: false
  }
  source_file: "/data/aosp/out/soong/.intermediates/hardware/interfaces/graphics/bufferqueue/1.0/android.hardware.graphics.bufferqueue@1.0_genc++_headers/gen/android/hardware/graphics/bufferqueue/1.0/IProducerListener.h"
  mangled_record_name: "android::hardware::graphics::bufferqueue::V1_0::IProducerListener"
  vtable_layout {
    vtable_components {
      kind: VBaseOffset
      mangled_component_name: ""
      component_value: 4
    }
    vtable_components {
      kind: OffsetToTop
      mangled_component_name: ""
      component_value: 0
    }
    vtable_components {
      kind: RTTI
      mangled_component_name: "android::hardware::graphics::bufferqueue::V1_0::IProducerListener"
      component_value: 0
    }
    vtable_components {
      kind: FunctionPointer
      mangled_component_name: "_ZNK7android8hardware8graphics11bufferqueue4V1_017IProducerListener8isRemoteEv"
      component_value: 0
    }
    vtable_components {
      kind: FunctionPointer
      mangled_component_name: "_ZN7android8hardware8graphics11bufferqueue4V1_017IProducerListener14interfaceChainENSt3__18functionIFvRKNS0_8hidl_vecINS0_11hidl_stringEEEEEE"
      component_value: 0
    }
    vtable_components {
      kind: FunctionPointer
      mangled_component_name: "_ZN7android8hardware8graphics11bufferqueue4V1_017IProducerListener5debugERKNS0_11hidl_handleERKNS0_8hidl_vecINS0_11hidl_stringEEE"
      component_value: 0
    }
    vtable_components {
      kind: FunctionPointer
      mangled_component_name: "_ZN7android8hardware8graphics11bufferqueue4V1_017IProducerListener19interfaceDescriptorENSt3__18functionIFvRKNS0_11hidl_stringEEEE"
      component_value: 0
    }
    vtable_components {
      kind: FunctionPointer
      mangled_component_name: "_ZN7android8hardware8graphics11bufferqueue4V1_017IProducerListener12getHashChainENSt3__18functionIFvRKNS0_8hidl_vecINS0_10hidl_arrayIhLj32EJEEEEEEEE"
      component_value: 0
    }
    vtable_components {
      kind: FunctionPointer
      mangled_component_name: "_ZN7android8hardware8graphics11bufferqueue4V1_017IProducerListener21setHALInstrumentationEv"
      component_value: 0
    }
    vtable_components {
      kind: FunctionPointer
      mangled_component_name: "_ZN7android8hardware8graphics11bufferqueue4V1_017IProducerListener11linkToDeathERKNS_2spINS0_20hidl_death_recipientEEEy"
      component_value: 0
    }
    vtable_components {
      kind: FunctionPointer
      mangled_component_name: "_ZN7android8hardware8graphics11bufferqueue4V1_017IProducerListener4pingEv"
      component_value: 0
    }
    vtable_components {
      kind: FunctionPointer
      mangled_component_name: "_ZN7android8hardware8graphics11bufferqueue4V1_017IProducerListener12getDebugInfoENSt3__18functionIFvRKNS_4hidl4base4V1_09DebugInfoEEEE"
      component_value: 0
    }
    vtable_components {
      kind: FunctionPointer
      mangled_component_name: "_ZN7android8hardware8graphics11bufferqueue4V1_017IProducerListener21notifySyspropsChangedEv"
      component_value: 0
    }
    vtable_components {
      kind: FunctionPointer
      mangled_component_name: "_ZN7android8hardware8graphics11bufferqueue4V1_017IProducerListener13unlinkToDeathERKNS_2spINS0_20hidl_death_recipientEEE"
      component_value: 0
    }
    vtable_components {
      kind: CompleteDtorPointer
      mangled_component_name: "_ZN7android8hardware8graphics11bufferqueue4V1_017IProducerListenerD1Ev"
      component_value: 0
    }
    vtable_components {
      kind: DeletingDtorPointer
      mangled_component_name: "_ZN7android8hardware8graphics11bufferqueue4V1_017IProducerListenerD0Ev"
      component_value: 0
    }
    vtable_components {
      kind: FunctionPointer
      mangled_component_name: "_ZN7android8hardware8graphics11bufferqueue4V1_017IProducerListener16onBufferReleasedEv"
      component_value: 0
    }
    vtable_components {
      kind: FunctionPointer
      mangled_component_name: "_ZN7android8hardware8graphics11bufferqueue4V1_017IProducerListener18needsReleaseNotifyEv"
      component_value: 0
    }
    vtable_components {
      kind: VCallOffset
      mangled_component_name: ""
      component_value: 0
    }
    vtable_components {
      kind: VCallOffset
      mangled_component_name: ""
      component_value: 0
    }
    vtable_components {
      kind: VCallOffset
      mangled_component_name: ""
      component_value: 0
    }
    vtable_components {
      kind: VCallOffset
      mangled_component_name: ""
      component_value: 0
    }
    vtable_components {
      kind: VCallOffset
      mangled_component_name: ""
      component_value: -4
    }
    vtable_components {
      kind: OffsetToTop
      mangled_component_name: ""
      component_value: -4
    }
    vtable_components {
      kind: RTTI
      mangled_component_name: "android::hardware::graphics::bufferqueue::V1_0::IProducerListener"
      component_value: 0
    }
    vtable_components {
      kind: CompleteDtorPointer
      mangled_component_name: "_ZN7android8hardware8graphics11bufferqueue4V1_017IProducerListenerD1Ev"
      component_value: 0
    }
    vtable_components {
      kind: DeletingDtorPointer
      mangled_component_name: "_ZN7android8hardware8graphics11bufferqueue4V1_017IProducerListenerD0Ev"
      component_value: 0
    }
    vtable_components {
      kind: FunctionPointer
      mangled_component_name: "_ZN7android7RefBase10onFirstRefEv"
      component_value: 0
    }
    vtable_components {
      kind: FunctionPointer
      mangled_component_name: "_ZN7android7RefBase15onLastStrongRefEPKv"
      component_value: 0
    }
    vtable_components {
      kind: FunctionPointer
      mangled_component_name: "_ZN7android7RefBase20onIncStrongAttemptedEjPKv"
      component_value: 0
    }
    vtable_components {
      kind: FunctionPointer
      mangled_component_name: "_ZN7android7RefBase13onLastWeakRefEPKv"
      component_value: 0
    }
  }
}
records {
  basic_abi {
    type_abi {
      name: "android::hardware::graphics::bufferqueue::V1_0::IGraphicBufferProducer"
      size: 12
      alignment: 4
    }
    name: "android::hardware::graphics::bufferqueue::V1_0::IGraphicBufferProducer"
    access: public_access
    linker_set_key: "android::hardware::graphics::bufferqueue::V1_0::IGraphicBufferProducer"
  }
  base_specifiers {
    basic_abi {
      type_abi {
        name: "android::hidl::base::V1_0::IBase"
      }
      name: ""
      access: public_access
    }
    is_virtual: false
  }
  source_file: "/data/aosp/out/soong/.intermediates/hardware/interfaces/graphics/bufferqueue/1.0/android.hardware.graphics.bufferqueue@1.0_genc++_headers/gen/android/hardware/graphics/bufferqueue/1.0/IGraphicBufferProducer.h"
  mangled_record_name: "android::hardware::graphics::bufferqueue::V1_0::IGraphicBufferProducer"
  vtable_layout {
    vtable_components {
      kind: VBaseOffset
      mangled_component_name: ""
      component_value: 4
    }
    vtable_components {
      kind: OffsetToTop
      mangled_component_name: ""
      component_value: 0
    }
    vtable_components {
      kind: RTTI
      mangled_component_name: "android::hardware::graphics::bufferqueue::V1_0::IGraphicBufferProducer"
      component_value: 0
    }
    vtable_components {
      kind: FunctionPointer
      mangled_component_name: "_ZNK7android8hardware8graphics11bufferqueue4V1_022IGraphicBufferProducer8isRemoteEv"
      component_value: 0
    }
    vtable_components {
      kind: FunctionPointer
      mangled_component_name: "_ZN7android8hardware8graphics11bufferqueue4V1_022IGraphicBufferProducer14interfaceChainENSt3__18functionIFvRKNS0_8hidl_vecINS0_11hidl_stringEEEEEE"
      component_value: 0
    }
    vtable_components {
      kind: FunctionPointer
      mangled_component_name: "_ZN7android8hardware8graphics11bufferqueue4V1_022IGraphicBufferProducer5debugERKNS0_11hidl_handleERKNS0_8hidl_vecINS0_11hidl_stringEEE"
      component_value: 0
    }
    vtable_components {
      kind: FunctionPointer
      mangled_component_name: "_ZN7android8hardware8graphics11bufferqueue4V1_022IGraphicBufferProducer19interfaceDescriptorENSt3__18functionIFvRKNS0_11hidl_stringEEEE"
      component_value: 0
    }
    vtable_components {
      kind: FunctionPointer
      mangled_component_name: "_ZN7android8hardware8graphics11bufferqueue4V1_022IGraphicBufferProducer12getHashChainENSt3__18functionIFvRKNS0_8hidl_vecINS0_10hidl_arrayIhLj32EJEEEEEEEE"
      component_value: 0
    }
    vtable_components {
      kind: FunctionPointer
      mangled_component_name: "_ZN7android8hardware8graphics11bufferqueue4V1_022IGraphicBufferProducer21setHALInstrumentationEv"
      component_value: 0
    }
    vtable_components {
      kind: FunctionPointer
      mangled_component_name: "_ZN7android8hardware8graphics11bufferqueue4V1_022IGraphicBufferProducer11linkToDeathERKNS_2spINS0_20hidl_death_recipientEEEy"
      component_value: 0
    }
    vtable_components {
      kind: FunctionPointer
      mangled_component_name: "_ZN7android8hardware8graphics11bufferqueue4V1_022IGraphicBufferProducer4pingEv"
      component_value: 0
    }
    vtable_components {
      kind: FunctionPointer
      mangled_component_name: "_ZN7android8hardware8graphics11bufferqueue4V1_022IGraphicBufferProducer12getDebugInfoENSt3__18functionIFvRKNS_4hidl4base4V1_09DebugInfoEEEE"
      component_value: 0
    }
    vtable_components {
      kind: FunctionPointer
      mangled_component_name: "_ZN7android8hardware8graphics11bufferqueue4V1_022IGraphicBufferProducer21notifySyspropsChangedEv"
      component_value: 0
    }
    vtable_components {
      kind: FunctionPointer
      mangled_component_name: "_ZN7android8hardware8graphics11bufferqueue4V1_022IGraphicBufferProducer13unlinkToDeathERKNS_2spINS0_20hidl_death_recipientEEE"
      component_value: 0
    }
    vtable_components {
      kind: CompleteDtorPointer
      mangled_component_name: "_ZN7android8hardware8graphics11bufferqueue4V1_022IGraphicBufferProducerD1Ev"
      component_value: 0
    }
    vtable_components {
      kind: DeletingDtorPointer
      mangled_component_name: "_ZN7android8hardware8graphics11bufferqueue4V1_022IGraphicBufferProducerD0Ev"
      component_value: 0
    }
    vtable_components {
      kind: FunctionPointer
      mangled_component_name: "_ZN7android8hardware8graphics11bufferqueue4V1_022IGraphicBufferProducer13requestBufferEiNSt3__18functionIFviRKNS0_5media4V1_09AnwBufferEEEE"
      component_value: 0
    }
    vtable_components {
      kind: FunctionPointer
      mangled_component_name: "_ZN7android8hardware8graphics11bufferqueue4V1_022IGraphicBufferProducer25setMaxDequeuedBufferCountEi"
      component_value: 0
    }
    vtable_components {
      kind: FunctionPointer
      mangled_component_name: "_ZN7android8hardware8graphics11bufferqueue4V1_022IGraphicBufferProducer12setAsyncModeEb"
      component_value: 0
    }
    vtable_components {
      kind: FunctionPointer
      mangled_component_name: "_ZN7android8hardware8graphics11bufferqueue4V1_022IGraphicBufferProducer13dequeueBufferEjjNS1_6common4V1_011PixelFormatEjbNSt3__18functionIFviiRKNS0_11hidl_handleERKNS4_22FrameEventHistoryDeltaEEEE"
      component_value: 0
    }
    vtable_components {
      kind: FunctionPointer
      mangled_component_name: "_ZN7android8hardware8graphics11bufferqueue4V1_022IGraphicBufferProducer12detachBufferEi"
      component_value: 0
    }
    vtable_components {
      kind: FunctionPointer
      mangled_component_name: "_ZN7android8hardware8graphics11bufferqueue4V1_022IGraphicBufferProducer16detachNextBufferENSt3__18functionIFviRKNS0_5media4V1_09AnwBufferERKNS0_11hidl_handleEEEE"
      component_value: 0
    }
    vtable_components {
      kind: FunctionPointer
      mangled_component_name: "_ZN7android8hardware8graphics11bufferqueue4V1_022IGraphicBufferProducer12attachBufferERKNS0_5media4V1_09AnwBufferENSt3__18functionIFviiEEE"
      component_value: 0
    }
    vtable_components {
      kind: FunctionPointer
      mangled_component_name: "_ZN7android8hardware8graphics11bufferqueue4V1_022IGraphicBufferProducer11queueBufferEiRKNS4_16QueueBufferInputENSt3__18functionIFviRKNS4_17QueueBufferOutputEEEE"
      component_value: 0
    }
    vtable_components {
      kind: FunctionPointer
      mangled_component_name: "_ZN7android8hardware8graphics11bufferqueue4V1_022IGraphicBufferProducer12cancelBufferEiRKNS0_11hidl_handleE"
      component_value: 0
    }
    vtable_components {
      kind: FunctionPointer
      mangled_component_name: "_ZN7android8hardware8graphics11bufferqueue4V1_022IGraphicBufferProducer5queryEiNSt3__18functionIFviiEEE"
      component_value: 0
    }
    vtable_components {
      kind: FunctionPointer
      mangled_component_name: "_ZN7android8hardware8graphics11bufferqueue4V1_022IGraphicBufferProducer7connectERKNS_2spINS3_17IProducerListenerEEEibNSt3__18functionIFviRKNS4_17QueueBufferOutputEEEE"
      component_value: 0
    }
    vtable_components {
      kind: FunctionPointer
      mangled_component_name: "_ZN7android8hardware8graphics11bufferqueue4V1_022IGraphicBufferProducer10disconnectEiNS4_14DisconnectModeE"
      component_value: 0
    }
    vtable_components {
      kind: FunctionPointer
      mangled_component_name: "_ZN7android8hardware8graphics11bufferqueue4V1_022IGraphicBufferProducer17setSidebandStreamERKNS0_11hidl_handleE"
      component_value: 0
    }
    vtable_components {
      kind: FunctionPointer
      mangled_component_name: "_ZN7android8hardware8graphics11bufferqueue4V1_022IGraphicBufferProducer15allocateBuffersEjjNS1_6common4V1_011PixelFormatEj"
      component_value: 0
    }
    vtable_components {
      kind: FunctionPointer
      mangled_component_name: "_ZN7android8hardware8graphics11bufferqueue4V1_022IGraphicBufferProducer15allowAllocationEb"
      component_value: 0
    }
    vtable_components {
      kind: FunctionPointer
      mangled_component_name: "_ZN7android8hardware8graphics11bufferqueue4V1_022IGraphicBufferProducer19setGenerationNumberEj"
      component_value: 0
    }
    vtable_components {
      kind: FunctionPointer
      mangled_component_name: "_ZN7android8hardware8graphics11bufferqueue4V1_022IGraphicBufferProducer15getConsumerNameENSt3__18functionIFvRKNS0_11hidl_stringEEEE"
      component_value: 0
    }
    vtable_components {
      kind: FunctionPointer
      mangled_component_name: "_ZN7android8hardware8graphics11bufferqueue4V1_022IGraphicBufferProducer19setSharedBufferModeEb"
      component_value: 0
    }
    vtable_components {
      kind: FunctionPointer
      mangled_component_name: "_ZN7android8hardware8graphics11bufferqueue4V1_022IGraphicBufferProducer14setAutoRefreshEb"
      component_value: 0
    }
    vtable_components {
      kind: FunctionPointer
      mangled_component_name: "_ZN7android8hardware8graphics11bufferqueue4V1_022IGraphicBufferProducer17setDequeueTimeoutEx"
      component_value: 0
    }
    vtable_components {
      kind: FunctionPointer
      mangled_component_name: "_ZN7android8hardware8graphics11bufferqueue4V1_022IGraphicBufferProducer19getLastQueuedBufferENSt3__18functionIFviRKNS0_5media4V1_09AnwBufferERKNS0_11hidl_handleERKNS0_10hidl_arrayIfLj16EJEEEEEE"
      component_value: 0
    }
    vtable_components {
      kind: FunctionPointer
      mangled_component_name: "_ZN7android8hardware8graphics11bufferqueue4V1_022IGraphicBufferProducer18getFrameTimestampsENSt3__18functionIFvRKNS4_22FrameEventHistoryDeltaEEEE"
      component_value: 0
    }
    vtable_components {
      kind: FunctionPointer
      mangled_component_name: "_ZN7android8hardware8graphics11bufferqueue4V1_022IGraphicBufferProducer11getUniqueIdENSt3__18functionIFviyEEE"
      component_value: 0
    }
    vtable_components {
      kind: VCallOffset
      mangled_component_name: ""
      component_value: 0
    }
    vtable_components {
      kind: VCallOffset
      mangled_component_name: ""
      component_value: 0
    }
    vtable_components {
      kind: VCallOffset
      mangled_component_name: ""
      component_value: 0
    }
    vtable_components {
      kind: VCallOffset
      mangled_component_name: ""
      component_value: 0
    }
    vtable_components {
      kind: VCallOffset
      mangled_component_name: ""
      component_value: -4
    }
    vtable_components {
      kind: OffsetToTop
      mangled_component_name: ""
      component_value: -4
    }
    vtable_components {
      kind: RTTI
      mangled_component_name: "android::hardware::graphics::bufferqueue::V1_0::IGraphicBufferProducer"
      component_value: 0
    }
    vtable_components {
      kind: CompleteDtorPointer
      mangled_component_name: "_ZN7android8hardware8graphics11bufferqueue4V1_022IGraphicBufferProducerD1Ev"
      component_value: 0
    }
    vtable_components {
      kind: DeletingDtorPointer
      mangled_component_name: "_ZN7android8hardware8graphics11bufferqueue4V1_022IGraphicBufferProducerD0Ev"
      component_value: 0
    }
    vtable_components {
      kind: FunctionPointer
      mangled_component_name: "_ZN7android7RefBase10onFirstRefEv"
      component_value: 0
    }
    vtable_components {
      kind: FunctionPointer
      mangled_component_name: "_ZN7android7RefBase15onLastStrongRefEPKv"
      component_value: 0
    }
    vtable_components {
      kind: FunctionPointer
      mangled_component_name: "_ZN7android7RefBase20onIncStrongAttemptedEjPKv"
      component_value: 0
    }
    vtable_components {
      kind: FunctionPointer
      mangled_component_name: "_ZN7android7RefBase13onLastWeakRefEPKv"
      component_value: 0
    }
  }
}
records {
  basic_abi {
    type_abi {
      name: "android::hardware::graphics::bufferqueue::V1_0::IGraphicBufferProducer::FenceTimeSnapshot"
      size: 32
      alignment: 8
    }
    name: "android::hardware::graphics::bufferqueue::V1_0::IGraphicBufferProducer::FenceTimeSnapshot"
    access: public_access
    linker_set_key: "android::hardware::graphics::bufferqueue::V1_0::IGraphicBufferProducer::FenceTimeSnapshot"
  }
  fields {
    basic_abi {
      type_abi {
        name: "android::hardware::graphics::bufferqueue::V1_0::IGraphicBufferProducer::FenceTimeSnapshot::State"
        size: 4
        alignment: 4
      }
      name: "state"
      access: public_access
    }
  }
  fields {
    basic_abi {
      type_abi {
        name: "android::hardware::hidl_handle"
        size: 16
        alignment: 8
      }
      name: "fence"
      access: public_access
    }
  }
  fields {
    basic_abi {
      type_abi {
        name: "long long"
        size: 8
        alignment: 8
      }
      name: "signalTimeNs"
      access: public_access
    }
  }
  source_file: "/data/aosp/out/soong/.intermediates/hardware/interfaces/graphics/bufferqueue/1.0/android.hardware.graphics.bufferqueue@1.0_genc++_headers/gen/android/hardware/graphics/bufferqueue/1.0/IGraphicBufferProducer.h"
  mangled_record_name: "android::hardware::graphics::bufferqueue::V1_0::IGraphicBufferProducer::FenceTimeSnapshot"
}
records {
  basic_abi {
    type_abi {
      name: "android::hardware::graphics::bufferqueue::V1_0::IGraphicBufferProducer::FrameEventsDelta"
      size: 200
      alignment: 8
    }
    name: "android::hardware::graphics::bufferqueue::V1_0::IGraphicBufferProducer::FrameEventsDelta"
    access: public_access
    linker_set_key: "android::hardware::graphics::bufferqueue::V1_0::IGraphicBufferProducer::FrameEventsDelta"
  }
  fields {
    basic_abi {
      type_abi {
        name: "unsigned int"
        size: 4
        alignment: 4
      }
      name: "index"
      access: public_access
    }
  }
  fields {
    basic_abi {
      type_abi {
        name: "unsigned long long"
        size: 8
        alignment: 8
      }
      name: "frameNumber"
      access: public_access
    }
  }
  fields {
    basic_abi {
      type_abi {
        name: "bool"
        size: 1
        alignment: 1
      }
      name: "addPostCompositeCalled"
      access: public_access
    }
  }
  fields {
    basic_abi {
      type_abi {
        name: "bool"
        size: 1
        alignment: 1
      }
      name: "addRetireCalled"
      access: public_access
    }
  }
  fields {
    basic_abi {
      type_abi {
        name: "bool"
        size: 1
        alignment: 1
      }
      name: "addReleaseCalled"
      access: public_access
    }
  }
  fields {
    basic_abi {
      type_abi {
        name: "long long"
        size: 8
        alignment: 8
      }
      name: "postedTimeNs"
      access: public_access
    }
  }
  fields {
    basic_abi {
      type_abi {
        name: "long long"
        size: 8
        alignment: 8
      }
      name: "requestedPresentTimeNs"
      access: public_access
    }
  }
  fields {
    basic_abi {
      type_abi {
        name: "long long"
        size: 8
        alignment: 8
      }
      name: "latchTimeNs"
      access: public_access
    }
  }
  fields {
    basic_abi {
      type_abi {
        name: "long long"
        size: 8
        alignment: 8
      }
      name: "firstRefreshStartTimeNs"
      access: public_access
    }
  }
  fields {
    basic_abi {
      type_abi {
        name: "long long"
        size: 8
        alignment: 8
      }
      name: "lastRefreshStartTimeNs"
      access: public_access
    }
  }
  fields {
    basic_abi {
      type_abi {
        name: "long long"
        size: 8
        alignment: 8
      }
      name: "dequeueReadyTime"
      access: public_access
    }
  }
  fields {
    basic_abi {
      type_abi {
        name: "android::hardware::graphics::bufferqueue::V1_0::IGraphicBufferProducer::FenceTimeSnapshot"
        size: 32
        alignment: 8
      }
      name: "gpuCompositionDoneFence"
      access: public_access
    }
  }
  fields {
    basic_abi {
      type_abi {
        name: "android::hardware::graphics::bufferqueue::V1_0::IGraphicBufferProducer::FenceTimeSnapshot"
        size: 32
        alignment: 8
      }
      name: "displayPresentFence"
      access: public_access
    }
  }
  fields {
    basic_abi {
      type_abi {
        name: "android::hardware::graphics::bufferqueue::V1_0::IGraphicBufferProducer::FenceTimeSnapshot"
        size: 32
        alignment: 8
      }
      name: "displayRetireFence"
      access: public_access
    }
  }
  fields {
    basic_abi {
      type_abi {
        name: "android::hardware::graphics::bufferqueue::V1_0::IGraphicBufferProducer::FenceTimeSnapshot"
        size: 32
        alignment: 8
      }
      name: "releaseFence"
      access: public_access
    }
  }
  source_file: "/data/aosp/out/soong/.intermediates/hardware/interfaces/graphics/bufferqueue/1.0/android.hardware.graphics.bufferqueue@1.0_genc++_headers/gen/android/hardware/graphics/bufferqueue/1.0/IGraphicBufferProducer.h"
  mangled_record_name: "android::hardware::graphics::bufferqueue::V1_0::IGraphicBufferProducer::FrameEventsDelta"
}
records {
  basic_abi {
    type_abi {
      name: "android::hardware::graphics::bufferqueue::V1_0::IGraphicBufferProducer::CompositorTiming"
      size: 24
      alignment: 8
    }
    name: "android::hardware::graphics::bufferqueue::V1_0::IGraphicBufferProducer::CompositorTiming"
    access: public_access
    linker_set_key: "android::hardware::graphics::bufferqueue::V1_0::IGraphicBufferProducer::CompositorTiming"
  }
  fields {
    basic_abi {
      type_abi {
        name: "long long"
        size: 8
        alignment: 8
      }
      name: "deadlineNs"
      access: public_access
    }
  }
  fields {
    basic_abi {
      type_abi {
        name: "long long"
        size: 8
        alignment: 8
      }
      name: "intervalNs"
      access: public_access
    }
  }
  fields {
    basic_abi {
      type_abi {
        name: "long long"
        size: 8
        alignment: 8
      }
      name: "presentLatencyNs"
      access: public_access
    }
  }
  source_file: "/data/aosp/out/soong/.intermediates/hardware/interfaces/graphics/bufferqueue/1.0/android.hardware.graphics.bufferqueue@1.0_genc++_headers/gen/android/hardware/graphics/bufferqueue/1.0/IGraphicBufferProducer.h"
  mangled_record_name: "android::hardware::graphics::bufferqueue::V1_0::IGraphicBufferProducer::CompositorTiming"
}
records {
  basic_abi {
    type_abi {
      name: "android::hardware::graphics::bufferqueue::V1_0::IGraphicBufferProducer::FrameEventHistoryDelta"
      size: 40
      alignment: 8
    }
    name: "android::hardware::graphics::bufferqueue::V1_0::IGraphicBufferProducer::FrameEventHistoryDelta"
    access: public_access
    linker_set_key: "android::hardware::graphics::bufferqueue::V1_0::IGraphicBufferProducer::FrameEventHistoryDelta"
  }
  fields {
    basic_abi {
      type_abi {
        name: "android::hardware::hidl_vec<android::hardware::graphics::bufferqueue::V1_0::IGraphicBufferProducer::FrameEventsDelta>"
        size: 16
        alignment: 8
      }
      name: "deltas"
      access: public_access
    }
  }
  fields {
    basic_abi {
      type_abi {
        name: "android::hardware::graphics::bufferqueue::V1_0::IGraphicBufferProducer::CompositorTiming"
        size: 24
        alignment: 8
      }
      name: "compositorTiming"
      access: public_access
    }
  }
  source_file: "/data/aosp/out/soong/.intermediates/hardware/interfaces/graphics/bufferqueue/1.0/android.hardware.graphics.bufferqueue@1.0_genc++_headers/gen/android/hardware/graphics/bufferqueue/1.0/IGraphicBufferProducer.h"
  mangled_record_name: "android::hardware::graphics::bufferqueue::V1_0::IGraphicBufferProducer::FrameEventHistoryDelta"
}
records {
  basic_abi {
    type_abi {
      name: "android::hardware::graphics::bufferqueue::V1_0::IGraphicBufferProducer::QueueBufferInput"
      size: 88
      alignment: 8
    }
    name: "android::hardware::graphics::bufferqueue::V1_0::IGraphicBufferProducer::QueueBufferInput"
    access: public_access
    linker_set_key: "android::hardware::graphics::bufferqueue::V1_0::IGraphicBufferProducer::QueueBufferInput"
  }
  fields {
    basic_abi {
      type_abi {
        name: "long long"
        size: 8
        alignment: 8
      }
      name: "timestamp"
      access: public_access
    }
  }
  fields {
    basic_abi {
      type_abi {
        name: "int"
        size: 4
        alignment: 4
      }
      name: "isAutoTimestamp"
      access: public_access
    }
  }
  fields {
    basic_abi {
      type_abi {
        name: "android::hardware::graphics::common::V1_0::Dataspace"
        size: 4
        alignment: 4
      }
      name: "dataSpace"
      access: public_access
    }
  }
  fields {
    basic_abi {
      type_abi {
        name: "android::hardware::media::V1_0::Rect"
        size: 16
        alignment: 4
      }
      name: "crop"
      access: public_access
    }
  }
  fields {
    basic_abi {
      type_abi {
        name: "int"
        size: 4
        alignment: 4
      }
      name: "scalingMode"
      access: public_access
    }
  }
  fields {
    basic_abi {
      type_abi {
        name: "unsigned int"
        size: 4
        alignment: 4
      }
      name: "transform"
      access: public_access
    }
  }
  fields {
    basic_abi {
      type_abi {
        name: "unsigned int"
        size: 4
        alignment: 4
      }
      name: "stickyTransform"
      access: public_access
    }
  }
  fields {
    basic_abi {
      type_abi {
        name: "android::hardware::hidl_handle"
        size: 16
        alignment: 8
      }
      name: "fence"
      access: public_access
    }
  }
  fields {
    basic_abi {
      type_abi {
        name: "android::hardware::hidl_vec<android::hardware::media::V1_0::Rect>"
        size: 16
        alignment: 8
      }
      name: "surfaceDamage"
      access: public_access
    }
  }
  fields {
    basic_abi {
      type_abi {
        name: "bool"
        size: 1
        alignment: 1
      }
      name: "getFrameTimestamps"
      access: public_access
    }
  }
  source_file: "/data/aosp/out/soong/.intermediates/hardware/interfaces/graphics/bufferqueue/1.0/android.hardware.graphics.bufferqueue@1.0_genc++_headers/gen/android/hardware/graphics/bufferqueue/1.0/IGraphicBufferProducer.h"
  mangled_record_name: "android::hardware::graphics::bufferqueue::V1_0::IGraphicBufferProducer::QueueBufferInput"
}
records {
  basic_abi {
    type_abi {
      name: "android::hardware::graphics::bufferqueue::V1_0::IGraphicBufferProducer::QueueBufferOutput"
      size: 72
      alignment: 8
    }
    name: "android::hardware::graphics::bufferqueue::V1_0::IGraphicBufferProducer::QueueBufferOutput"
    access: public_access
    linker_set_key: "android::hardware::graphics::bufferqueue::V1_0::IGraphicBufferProducer::QueueBufferOutput"
  }
  fields {
    basic_abi {
      type_abi {
        name: "unsigned int"
        size: 4
        alignment: 4
      }
      name: "width"
      access: public_access
    }
  }
  fields {
    basic_abi {
      type_abi {
        name: "unsigned int"
        size: 4
        alignment: 4
      }
      name: "height"
      access: public_access
    }
  }
  fields {
    basic_abi {
      type_abi {
        name: "unsigned int"
        size: 4
        alignment: 4
      }
      name: "transformHint"
      access: public_access
    }
  }
  fields {
    basic_abi {
      type_abi {
        name: "unsigned int"
        size: 4
        alignment: 4
      }
      name: "numPendingBuffers"
      access: public_access
    }
  }
  fields {
    basic_abi {
      type_abi {
        name: "unsigned long long"
        size: 8
        alignment: 8
      }
      name: "nextFrameNumber"
      access: public_access
    }
  }
  fields {
    basic_abi {
      type_abi {
        name: "bool"
        size: 1
        alignment: 1
      }
      name: "bufferReplaced"
      access: public_access
    }
  }
  fields {
    basic_abi {
      type_abi {
        name: "android::hardware::graphics::bufferqueue::V1_0::IGraphicBufferProducer::FrameEventHistoryDelta"
        size: 40
        alignment: 8
      }
      name: "frameTimestamps"
      access: public_access
    }
  }
  source_file: "/data/aosp/out/soong/.intermediates/hardware/interfaces/graphics/bufferqueue/1.0/android.hardware.graphics.bufferqueue@1.0_genc++_headers/gen/android/hardware/graphics/bufferqueue/1.0/IGraphicBufferProducer.h"
  mangled_record_name: "android::hardware::graphics::bufferqueue::V1_0::IGraphicBufferProducer::QueueBufferOutput"
}
records {
  basic_abi {
    type_abi {
      name: "android::hardware::graphics::bufferqueue::V1_0::BnHwProducerListener"
      size: 80
      alignment: 4
    }
    name: "android::hardware::graphics::bufferqueue::V1_0::BnHwProducerListener"
    access: public_access
    linker_set_key: "android::hardware::graphics::bufferqueue::V1_0::BnHwProducerListener"
  }
  fields {
    basic_abi {
      type_abi {
        name: "android::sp<android::hardware::graphics::bufferqueue::V1_0::IProducerListener>"
        size: 4
        alignment: 4
      }
      name: "_hidl_mImpl"
      access: private_access
    }
  }
  base_specifiers {
    basic_abi {
      type_abi {
        name: "android::hidl::base::V1_0::BnHwBase"
      }
      name: ""
      access: public_access
    }
    is_virtual: false
  }
  source_file: "/data/aosp/out/soong/.intermediates/hardware/interfaces/graphics/bufferqueue/1.0/android.hardware.graphics.bufferqueue@1.0_genc++_headers/gen/android/hardware/graphics/bufferqueue/1.0/BnHwProducerListener.h"
  mangled_record_name: "android::hardware::graphics::bufferqueue::V1_0::BnHwProducerListener"
  vtable_layout {
    vtable_components {
      kind: VBaseOffset
      mangled_component_name: ""
      component_value: 72
    }
    vtable_components {
      kind: OffsetToTop
      mangled_component_name: ""
      component_value: 0
    }
    vtable_components {
      kind: RTTI
      mangled_component_name: "android::hardware::graphics::bufferqueue::V1_0::BnHwProducerListener"
      component_value: 0
    }
    vtable_components {
      kind: FunctionPointer
      mangled_component_name: "_ZN7android8hardware9BHwBinder8transactEjRKNS0_6ParcelEPS2_jNSt3__18functionIFvRS2_EEE"
      component_value: 0
    }
    vtable_components {
      kind: FunctionPointer
      mangled_component_name: "_ZN7android8hardware9BHwBinder11linkToDeathERKNS_2spINS0_7IBinder14DeathRecipientEEEPvj"
      component_value: 0
    }
    vtable_components {
      kind: FunctionPointer
      mangled_component_name: "_ZN7android8hardware9BHwBinder13unlinkToDeathERKNS_2wpINS0_7IBinder14DeathRecipientEEEPvjPS5_"
      component_value: 0
    }
    vtable_components {
      kind: FunctionPointer
      mangled_component_name: "_ZNK7android8hardware7IBinder13checkSubclassEPKv"
      component_value: 0
    }
    vtable_components {
      kind: FunctionPointer
      mangled_component_name: "_ZN7android8hardware9BHwBinder12attachObjectEPKvPvS4_PFvS3_S4_S4_E"
      component_value: 0
    }
    vtable_components {
      kind: FunctionPointer
      mangled_component_name: "_ZNK7android8hardware9BHwBinder10findObjectEPKv"
      component_value: 0
    }
    vtable_components {
      kind: FunctionPointer
      mangled_component_name: "_ZN7android8hardware9BHwBinder12detachObjectEPKv"
      component_value: 0
    }
    vtable_components {
      kind: FunctionPointer
      mangled_component_name: "_ZN7android8hardware9BHwBinder11localBinderEv"
      component_value: 0
    }
    vtable_components {
      kind: FunctionPointer
      mangled_component_name: "_ZN7android8hardware7IBinder12remoteBinderEv"
      component_value: 0
    }
    vtable_components {
      kind: CompleteDtorPointer
      mangled_component_name: "_ZN7android8hardware8graphics11bufferqueue4V1_020BnHwProducerListenerD1Ev"
      component_value: 0
    }
    vtable_components {
      kind: DeletingDtorPointer
      mangled_component_name: "_ZN7android8hardware8graphics11bufferqueue4V1_020BnHwProducerListenerD0Ev"
      component_value: 0
    }
    vtable_components {
      kind: FunctionPointer
      mangled_component_name: "_ZN7android8hardware8graphics11bufferqueue4V1_020BnHwProducerListener10onTransactEjRKNS0_6ParcelEPS5_jNSt3__18functionIFvRS5_EEE"
      component_value: 0
    }
    vtable_components {
      kind: OffsetToTop
      mangled_component_name: ""
      component_value: -20
    }
    vtable_components {
      kind: RTTI
      mangled_component_name: "android::hardware::graphics::bufferqueue::V1_0::BnHwProducerListener"
      component_value: 0
    }
    vtable_components {
      kind: CompleteDtorPointer
      mangled_component_name: "_ZN7android8hardware8graphics11bufferqueue4V1_020BnHwProducerListenerD1Ev"
      component_value: 0
    }
    vtable_components {
      kind: DeletingDtorPointer
      mangled_component_name: "_ZN7android8hardware8graphics11bufferqueue4V1_020BnHwProducerListenerD0Ev"
      component_value: 0
    }
    vtable_components {
      kind: VCallOffset
      mangled_component_name: ""
      component_value: 0
    }
    vtable_components {
      kind: VCallOffset
      mangled_component_name: ""
      component_value: 0
    }
    vtable_components {
      kind: VCallOffset
      mangled_component_name: ""
      component_value: 0
    }
    vtable_components {
      kind: VCallOffset
      mangled_component_name: ""
      component_value: 0
    }
    vtable_components {
      kind: VCallOffset
      mangled_component_name: ""
      component_value: -72
    }
    vtable_components {
      kind: OffsetToTop
      mangled_component_name: ""
      component_value: -72
    }
    vtable_components {
      kind: RTTI
      mangled_component_name: "android::hardware::graphics::bufferqueue::V1_0::BnHwProducerListener"
      component_value: 0
    }
    vtable_components {
      kind: CompleteDtorPointer
      mangled_component_name: "_ZN7android8hardware8graphics11bufferqueue4V1_020BnHwProducerListenerD1Ev"
      component_value: 0
    }
    vtable_components {
      kind: DeletingDtorPointer
      mangled_component_name: "_ZN7android8hardware8graphics11bufferqueue4V1_020BnHwProducerListenerD0Ev"
      component_value: 0
    }
    vtable_components {
      kind: FunctionPointer
      mangled_component_name: "_ZN7android7RefBase10onFirstRefEv"
      component_value: 0
    }
    vtable_components {
      kind: FunctionPointer
      mangled_component_name: "_ZN7android7RefBase15onLastStrongRefEPKv"
      component_value: 0
    }
    vtable_components {
      kind: FunctionPointer
      mangled_component_name: "_ZN7android7RefBase20onIncStrongAttemptedEjPKv"
      component_value: 0
    }
    vtable_components {
      kind: FunctionPointer
      mangled_component_name: "_ZN7android7RefBase13onLastWeakRefEPKv"
      component_value: 0
    }
  }
}
records {
  basic_abi {
    type_abi {
      name: "android::hardware::graphics::bufferqueue::V1_0::BpHwProducerListener"
      size: 92
      alignment: 4
    }
    name: "android::hardware::graphics::bufferqueue::V1_0::BpHwProducerListener"
    access: public_access
    linker_set_key: "android::hardware::graphics::bufferqueue::V1_0::BpHwProducerListener"
  }
  fields {
    basic_abi {
      type_abi {
        name: "std::mutex"
        size: 4
        alignment: 4
      }
      name: "_hidl_mMutex"
      access: private_access
    }
  }
  fields {
    basic_abi {
      type_abi {
        name: "std::vector<android::sp<android::hardware::hidl_binder_death_recipient>, std::allocator<android::sp<android::hardware::hidl_binder_death_recipient> > >"
        size: 12
        alignment: 4
      }
      name: "_hidl_mDeathRecipients"
      access: private_access
    }
  }
  base_specifiers {
    basic_abi {
      type_abi {
        name: "android::hardware::BpInterface<android::hardware::graphics::bufferqueue::V1_0::IProducerListener>"
      }
      name: ""
      access: public_access
    }
    is_virtual: false
  }
  base_specifiers {
    basic_abi {
      type_abi {
        name: "android::hardware::details::HidlInstrumentor"
      }
      name: ""
      access: public_access
    }
    is_virtual: false
  }
  source_file: "/data/aosp/out/soong/.intermediates/hardware/interfaces/graphics/bufferqueue/1.0/android.hardware.graphics.bufferqueue@1.0_genc++_headers/gen/android/hardware/graphics/bufferqueue/1.0/BpHwProducerListener.h"
  mangled_record_name: "android::hardware::graphics::bufferqueue::V1_0::BpHwProducerListener"
  vtable_layout {
    vtable_components {
      kind: VBaseOffset
      mangled_component_name: ""
      component_value: 84
    }
    vtable_components {
      kind: OffsetToTop
      mangled_component_name: ""
      component_value: 0
    }
    vtable_components {
      kind: RTTI
      mangled_component_name: "android::hardware::graphics::bufferqueue::V1_0::BpHwProducerListener"
      component_value: 0
    }
    vtable_components {
      kind: FunctionPointer
      mangled_component_name: "_ZNK7android8hardware8graphics11bufferqueue4V1_020BpHwProducerListener8isRemoteEv"
      component_value: 0
    }
    vtable_components {
      kind: FunctionPointer
      mangled_component_name: "_ZN7android8hardware8graphics11bufferqueue4V1_020BpHwProducerListener14interfaceChainENSt3__18functionIFvRKNS0_8hidl_vecINS0_11hidl_stringEEEEEE"
      component_value: 0
    }
    vtable_components {
      kind: FunctionPointer
      mangled_component_name: "_ZN7android8hardware8graphics11bufferqueue4V1_020BpHwProducerListener5debugERKNS0_11hidl_handleERKNS0_8hidl_vecINS0_11hidl_stringEEE"
      component_value: 0
    }
    vtable_components {
      kind: FunctionPointer
      mangled_component_name: "_ZN7android8hardware8graphics11bufferqueue4V1_020BpHwProducerListener19interfaceDescriptorENSt3__18functionIFvRKNS0_11hidl_stringEEEE"
      component_value: 0
    }
    vtable_components {
      kind: FunctionPointer
      mangled_component_name: "_ZN7android8hardware8graphics11bufferqueue4V1_020BpHwProducerListener12getHashChainENSt3__18functionIFvRKNS0_8hidl_vecINS0_10hidl_arrayIhLj32EJEEEEEEEE"
      component_value: 0
    }
    vtable_components {
      kind: FunctionPointer
      mangled_component_name: "_ZN7android8hardware8graphics11bufferqueue4V1_020BpHwProducerListener21setHALInstrumentationEv"
      component_value: 0
    }
    vtable_components {
      kind: FunctionPointer
      mangled_component_name: "_ZN7android8hardware8graphics11bufferqueue4V1_020BpHwProducerListener11linkToDeathERKNS_2spINS0_20hidl_death_recipientEEEy"
      component_value: 0
    }
    vtable_components {
      kind: FunctionPointer
      mangled_component_name: "_ZN7android8hardware8graphics11bufferqueue4V1_020BpHwProducerListener4pingEv"
      component_value: 0
    }
    vtable_components {
      kind: FunctionPointer
      mangled_component_name: "_ZN7android8hardware8graphics11bufferqueue4V1_020BpHwProducerListener12getDebugInfoENSt3__18functionIFvRKNS_4hidl4base4V1_09DebugInfoEEEE"
      component_value: 0
    }
    vtable_components {
      kind: FunctionPointer
      mangled_component_name: "_ZN7android8hardware8graphics11bufferqueue4V1_020BpHwProducerListener21notifySyspropsChangedEv"
      component_value: 0
    }
    vtable_components {
      kind: FunctionPointer
      mangled_component_name: "_ZN7android8hardware8graphics11bufferqueue4V1_020BpHwProducerListener13unlinkToDeathERKNS_2spINS0_20hidl_death_recipientEEE"
      component_value: 0
    }
    vtable_components {
      kind: CompleteDtorPointer
      mangled_component_name: "_ZN7android8hardware8graphics11bufferqueue4V1_020BpHwProducerListenerD1Ev"
      component_value: 0
    }
    vtable_components {
      kind: DeletingDtorPointer
      mangled_component_name: "_ZN7android8hardware8graphics11bufferqueue4V1_020BpHwProducerListenerD0Ev"
      component_value: 0
    }
    vtable_components {
      kind: FunctionPointer
      mangled_component_name: "_ZN7android8hardware8graphics11bufferqueue4V1_020BpHwProducerListener16onBufferReleasedEv"
      component_value: 0
    }
    vtable_components {
      kind: FunctionPointer
      mangled_component_name: "_ZN7android8hardware8graphics11bufferqueue4V1_020BpHwProducerListener18needsReleaseNotifyEv"
      component_value: 0
    }
    vtable_components {
      kind: FunctionPointer
      mangled_component_name: "_ZN7android8hardware11BpInterfaceINS0_8graphics11bufferqueue4V1_017IProducerListenerEE10onAsBinderEv"
      component_value: 0
    }
    vtable_components {
      kind: VBaseOffset
      mangled_component_name: ""
      component_value: 80
    }
    vtable_components {
      kind: OffsetToTop
      mangled_component_name: ""
      component_value: -4
    }
    vtable_components {
      kind: RTTI
      mangled_component_name: "android::hardware::graphics::bufferqueue::V1_0::BpHwProducerListener"
      component_value: 0
    }
    vtable_components {
      kind: CompleteDtorPointer
      mangled_component_name: "_ZN7android8hardware8graphics11bufferqueue4V1_020BpHwProducerListenerD1Ev"
      component_value: 0
    }
    vtable_components {
      kind: DeletingDtorPointer
      mangled_component_name: "_ZN7android8hardware8graphics11bufferqueue4V1_020BpHwProducerListenerD0Ev"
      component_value: 0
    }
    vtable_components {
      kind: FunctionPointer
      mangled_component_name: "_ZN7android8hardware11BpInterfaceINS0_8graphics11bufferqueue4V1_017IProducerListenerEE10onAsBinderEv"
      component_value: 0
    }
    vtable_components {
      kind: VBaseOffset
      mangled_component_name: ""
      component_value: 76
    }
    vtable_components {
      kind: OffsetToTop
      mangled_component_name: ""
      component_value: -8
    }
    vtable_components {
      kind: RTTI
      mangled_component_name: "android::hardware::graphics::bufferqueue::V1_0::BpHwProducerListener"
      component_value: 0
    }
    vtable_components {
      kind: CompleteDtorPointer
      mangled_component_name: "_ZN7android8hardware8graphics11bufferqueue4V1_020BpHwProducerListenerD1Ev"
      component_value: 0
    }
    vtable_components {
      kind: DeletingDtorPointer
      mangled_component_name: "_ZN7android8hardware8graphics11bufferqueue4V1_020BpHwProducerListenerD0Ev"
      component_value: 0
    }
    vtable_components {
      kind: FunctionPointer
      mangled_component_name: "_ZN7android8hardware11BpHwRefBase10onFirstRefEv"
      component_value: 0
    }
    vtable_components {
      kind: FunctionPointer
      mangled_component_name: "_ZN7android8hardware11BpHwRefBase15onLastStrongRefEPKv"
      component_value: 0
    }
    vtable_components {
      kind: FunctionPointer
      mangled_component_name: "_ZN7android8hardware11BpHwRefBase20onIncStrongAttemptedEjPKv"
      component_value: 0
    }
    vtable_components {
      kind: OffsetToTop
      mangled_component_name: ""
      component_value: -24
    }
    vtable_components {
      kind: RTTI
      mangled_component_name: "android::hardware::graphics::bufferqueue::V1_0::BpHwProducerListener"
      component_value: 0
    }
    vtable_components {
      kind: CompleteDtorPointer
      mangled_component_name: "_ZN7android8hardware8graphics11bufferqueue4V1_020BpHwProducerListenerD1Ev"
      component_value: 0
    }
    vtable_components {
      kind: DeletingDtorPointer
      mangled_component_name: "_ZN7android8hardware8graphics11bufferqueue4V1_020BpHwProducerListenerD0Ev"
      component_value: 0
    }
    vtable_components {
      kind: VCallOffset
      mangled_component_name: ""
      component_value: 0
    }
    vtable_components {
      kind: VCallOffset
      mangled_component_name: ""
      component_value: -76
    }
    vtable_components {
      kind: VCallOffset
      mangled_component_name: ""
      component_value: -76
    }
    vtable_components {
      kind: VCallOffset
      mangled_component_name: ""
      component_value: -76
    }
    vtable_components {
      kind: VCallOffset
      mangled_component_name: ""
      component_value: -84
    }
    vtable_components {
      kind: OffsetToTop
      mangled_component_name: ""
      component_value: -84
    }
    vtable_components {
      kind: RTTI
      mangled_component_name: "android::hardware::graphics::bufferqueue::V1_0::BpHwProducerListener"
      component_value: 0
    }
    vtable_components {
      kind: CompleteDtorPointer
      mangled_component_name: "_ZN7android8hardware8graphics11bufferqueue4V1_020BpHwProducerListenerD1Ev"
      component_value: 0
    }
    vtable_components {
      kind: DeletingDtorPointer
      mangled_component_name: "_ZN7android8hardware8graphics11bufferqueue4V1_020BpHwProducerListenerD0Ev"
      component_value: 0
    }
    vtable_components {
      kind: FunctionPointer
      mangled_component_name: "_ZN7android8hardware11BpHwRefBase10onFirstRefEv"
      component_value: 0
    }
    vtable_components {
      kind: FunctionPointer
      mangled_component_name: "_ZN7android8hardware11BpHwRefBase15onLastStrongRefEPKv"
      component_value: 0
    }
    vtable_components {
      kind: FunctionPointer
      mangled_component_name: "_ZN7android8hardware11BpHwRefBase20onIncStrongAttemptedEjPKv"
      component_value: 0
    }
    vtable_components {
      kind: FunctionPointer
      mangled_component_name: "_ZN7android7RefBase13onLastWeakRefEPKv"
      component_value: 0
    }
  }
}
records {
  basic_abi {
    type_abi {
      name: "android::hardware::graphics::bufferqueue::V1_0::BpHwGraphicBufferProducer"
      size: 92
      alignment: 4
    }
    name: "android::hardware::graphics::bufferqueue::V1_0::BpHwGraphicBufferProducer"
    access: public_access
    linker_set_key: "android::hardware::graphics::bufferqueue::V1_0::BpHwGraphicBufferProducer"
  }
  fields {
    basic_abi {
      type_abi {
        name: "std::mutex"
        size: 4
        alignment: 4
      }
      name: "_hidl_mMutex"
      access: private_access
    }
  }
  fields {
    basic_abi {
      type_abi {
        name: "std::vector<android::sp<android::hardware::hidl_binder_death_recipient>, std::allocator<android::sp<android::hardware::hidl_binder_death_recipient> > >"
        size: 12
        alignment: 4
      }
      name: "_hidl_mDeathRecipients"
      access: private_access
    }
  }
  base_specifiers {
    basic_abi {
      type_abi {
        name: "android::hardware::BpInterface<android::hardware::graphics::bufferqueue::V1_0::IGraphicBufferProducer>"
      }
      name: ""
      access: public_access
    }
    is_virtual: false
  }
  base_specifiers {
    basic_abi {
      type_abi {
        name: "android::hardware::details::HidlInstrumentor"
      }
      name: ""
      access: public_access
    }
    is_virtual: false
  }
  source_file: "/data/aosp/out/soong/.intermediates/hardware/interfaces/graphics/bufferqueue/1.0/android.hardware.graphics.bufferqueue@1.0_genc++_headers/gen/android/hardware/graphics/bufferqueue/1.0/BpHwGraphicBufferProducer.h"
  mangled_record_name: "android::hardware::graphics::bufferqueue::V1_0::BpHwGraphicBufferProducer"
  vtable_layout {
    vtable_components {
      kind: VBaseOffset
      mangled_component_name: ""
      component_value: 84
    }
    vtable_components {
      kind: OffsetToTop
      mangled_component_name: ""
      component_value: 0
    }
    vtable_components {
      kind: RTTI
      mangled_component_name: "android::hardware::graphics::bufferqueue::V1_0::BpHwGraphicBufferProducer"
      component_value: 0
    }
    vtable_components {
      kind: FunctionPointer
      mangled_component_name: "_ZNK7android8hardware8graphics11bufferqueue4V1_025BpHwGraphicBufferProducer8isRemoteEv"
      component_value: 0
    }
    vtable_components {
      kind: FunctionPointer
      mangled_component_name: "_ZN7android8hardware8graphics11bufferqueue4V1_025BpHwGraphicBufferProducer14interfaceChainENSt3__18functionIFvRKNS0_8hidl_vecINS0_11hidl_stringEEEEEE"
      component_value: 0
    }
    vtable_components {
      kind: FunctionPointer
      mangled_component_name: "_ZN7android8hardware8graphics11bufferqueue4V1_025BpHwGraphicBufferProducer5debugERKNS0_11hidl_handleERKNS0_8hidl_vecINS0_11hidl_stringEEE"
      component_value: 0
    }
    vtable_components {
      kind: FunctionPointer
      mangled_component_name: "_ZN7android8hardware8graphics11bufferqueue4V1_025BpHwGraphicBufferProducer19interfaceDescriptorENSt3__18functionIFvRKNS0_11hidl_stringEEEE"
      component_value: 0
    }
    vtable_components {
      kind: FunctionPointer
      mangled_component_name: "_ZN7android8hardware8graphics11bufferqueue4V1_025BpHwGraphicBufferProducer12getHashChainENSt3__18functionIFvRKNS0_8hidl_vecINS0_10hidl_arrayIhLj32EJEEEEEEEE"
      component_value: 0
    }
    vtable_components {
      kind: FunctionPointer
      mangled_component_name: "_ZN7android8hardware8graphics11bufferqueue4V1_025BpHwGraphicBufferProducer21setHALInstrumentationEv"
      component_value: 0
    }
    vtable_components {
      kind: FunctionPointer
      mangled_component_name: "_ZN7android8hardware8graphics11bufferqueue4V1_025BpHwGraphicBufferProducer11linkToDeathERKNS_2spINS0_20hidl_death_recipientEEEy"
      component_value: 0
    }
    vtable_components {
      kind: FunctionPointer
      mangled_component_name: "_ZN7android8hardware8graphics11bufferqueue4V1_025BpHwGraphicBufferProducer4pingEv"
      component_value: 0
    }
    vtable_components {
      kind: FunctionPointer
      mangled_component_name: "_ZN7android8hardware8graphics11bufferqueue4V1_025BpHwGraphicBufferProducer12getDebugInfoENSt3__18functionIFvRKNS_4hidl4base4V1_09DebugInfoEEEE"
      component_value: 0
    }
    vtable_components {
      kind: FunctionPointer
      mangled_component_name: "_ZN7android8hardware8graphics11bufferqueue4V1_025BpHwGraphicBufferProducer21notifySyspropsChangedEv"
      component_value: 0
    }
    vtable_components {
      kind: FunctionPointer
      mangled_component_name: "_ZN7android8hardware8graphics11bufferqueue4V1_025BpHwGraphicBufferProducer13unlinkToDeathERKNS_2spINS0_20hidl_death_recipientEEE"
      component_value: 0
    }
    vtable_components {
      kind: CompleteDtorPointer
      mangled_component_name: "_ZN7android8hardware8graphics11bufferqueue4V1_025BpHwGraphicBufferProducerD1Ev"
      component_value: 0
    }
    vtable_components {
      kind: DeletingDtorPointer
      mangled_component_name: "_ZN7android8hardware8graphics11bufferqueue4V1_025BpHwGraphicBufferProducerD0Ev"
      component_value: 0
    }
    vtable_components {
      kind: FunctionPointer
      mangled_component_name: "_ZN7android8hardware8graphics11bufferqueue4V1_025BpHwGraphicBufferProducer13requestBufferEiNSt3__18functionIFviRKNS0_5media4V1_09AnwBufferEEEE"
      component_value: 0
    }
    vtable_components {
      kind: FunctionPointer
      mangled_component_name: "_ZN7android8hardware8graphics11bufferqueue4V1_025BpHwGraphicBufferProducer25setMaxDequeuedBufferCountEi"
      component_value: 0
    }
    vtable_components {
      kind: FunctionPointer
      mangled_component_name: "_ZN7android8hardware8graphics11bufferqueue4V1_025BpHwGraphicBufferProducer12setAsyncModeEb"
      component_value: 0
    }
    vtable_components {
      kind: FunctionPointer
      mangled_component_name: "_ZN7android8hardware8graphics11bufferqueue4V1_025BpHwGraphicBufferProducer13dequeueBufferEjjNS1_6common4V1_011PixelFormatEjbNSt3__18functionIFviiRKNS0_11hidl_handleERKNS3_22IGraphicBufferProducer22FrameEventHistoryDeltaEEEE"
      component_value: 0
    }
    vtable_components {
      kind: FunctionPointer
      mangled_component_name: "_ZN7android8hardware8graphics11bufferqueue4V1_025BpHwGraphicBufferProducer12detachBufferEi"
      component_value: 0
    }
    vtable_components {
      kind: FunctionPointer
      mangled_component_name: "_ZN7android8hardware8graphics11bufferqueue4V1_025BpHwGraphicBufferProducer16detachNextBufferENSt3__18functionIFviRKNS0_5media4V1_09AnwBufferERKNS0_11hidl_handleEEEE"
      component_value: 0
    }
    vtable_components {
      kind: FunctionPointer
      mangled_component_name: "_ZN7android8hardware8graphics11bufferqueue4V1_025BpHwGraphicBufferProducer12attachBufferERKNS0_5media4V1_09AnwBufferENSt3__18functionIFviiEEE"
      component_value: 0
    }
    vtable_components {
      kind: FunctionPointer
      mangled_component_name: "_ZN7android8hardware8graphics11bufferqueue4V1_025BpHwGraphicBufferProducer11queueBufferEiRKNS3_22IGraphicBufferProducer16QueueBufferInputENSt3__18functionIFviRKNS5_17QueueBufferOutputEEEE"
      component_value: 0
    }
    vtable_components {
      kind: FunctionPointer
      mangled_component_name: "_ZN7android8hardware8graphics11bufferqueue4V1_025BpHwGraphicBufferProducer12cancelBufferEiRKNS0_11hidl_handleE"
      component_value: 0
    }
    vtable_components {
      kind: FunctionPointer
      mangled_component_name: "_ZN7android8hardware8graphics11bufferqueue4V1_025BpHwGraphicBufferProducer5queryEiNSt3__18functionIFviiEEE"
      component_value: 0
    }
    vtable_components {
      kind: FunctionPointer
      mangled_component_name: "_ZN7android8hardware8graphics11bufferqueue4V1_025BpHwGraphicBufferProducer7connectERKNS_2spINS3_17IProducerListenerEEEibNSt3__18functionIFviRKNS3_22IGraphicBufferProducer17QueueBufferOutputEEEE"
      component_value: 0
    }
    vtable_components {
      kind: FunctionPointer
      mangled_component_name: "_ZN7android8hardware8graphics11bufferqueue4V1_025BpHwGraphicBufferProducer10disconnectEiNS3_22IGraphicBufferProducer14DisconnectModeE"
      component_value: 0
    }
    vtable_components {
      kind: FunctionPointer
      mangled_component_name: "_ZN7android8hardware8graphics11bufferqueue4V1_025BpHwGraphicBufferProducer17setSidebandStreamERKNS0_11hidl_handleE"
      component_value: 0
    }
    vtable_components {
      kind: FunctionPointer
      mangled_component_name: "_ZN7android8hardware8graphics11bufferqueue4V1_025BpHwGraphicBufferProducer15allocateBuffersEjjNS1_6common4V1_011PixelFormatEj"
      component_value: 0
    }
    vtable_components {
      kind: FunctionPointer
      mangled_component_name: "_ZN7android8hardware8graphics11bufferqueue4V1_025BpHwGraphicBufferProducer15allowAllocationEb"
      component_value: 0
    }
    vtable_components {
      kind: FunctionPointer
      mangled_component_name: "_ZN7android8hardware8graphics11bufferqueue4V1_025BpHwGraphicBufferProducer19setGenerationNumberEj"
      component_value: 0
    }
    vtable_components {
      kind: FunctionPointer
      mangled_component_name: "_ZN7android8hardware8graphics11bufferqueue4V1_025BpHwGraphicBufferProducer15getConsumerNameENSt3__18functionIFvRKNS0_11hidl_stringEEEE"
      component_value: 0
    }
    vtable_components {
      kind: FunctionPointer
      mangled_component_name: "_ZN7android8hardware8graphics11bufferqueue4V1_025BpHwGraphicBufferProducer19setSharedBufferModeEb"
      component_value: 0
    }
    vtable_components {
      kind: FunctionPointer
      mangled_component_name: "_ZN7android8hardware8graphics11bufferqueue4V1_025BpHwGraphicBufferProducer14setAutoRefreshEb"
      component_value: 0
    }
    vtable_components {
      kind: FunctionPointer
      mangled_component_name: "_ZN7android8hardware8graphics11bufferqueue4V1_025BpHwGraphicBufferProducer17setDequeueTimeoutEx"
      component_value: 0
    }
    vtable_components {
      kind: FunctionPointer
      mangled_component_name: "_ZN7android8hardware8graphics11bufferqueue4V1_025BpHwGraphicBufferProducer19getLastQueuedBufferENSt3__18functionIFviRKNS0_5media4V1_09AnwBufferERKNS0_11hidl_handleERKNS0_10hidl_arrayIfLj16EJEEEEEE"
      component_value: 0
    }
    vtable_components {
      kind: FunctionPointer
      mangled_component_name: "_ZN7android8hardware8graphics11bufferqueue4V1_025BpHwGraphicBufferProducer18getFrameTimestampsENSt3__18functionIFvRKNS3_22IGraphicBufferProducer22FrameEventHistoryDeltaEEEE"
      component_value: 0
    }
    vtable_components {
      kind: FunctionPointer
      mangled_component_name: "_ZN7android8hardware8graphics11bufferqueue4V1_025BpHwGraphicBufferProducer11getUniqueIdENSt3__18functionIFviyEEE"
      component_value: 0
    }
    vtable_components {
      kind: FunctionPointer
      mangled_component_name: "_ZN7android8hardware11BpInterfaceINS0_8graphics11bufferqueue4V1_022IGraphicBufferProducerEE10onAsBinderEv"
      component_value: 0
    }
    vtable_components {
      kind: VBaseOffset
      mangled_component_name: ""
      component_value: 80
    }
    vtable_components {
      kind: OffsetToTop
      mangled_component_name: ""
      component_value: -4
    }
    vtable_components {
      kind: RTTI
      mangled_component_name: "android::hardware::graphics::bufferqueue::V1_0::BpHwGraphicBufferProducer"
      component_value: 0
    }
    vtable_components {
      kind: CompleteDtorPointer
      mangled_component_name: "_ZN7android8hardware8graphics11bufferqueue4V1_025BpHwGraphicBufferProducerD1Ev"
      component_value: 0
    }
    vtable_components {
      kind: DeletingDtorPointer
      mangled_component_name: "_ZN7android8hardware8graphics11bufferqueue4V1_025BpHwGraphicBufferProducerD0Ev"
      component_value: 0
    }
    vtable_components {
      kind: FunctionPointer
      mangled_component_name: "_ZN7android8hardware11BpInterfaceINS0_8graphics11bufferqueue4V1_022IGraphicBufferProducerEE10onAsBinderEv"
      component_value: 0
    }
    vtable_components {
      kind: VBaseOffset
      mangled_component_name: ""
      component_value: 76
    }
    vtable_components {
      kind: OffsetToTop
      mangled_component_name: ""
      component_value: -8
    }
    vtable_components {
      kind: RTTI
      mangled_component_name: "android::hardware::graphics::bufferqueue::V1_0::BpHwGraphicBufferProducer"
      component_value: 0
    }
    vtable_components {
      kind: CompleteDtorPointer
      mangled_component_name: "_ZN7android8hardware8graphics11bufferqueue4V1_025BpHwGraphicBufferProducerD1Ev"
      component_value: 0
    }
    vtable_components {
      kind: DeletingDtorPointer
      mangled_component_name: "_ZN7android8hardware8graphics11bufferqueue4V1_025BpHwGraphicBufferProducerD0Ev"
      component_value: 0
    }
    vtable_components {
      kind: FunctionPointer
      mangled_component_name: "_ZN7android8hardware11BpHwRefBase10onFirstRefEv"
      component_value: 0
    }
    vtable_components {
      kind: FunctionPointer
      mangled_component_name: "_ZN7android8hardware11BpHwRefBase15onLastStrongRefEPKv"
      component_value: 0
    }
    vtable_components {
      kind: FunctionPointer
      mangled_component_name: "_ZN7android8hardware11BpHwRefBase20onIncStrongAttemptedEjPKv"
      component_value: 0
    }
    vtable_components {
      kind: OffsetToTop
      mangled_component_name: ""
      component_value: -24
    }
    vtable_components {
      kind: RTTI
      mangled_component_name: "android::hardware::graphics::bufferqueue::V1_0::BpHwGraphicBufferProducer"
      component_value: 0
    }
    vtable_components {
      kind: CompleteDtorPointer
      mangled_component_name: "_ZN7android8hardware8graphics11bufferqueue4V1_025BpHwGraphicBufferProducerD1Ev"
      component_value: 0
    }
    vtable_components {
      kind: DeletingDtorPointer
      mangled_component_name: "_ZN7android8hardware8graphics11bufferqueue4V1_025BpHwGraphicBufferProducerD0Ev"
      component_value: 0
    }
    vtable_components {
      kind: VCallOffset
      mangled_component_name: ""
      component_value: 0
    }
    vtable_components {
      kind: VCallOffset
      mangled_component_name: ""
      component_value: -76
    }
    vtable_components {
      kind: VCallOffset
      mangled_component_name: ""
      component_value: -76
    }
    vtable_components {
      kind: VCallOffset
      mangled_component_name: ""
      component_value: -76
    }
    vtable_components {
      kind: VCallOffset
      mangled_component_name: ""
      component_value: -84
    }
    vtable_components {
      kind: OffsetToTop
      mangled_component_name: ""
      component_value: -84
    }
    vtable_components {
      kind: RTTI
      mangled_component_name: "android::hardware::graphics::bufferqueue::V1_0::BpHwGraphicBufferProducer"
      component_value: 0
    }
    vtable_components {
      kind: CompleteDtorPointer
      mangled_component_name: "_ZN7android8hardware8graphics11bufferqueue4V1_025BpHwGraphicBufferProducerD1Ev"
      component_value: 0
    }
    vtable_components {
      kind: DeletingDtorPointer
      mangled_component_name: "_ZN7android8hardware8graphics11bufferqueue4V1_025BpHwGraphicBufferProducerD0Ev"
      component_value: 0
    }
    vtable_components {
      kind: FunctionPointer
      mangled_component_name: "_ZN7android8hardware11BpHwRefBase10onFirstRefEv"
      component_value: 0
    }
    vtable_components {
      kind: FunctionPointer
      mangled_component_name: "_ZN7android8hardware11BpHwRefBase15onLastStrongRefEPKv"
      component_value: 0
    }
    vtable_components {
      kind: FunctionPointer
      mangled_component_name: "_ZN7android8hardware11BpHwRefBase20onIncStrongAttemptedEjPKv"
      component_value: 0
    }
    vtable_components {
      kind: FunctionPointer
      mangled_component_name: "_ZN7android7RefBase13onLastWeakRefEPKv"
      component_value: 0
    }
  }
}
records {
  basic_abi {
    type_abi {
      name: "android::hardware::graphics::bufferqueue::V1_0::BnHwGraphicBufferProducer"
      size: 80
      alignment: 4
    }
    name: "android::hardware::graphics::bufferqueue::V1_0::BnHwGraphicBufferProducer"
    access: public_access
    linker_set_key: "android::hardware::graphics::bufferqueue::V1_0::BnHwGraphicBufferProducer"
  }
  fields {
    basic_abi {
      type_abi {
        name: "android::sp<android::hardware::graphics::bufferqueue::V1_0::IGraphicBufferProducer>"
        size: 4
        alignment: 4
      }
      name: "_hidl_mImpl"
      access: private_access
    }
  }
  base_specifiers {
    basic_abi {
      type_abi {
        name: "android::hidl::base::V1_0::BnHwBase"
      }
      name: ""
      access: public_access
    }
    is_virtual: false
  }
  source_file: "/data/aosp/out/soong/.intermediates/hardware/interfaces/graphics/bufferqueue/1.0/android.hardware.graphics.bufferqueue@1.0_genc++_headers/gen/android/hardware/graphics/bufferqueue/1.0/BnHwGraphicBufferProducer.h"
  mangled_record_name: "android::hardware::graphics::bufferqueue::V1_0::BnHwGraphicBufferProducer"
  vtable_layout {
    vtable_components {
      kind: VBaseOffset
      mangled_component_name: ""
      component_value: 72
    }
    vtable_components {
      kind: OffsetToTop
      mangled_component_name: ""
      component_value: 0
    }
    vtable_components {
      kind: RTTI
      mangled_component_name: "android::hardware::graphics::bufferqueue::V1_0::BnHwGraphicBufferProducer"
      component_value: 0
    }
    vtable_components {
      kind: FunctionPointer
      mangled_component_name: "_ZN7android8hardware9BHwBinder8transactEjRKNS0_6ParcelEPS2_jNSt3__18functionIFvRS2_EEE"
      component_value: 0
    }
    vtable_components {
      kind: FunctionPointer
      mangled_component_name: "_ZN7android8hardware9BHwBinder11linkToDeathERKNS_2spINS0_7IBinder14DeathRecipientEEEPvj"
      component_value: 0
    }
    vtable_components {
      kind: FunctionPointer
      mangled_component_name: "_ZN7android8hardware9BHwBinder13unlinkToDeathERKNS_2wpINS0_7IBinder14DeathRecipientEEEPvjPS5_"
      component_value: 0
    }
    vtable_components {
      kind: FunctionPointer
      mangled_component_name: "_ZNK7android8hardware7IBinder13checkSubclassEPKv"
      component_value: 0
    }
    vtable_components {
      kind: FunctionPointer
      mangled_component_name: "_ZN7android8hardware9BHwBinder12attachObjectEPKvPvS4_PFvS3_S4_S4_E"
      component_value: 0
    }
    vtable_components {
      kind: FunctionPointer
      mangled_component_name: "_ZNK7android8hardware9BHwBinder10findObjectEPKv"
      component_value: 0
    }
    vtable_components {
      kind: FunctionPointer
      mangled_component_name: "_ZN7android8hardware9BHwBinder12detachObjectEPKv"
      component_value: 0
    }
    vtable_components {
      kind: FunctionPointer
      mangled_component_name: "_ZN7android8hardware9BHwBinder11localBinderEv"
      component_value: 0
    }
    vtable_components {
      kind: FunctionPointer
      mangled_component_name: "_ZN7android8hardware7IBinder12remoteBinderEv"
      component_value: 0
    }
    vtable_components {
      kind: CompleteDtorPointer
      mangled_component_name: "_ZN7android8hardware8graphics11bufferqueue4V1_025BnHwGraphicBufferProducerD1Ev"
      component_value: 0
    }
    vtable_components {
      kind: DeletingDtorPointer
      mangled_component_name: "_ZN7android8hardware8graphics11bufferqueue4V1_025BnHwGraphicBufferProducerD0Ev"
      component_value: 0
    }
    vtable_components {
      kind: FunctionPointer
      mangled_component_name: "_ZN7android8hardware8graphics11bufferqueue4V1_025BnHwGraphicBufferProducer10onTransactEjRKNS0_6ParcelEPS5_jNSt3__18functionIFvRS5_EEE"
      component_value: 0
    }
    vtable_components {
      kind: OffsetToTop
      mangled_component_name: ""
      component_value: -20
    }
    vtable_components {
      kind: RTTI
      mangled_component_name: "android::hardware::graphics::bufferqueue::V1_0::BnHwGraphicBufferProducer"
      component_value: 0
    }
    vtable_components {
      kind: CompleteDtorPointer
      mangled_component_name: "_ZN7android8hardware8graphics11bufferqueue4V1_025BnHwGraphicBufferProducerD1Ev"
      component_value: 0
    }
    vtable_components {
      kind: DeletingDtorPointer
      mangled_component_name: "_ZN7android8hardware8graphics11bufferqueue4V1_025BnHwGraphicBufferProducerD0Ev"
      component_value: 0
    }
    vtable_components {
      kind: VCallOffset
      mangled_component_name: ""
      component_value: 0
    }
    vtable_components {
      kind: VCallOffset
      mangled_component_name: ""
      component_value: 0
    }
    vtable_components {
      kind: VCallOffset
      mangled_component_name: ""
      component_value: 0
    }
    vtable_components {
      kind: VCallOffset
      mangled_component_name: ""
      component_value: 0
    }
    vtable_components {
      kind: VCallOffset
      mangled_component_name: ""
      component_value: -72
    }
    vtable_components {
      kind: OffsetToTop
      mangled_component_name: ""
      component_value: -72
    }
    vtable_components {
      kind: RTTI
      mangled_component_name: "android::hardware::graphics::bufferqueue::V1_0::BnHwGraphicBufferProducer"
      component_value: 0
    }
    vtable_components {
      kind: CompleteDtorPointer
      mangled_component_name: "_ZN7android8hardware8graphics11bufferqueue4V1_025BnHwGraphicBufferProducerD1Ev"
      component_value: 0
    }
    vtable_components {
      kind: DeletingDtorPointer
      mangled_component_name: "_ZN7android8hardware8graphics11bufferqueue4V1_025BnHwGraphicBufferProducerD0Ev"
      component_value: 0
    }
    vtable_components {
      kind: FunctionPointer
      mangled_component_name: "_ZN7android7RefBase10onFirstRefEv"
      component_value: 0
    }
    vtable_components {
      kind: FunctionPointer
      mangled_component_name: "_ZN7android7RefBase15onLastStrongRefEPKv"
      component_value: 0
    }
    vtable_components {
      kind: FunctionPointer
      mangled_component_name: "_ZN7android7RefBase20onIncStrongAttemptedEjPKv"
      component_value: 0
    }
    vtable_components {
      kind: FunctionPointer
      mangled_component_name: "_ZN7android7RefBase13onLastWeakRefEPKv"
      component_value: 0
    }
  }
}
records {
  basic_abi {
    type_abi {
      name: "android::hardware::graphics::bufferqueue::V1_0::BsGraphicBufferProducer"
      size: 68
      alignment: 4
    }
    name: "android::hardware::graphics::bufferqueue::V1_0::BsGraphicBufferProducer"
    access: public_access
    linker_set_key: "android::hardware::graphics::bufferqueue::V1_0::BsGraphicBufferProducer"
  }
  fields {
    basic_abi {
      type_abi {
        name: "const android::sp<android::hardware::graphics::bufferqueue::V1_0::IGraphicBufferProducer>"
        size: 4
        alignment: 4
      }
      name: "mImpl"
      access: private_access
    }
  }
  fields {
    basic_abi {
      type_abi {
        name: "android::hardware::details::TaskRunner"
        size: 8
        alignment: 4
      }
      name: "mOnewayQueue"
      access: private_access
    }
  }
  base_specifiers {
    basic_abi {
      type_abi {
        name: "android::hardware::graphics::bufferqueue::V1_0::IGraphicBufferProducer"
      }
      name: ""
      access: public_access
    }
    is_virtual: false
  }
  base_specifiers {
    basic_abi {
      type_abi {
        name: "android::hardware::details::HidlInstrumentor"
      }
      name: ""
      access: public_access
    }
    is_virtual: false
  }
  source_file: "/data/aosp/out/soong/.intermediates/hardware/interfaces/graphics/bufferqueue/1.0/android.hardware.graphics.bufferqueue@1.0_genc++_headers/gen/android/hardware/graphics/bufferqueue/1.0/BsGraphicBufferProducer.h"
  mangled_record_name: "android::hardware::graphics::bufferqueue::V1_0::BsGraphicBufferProducer"
  vtable_layout {
    vtable_components {
      kind: VBaseOffset
      mangled_component_name: ""
      component_value: 60
    }
    vtable_components {
      kind: OffsetToTop
      mangled_component_name: ""
      component_value: 0
    }
    vtable_components {
      kind: RTTI
      mangled_component_name: "android::hardware::graphics::bufferqueue::V1_0::BsGraphicBufferProducer"
      component_value: 0
    }
    vtable_components {
      kind: FunctionPointer
      mangled_component_name: "_ZNK7android8hardware8graphics11bufferqueue4V1_022IGraphicBufferProducer8isRemoteEv"
      component_value: 0
    }
    vtable_components {
      kind: FunctionPointer
      mangled_component_name: "_ZN7android8hardware8graphics11bufferqueue4V1_023BsGraphicBufferProducer14interfaceChainENSt3__18functionIFvRKNS0_8hidl_vecINS0_11hidl_stringEEEEEE"
      component_value: 0
    }
    vtable_components {
      kind: FunctionPointer
      mangled_component_name: "_ZN7android8hardware8graphics11bufferqueue4V1_023BsGraphicBufferProducer5debugERKNS0_11hidl_handleERKNS0_8hidl_vecINS0_11hidl_stringEEE"
      component_value: 0
    }
    vtable_components {
      kind: FunctionPointer
      mangled_component_name: "_ZN7android8hardware8graphics11bufferqueue4V1_023BsGraphicBufferProducer19interfaceDescriptorENSt3__18functionIFvRKNS0_11hidl_stringEEEE"
      component_value: 0
    }
    vtable_components {
      kind: FunctionPointer
      mangled_component_name: "_ZN7android8hardware8graphics11bufferqueue4V1_023BsGraphicBufferProducer12getHashChainENSt3__18functionIFvRKNS0_8hidl_vecINS0_10hidl_arrayIhLj32EJEEEEEEEE"
      component_value: 0
    }
    vtable_components {
      kind: FunctionPointer
      mangled_component_name: "_ZN7android8hardware8graphics11bufferqueue4V1_023BsGraphicBufferProducer21setHALInstrumentationEv"
      component_value: 0
    }
    vtable_components {
      kind: FunctionPointer
      mangled_component_name: "_ZN7android8hardware8graphics11bufferqueue4V1_023BsGraphicBufferProducer11linkToDeathERKNS_2spINS0_20hidl_death_recipientEEEy"
      component_value: 0
    }
    vtable_components {
      kind: FunctionPointer
      mangled_component_name: "_ZN7android8hardware8graphics11bufferqueue4V1_023BsGraphicBufferProducer4pingEv"
      component_value: 0
    }
    vtable_components {
      kind: FunctionPointer
      mangled_component_name: "_ZN7android8hardware8graphics11bufferqueue4V1_023BsGraphicBufferProducer12getDebugInfoENSt3__18functionIFvRKNS_4hidl4base4V1_09DebugInfoEEEE"
      component_value: 0
    }
    vtable_components {
      kind: FunctionPointer
      mangled_component_name: "_ZN7android8hardware8graphics11bufferqueue4V1_023BsGraphicBufferProducer21notifySyspropsChangedEv"
      component_value: 0
    }
    vtable_components {
      kind: FunctionPointer
      mangled_component_name: "_ZN7android8hardware8graphics11bufferqueue4V1_023BsGraphicBufferProducer13unlinkToDeathERKNS_2spINS0_20hidl_death_recipientEEE"
      component_value: 0
    }
    vtable_components {
      kind: CompleteDtorPointer
      mangled_component_name: "_ZN7android8hardware8graphics11bufferqueue4V1_023BsGraphicBufferProducerD1Ev"
      component_value: 0
    }
    vtable_components {
      kind: DeletingDtorPointer
      mangled_component_name: "_ZN7android8hardware8graphics11bufferqueue4V1_023BsGraphicBufferProducerD0Ev"
      component_value: 0
    }
    vtable_components {
      kind: FunctionPointer
      mangled_component_name: "_ZN7android8hardware8graphics11bufferqueue4V1_023BsGraphicBufferProducer13requestBufferEiNSt3__18functionIFviRKNS0_5media4V1_09AnwBufferEEEE"
      component_value: 0
    }
    vtable_components {
      kind: FunctionPointer
      mangled_component_name: "_ZN7android8hardware8graphics11bufferqueue4V1_023BsGraphicBufferProducer25setMaxDequeuedBufferCountEi"
      component_value: 0
    }
    vtable_components {
      kind: FunctionPointer
      mangled_component_name: "_ZN7android8hardware8graphics11bufferqueue4V1_023BsGraphicBufferProducer12setAsyncModeEb"
      component_value: 0
    }
    vtable_components {
      kind: FunctionPointer
      mangled_component_name: "_ZN7android8hardware8graphics11bufferqueue4V1_023BsGraphicBufferProducer13dequeueBufferEjjNS1_6common4V1_011PixelFormatEjbNSt3__18functionIFviiRKNS0_11hidl_handleERKNS3_22IGraphicBufferProducer22FrameEventHistoryDeltaEEEE"
      component_value: 0
    }
    vtable_components {
      kind: FunctionPointer
      mangled_component_name: "_ZN7android8hardware8graphics11bufferqueue4V1_023BsGraphicBufferProducer12detachBufferEi"
      component_value: 0
    }
    vtable_components {
      kind: FunctionPointer
      mangled_component_name: "_ZN7android8hardware8graphics11bufferqueue4V1_023BsGraphicBufferProducer16detachNextBufferENSt3__18functionIFviRKNS0_5media4V1_09AnwBufferERKNS0_11hidl_handleEEEE"
      component_value: 0
    }
    vtable_components {
      kind: FunctionPointer
      mangled_component_name: "_ZN7android8hardware8graphics11bufferqueue4V1_023BsGraphicBufferProducer12attachBufferERKNS0_5media4V1_09AnwBufferENSt3__18functionIFviiEEE"
      component_value: 0
    }
    vtable_components {
      kind: FunctionPointer
      mangled_component_name: "_ZN7android8hardware8graphics11bufferqueue4V1_023BsGraphicBufferProducer11queueBufferEiRKNS3_22IGraphicBufferProducer16QueueBufferInputENSt3__18functionIFviRKNS5_17QueueBufferOutputEEEE"
      component_value: 0
    }
    vtable_components {
      kind: FunctionPointer
      mangled_component_name: "_ZN7android8hardware8graphics11bufferqueue4V1_023BsGraphicBufferProducer12cancelBufferEiRKNS0_11hidl_handleE"
      component_value: 0
    }
    vtable_components {
      kind: FunctionPointer
      mangled_component_name: "_ZN7android8hardware8graphics11bufferqueue4V1_023BsGraphicBufferProducer5queryEiNSt3__18functionIFviiEEE"
      component_value: 0
    }
    vtable_components {
      kind: FunctionPointer
      mangled_component_name: "_ZN7android8hardware8graphics11bufferqueue4V1_023BsGraphicBufferProducer7connectERKNS_2spINS3_17IProducerListenerEEEibNSt3__18functionIFviRKNS3_22IGraphicBufferProducer17QueueBufferOutputEEEE"
      component_value: 0
    }
    vtable_components {
      kind: FunctionPointer
      mangled_component_name: "_ZN7android8hardware8graphics11bufferqueue4V1_023BsGraphicBufferProducer10disconnectEiNS3_22IGraphicBufferProducer14DisconnectModeE"
      component_value: 0
    }
    vtable_components {
      kind: FunctionPointer
      mangled_component_name: "_ZN7android8hardware8graphics11bufferqueue4V1_023BsGraphicBufferProducer17setSidebandStreamERKNS0_11hidl_handleE"
      component_value: 0
    }
    vtable_components {
      kind: FunctionPointer
      mangled_component_name: "_ZN7android8hardware8graphics11bufferqueue4V1_023BsGraphicBufferProducer15allocateBuffersEjjNS1_6common4V1_011PixelFormatEj"
      component_value: 0
    }
    vtable_components {
      kind: FunctionPointer
      mangled_component_name: "_ZN7android8hardware8graphics11bufferqueue4V1_023BsGraphicBufferProducer15allowAllocationEb"
      component_value: 0
    }
    vtable_components {
      kind: FunctionPointer
      mangled_component_name: "_ZN7android8hardware8graphics11bufferqueue4V1_023BsGraphicBufferProducer19setGenerationNumberEj"
      component_value: 0
    }
    vtable_components {
      kind: FunctionPointer
      mangled_component_name: "_ZN7android8hardware8graphics11bufferqueue4V1_023BsGraphicBufferProducer15getConsumerNameENSt3__18functionIFvRKNS0_11hidl_stringEEEE"
      component_value: 0
    }
    vtable_components {
      kind: FunctionPointer
      mangled_component_name: "_ZN7android8hardware8graphics11bufferqueue4V1_023BsGraphicBufferProducer19setSharedBufferModeEb"
      component_value: 0
    }
    vtable_components {
      kind: FunctionPointer
      mangled_component_name: "_ZN7android8hardware8graphics11bufferqueue4V1_023BsGraphicBufferProducer14setAutoRefreshEb"
      component_value: 0
    }
    vtable_components {
      kind: FunctionPointer
      mangled_component_name: "_ZN7android8hardware8graphics11bufferqueue4V1_023BsGraphicBufferProducer17setDequeueTimeoutEx"
      component_value: 0
    }
    vtable_components {
      kind: FunctionPointer
      mangled_component_name: "_ZN7android8hardware8graphics11bufferqueue4V1_023BsGraphicBufferProducer19getLastQueuedBufferENSt3__18functionIFviRKNS0_5media4V1_09AnwBufferERKNS0_11hidl_handleERKNS0_10hidl_arrayIfLj16EJEEEEEE"
      component_value: 0
    }
    vtable_components {
      kind: FunctionPointer
      mangled_component_name: "_ZN7android8hardware8graphics11bufferqueue4V1_023BsGraphicBufferProducer18getFrameTimestampsENSt3__18functionIFvRKNS3_22IGraphicBufferProducer22FrameEventHistoryDeltaEEEE"
      component_value: 0
    }
    vtable_components {
      kind: FunctionPointer
      mangled_component_name: "_ZN7android8hardware8graphics11bufferqueue4V1_023BsGraphicBufferProducer11getUniqueIdENSt3__18functionIFviyEEE"
      component_value: 0
    }
    vtable_components {
      kind: OffsetToTop
      mangled_component_name: ""
      component_value: -4
    }
    vtable_components {
      kind: RTTI
      mangled_component_name: "android::hardware::graphics::bufferqueue::V1_0::BsGraphicBufferProducer"
      component_value: 0
    }
    vtable_components {
      kind: CompleteDtorPointer
      mangled_component_name: "_ZN7android8hardware8graphics11bufferqueue4V1_023BsGraphicBufferProducerD1Ev"
      component_value: 0
    }
    vtable_components {
      kind: DeletingDtorPointer
      mangled_component_name: "_ZN7android8hardware8graphics11bufferqueue4V1_023BsGraphicBufferProducerD0Ev"
      component_value: 0
    }
    vtable_components {
      kind: VCallOffset
      mangled_component_name: ""
      component_value: 0
    }
    vtable_components {
      kind: VCallOffset
      mangled_component_name: ""
      component_value: 0
    }
    vtable_components {
      kind: VCallOffset
      mangled_component_name: ""
      component_value: 0
    }
    vtable_components {
      kind: VCallOffset
      mangled_component_name: ""
      component_value: 0
    }
    vtable_components {
      kind: VCallOffset
      mangled_component_name: ""
      component_value: -60
    }
    vtable_components {
      kind: OffsetToTop
      mangled_component_name: ""
      component_value: -60
    }
    vtable_components {
      kind: RTTI
      mangled_component_name: "android::hardware::graphics::bufferqueue::V1_0::BsGraphicBufferProducer"
      component_value: 0
    }
    vtable_components {
      kind: CompleteDtorPointer
      mangled_component_name: "_ZN7android8hardware8graphics11bufferqueue4V1_023BsGraphicBufferProducerD1Ev"
      component_value: 0
    }
    vtable_components {
      kind: DeletingDtorPointer
      mangled_component_name: "_ZN7android8hardware8graphics11bufferqueue4V1_023BsGraphicBufferProducerD0Ev"
      component_value: 0
    }
    vtable_components {
      kind: FunctionPointer
      mangled_component_name: "_ZN7android7RefBase10onFirstRefEv"
      component_value: 0
    }
    vtable_components {
      kind: FunctionPointer
      mangled_component_name: "_ZN7android7RefBase15onLastStrongRefEPKv"
      component_value: 0
    }
    vtable_components {
      kind: FunctionPointer
      mangled_component_name: "_ZN7android7RefBase20onIncStrongAttemptedEjPKv"
      component_value: 0
    }
    vtable_components {
      kind: FunctionPointer
      mangled_component_name: "_ZN7android7RefBase13onLastWeakRefEPKv"
      component_value: 0
    }
  }
}
functions {
  basic_abi {
    type_abi {
      name: "bool"
      size: 1
      alignment: 1
    }
    name: "android::hardware::graphics::bufferqueue::V1_0::IProducerListener::isRemote"
    access: public_access
    linker_set_key: "_ZNK7android8hardware8graphics11bufferqueue4V1_017IProducerListener8isRemoteEv"
  }
  mangled_function_name: "_ZNK7android8hardware8graphics11bufferqueue4V1_017IProducerListener8isRemoteEv"
  source_file: "/data/aosp/out/soong/.intermediates/hardware/interfaces/graphics/bufferqueue/1.0/android.hardware.graphics.bufferqueue@1.0_genc++_headers/gen/android/hardware/graphics/bufferqueue/1.0/IProducerListener.h"
}
functions {
  basic_abi {
    type_abi {
      name: "android::hardware::Return<void>"
    }
    name: "android::hardware::graphics::bufferqueue::V1_0::IProducerListener::onBufferReleased"
    access: public_access
    linker_set_key: "_ZN7android8hardware8graphics11bufferqueue4V1_017IProducerListener16onBufferReleasedEv"
  }
  mangled_function_name: "_ZN7android8hardware8graphics11bufferqueue4V1_017IProducerListener16onBufferReleasedEv"
  source_file: "/data/aosp/out/soong/.intermediates/hardware/interfaces/graphics/bufferqueue/1.0/android.hardware.graphics.bufferqueue@1.0_genc++_headers/gen/android/hardware/graphics/bufferqueue/1.0/IProducerListener.h"
}
functions {
  basic_abi {
    type_abi {
      name: "android::hardware::Return<bool>"
    }
    name: "android::hardware::graphics::bufferqueue::V1_0::IProducerListener::needsReleaseNotify"
    access: public_access
    linker_set_key: "_ZN7android8hardware8graphics11bufferqueue4V1_017IProducerListener18needsReleaseNotifyEv"
  }
  mangled_function_name: "_ZN7android8hardware8graphics11bufferqueue4V1_017IProducerListener18needsReleaseNotifyEv"
  source_file: "/data/aosp/out/soong/.intermediates/hardware/interfaces/graphics/bufferqueue/1.0/android.hardware.graphics.bufferqueue@1.0_genc++_headers/gen/android/hardware/graphics/bufferqueue/1.0/IProducerListener.h"
}
functions {
  basic_abi {
    type_abi {
      name: "android::hardware::Return<void>"
    }
    name: "android::hardware::graphics::bufferqueue::V1_0::IProducerListener::interfaceChain"
    access: public_access
    linker_set_key: "_ZN7android8hardware8graphics11bufferqueue4V1_017IProducerListener14interfaceChainENSt3__18functionIFvRKNS0_8hidl_vecINS0_11hidl_stringEEEEEE"
  }
  mangled_function_name: "_ZN7android8hardware8graphics11bufferqueue4V1_017IProducerListener14interfaceChainENSt3__18functionIFvRKNS0_8hidl_vecINS0_11hidl_stringEEEEEE"
  source_file: "/data/aosp/out/soong/.intermediates/hardware/interfaces/graphics/bufferqueue/1.0/android.hardware.graphics.bufferqueue@1.0_genc++_headers/gen/android/hardware/graphics/bufferqueue/1.0/IProducerListener.h"
  parameters {
    basic_abi {
      type_abi {
        name: "std::function<void (const hidl_vec<hidl_string> &)>"
      }
      name: "_hidl_cb"
      access: public_access
      linker_set_key: "false"
    }
    default_arg: false
  }
}
functions {
  basic_abi {
    type_abi {
      name: "android::hardware::Return<void>"
    }
    name: "android::hardware::graphics::bufferqueue::V1_0::IProducerListener::debug"
    access: public_access
    linker_set_key: "_ZN7android8hardware8graphics11bufferqueue4V1_017IProducerListener5debugERKNS0_11hidl_handleERKNS0_8hidl_vecINS0_11hidl_stringEEE"
  }
  mangled_function_name: "_ZN7android8hardware8graphics11bufferqueue4V1_017IProducerListener5debugERKNS0_11hidl_handleERKNS0_8hidl_vecINS0_11hidl_stringEEE"
  source_file: "/data/aosp/out/soong/.intermediates/hardware/interfaces/graphics/bufferqueue/1.0/android.hardware.graphics.bufferqueue@1.0_genc++_headers/gen/android/hardware/graphics/bufferqueue/1.0/IProducerListener.h"
  parameters {
    basic_abi {
      type_abi {
        name: "const android::hardware::hidl_handle &"
      }
      name: "fd"
      access: public_access
      linker_set_key: "false"
    }
    default_arg: false
  }
  parameters {
    basic_abi {
      type_abi {
        name: "const android::hardware::hidl_vec<android::hardware::hidl_string> &"
      }
      name: "options"
      access: public_access
      linker_set_key: "false"
    }
    default_arg: false
  }
}
functions {
  basic_abi {
    type_abi {
      name: "android::hardware::Return<void>"
    }
    name: "android::hardware::graphics::bufferqueue::V1_0::IProducerListener::interfaceDescriptor"
    access: public_access
    linker_set_key: "_ZN7android8hardware8graphics11bufferqueue4V1_017IProducerListener19interfaceDescriptorENSt3__18functionIFvRKNS0_11hidl_stringEEEE"
  }
  mangled_function_name: "_ZN7android8hardware8graphics11bufferqueue4V1_017IProducerListener19interfaceDescriptorENSt3__18functionIFvRKNS0_11hidl_stringEEEE"
  source_file: "/data/aosp/out/soong/.intermediates/hardware/interfaces/graphics/bufferqueue/1.0/android.hardware.graphics.bufferqueue@1.0_genc++_headers/gen/android/hardware/graphics/bufferqueue/1.0/IProducerListener.h"
  parameters {
    basic_abi {
      type_abi {
        name: "std::function<void (const hidl_string &)>"
      }
      name: "_hidl_cb"
      access: public_access
      linker_set_key: "false"
    }
    default_arg: false
  }
}
functions {
  basic_abi {
    type_abi {
      name: "android::hardware::Return<void>"
    }
    name: "android::hardware::graphics::bufferqueue::V1_0::IProducerListener::getHashChain"
    access: public_access
    linker_set_key: "_ZN7android8hardware8graphics11bufferqueue4V1_017IProducerListener12getHashChainENSt3__18functionIFvRKNS0_8hidl_vecINS0_10hidl_arrayIhLj32EJEEEEEEEE"
  }
  mangled_function_name: "_ZN7android8hardware8graphics11bufferqueue4V1_017IProducerListener12getHashChainENSt3__18functionIFvRKNS0_8hidl_vecINS0_10hidl_arrayIhLj32EJEEEEEEEE"
  source_file: "/data/aosp/out/soong/.intermediates/hardware/interfaces/graphics/bufferqueue/1.0/android.hardware.graphics.bufferqueue@1.0_genc++_headers/gen/android/hardware/graphics/bufferqueue/1.0/IProducerListener.h"
  parameters {
    basic_abi {
      type_abi {
        name: "std::function<void (const hidl_vec<hidl_array<unsigned char, 32> > &)>"
      }
      name: "_hidl_cb"
      access: public_access
      linker_set_key: "false"
    }
    default_arg: false
  }
}
functions {
  basic_abi {
    type_abi {
      name: "android::hardware::Return<void>"
    }
    name: "android::hardware::graphics::bufferqueue::V1_0::IProducerListener::setHALInstrumentation"
    access: public_access
    linker_set_key: "_ZN7android8hardware8graphics11bufferqueue4V1_017IProducerListener21setHALInstrumentationEv"
  }
  mangled_function_name: "_ZN7android8hardware8graphics11bufferqueue4V1_017IProducerListener21setHALInstrumentationEv"
  source_file: "/data/aosp/out/soong/.intermediates/hardware/interfaces/graphics/bufferqueue/1.0/android.hardware.graphics.bufferqueue@1.0_genc++_headers/gen/android/hardware/graphics/bufferqueue/1.0/IProducerListener.h"
}
functions {
  basic_abi {
    type_abi {
      name: "android::hardware::Return<bool>"
    }
    name: "android::hardware::graphics::bufferqueue::V1_0::IProducerListener::linkToDeath"
    access: public_access
    linker_set_key: "_ZN7android8hardware8graphics11bufferqueue4V1_017IProducerListener11linkToDeathERKNS_2spINS0_20hidl_death_recipientEEEy"
  }
  mangled_function_name: "_ZN7android8hardware8graphics11bufferqueue4V1_017IProducerListener11linkToDeathERKNS_2spINS0_20hidl_death_recipientEEEy"
  source_file: "/data/aosp/out/soong/.intermediates/hardware/interfaces/graphics/bufferqueue/1.0/android.hardware.graphics.bufferqueue@1.0_genc++_headers/gen/android/hardware/graphics/bufferqueue/1.0/IProducerListener.h"
  parameters {
    basic_abi {
      type_abi {
        name: "const android::sp<android::hardware::hidl_death_recipient> &"
      }
      name: "recipient"
      access: public_access
      linker_set_key: "false"
    }
    default_arg: false
  }
  parameters {
    basic_abi {
      type_abi {
        name: "unsigned long long"
        size: 8
        alignment: 8
      }
      name: "cookie"
      access: public_access
      linker_set_key: "false"
    }
    default_arg: false
  }
}
functions {
  basic_abi {
    type_abi {
      name: "android::hardware::Return<void>"
    }
    name: "android::hardware::graphics::bufferqueue::V1_0::IProducerListener::ping"
    access: public_access
    linker_set_key: "_ZN7android8hardware8graphics11bufferqueue4V1_017IProducerListener4pingEv"
  }
  mangled_function_name: "_ZN7android8hardware8graphics11bufferqueue4V1_017IProducerListener4pingEv"
  source_file: "/data/aosp/out/soong/.intermediates/hardware/interfaces/graphics/bufferqueue/1.0/android.hardware.graphics.bufferqueue@1.0_genc++_headers/gen/android/hardware/graphics/bufferqueue/1.0/IProducerListener.h"
}
functions {
  basic_abi {
    type_abi {
      name: "android::hardware::Return<void>"
    }
    name: "android::hardware::graphics::bufferqueue::V1_0::IProducerListener::getDebugInfo"
    access: public_access
    linker_set_key: "_ZN7android8hardware8graphics11bufferqueue4V1_017IProducerListener12getDebugInfoENSt3__18functionIFvRKNS_4hidl4base4V1_09DebugInfoEEEE"
  }
  mangled_function_name: "_ZN7android8hardware8graphics11bufferqueue4V1_017IProducerListener12getDebugInfoENSt3__18functionIFvRKNS_4hidl4base4V1_09DebugInfoEEEE"
  source_file: "/data/aosp/out/soong/.intermediates/hardware/interfaces/graphics/bufferqueue/1.0/android.hardware.graphics.bufferqueue@1.0_genc++_headers/gen/android/hardware/graphics/bufferqueue/1.0/IProducerListener.h"
  parameters {
    basic_abi {
      type_abi {
        name: "std::function<void (const DebugInfo &)>"
      }
      name: "_hidl_cb"
      access: public_access
      linker_set_key: "false"
    }
    default_arg: false
  }
}
functions {
  basic_abi {
    type_abi {
      name: "android::hardware::Return<void>"
    }
    name: "android::hardware::graphics::bufferqueue::V1_0::IProducerListener::notifySyspropsChanged"
    access: public_access
    linker_set_key: "_ZN7android8hardware8graphics11bufferqueue4V1_017IProducerListener21notifySyspropsChangedEv"
  }
  mangled_function_name: "_ZN7android8hardware8graphics11bufferqueue4V1_017IProducerListener21notifySyspropsChangedEv"
  source_file: "/data/aosp/out/soong/.intermediates/hardware/interfaces/graphics/bufferqueue/1.0/android.hardware.graphics.bufferqueue@1.0_genc++_headers/gen/android/hardware/graphics/bufferqueue/1.0/IProducerListener.h"
}
functions {
  basic_abi {
    type_abi {
      name: "android::hardware::Return<bool>"
    }
    name: "android::hardware::graphics::bufferqueue::V1_0::IProducerListener::unlinkToDeath"
    access: public_access
    linker_set_key: "_ZN7android8hardware8graphics11bufferqueue4V1_017IProducerListener13unlinkToDeathERKNS_2spINS0_20hidl_death_recipientEEE"
  }
  mangled_function_name: "_ZN7android8hardware8graphics11bufferqueue4V1_017IProducerListener13unlinkToDeathERKNS_2spINS0_20hidl_death_recipientEEE"
  source_file: "/data/aosp/out/soong/.intermediates/hardware/interfaces/graphics/bufferqueue/1.0/android.hardware.graphics.bufferqueue@1.0_genc++_headers/gen/android/hardware/graphics/bufferqueue/1.0/IProducerListener.h"
  parameters {
    basic_abi {
      type_abi {
        name: "const android::sp<android::hardware::hidl_death_recipient> &"
      }
      name: "recipient"
      access: public_access
      linker_set_key: "false"
    }
    default_arg: false
  }
}
functions {
  basic_abi {
    type_abi {
      name: "android::hardware::Return<android::sp<android::hardware::graphics::bufferqueue::V1_0::IProducerListener> >"
    }
    name: "android::hardware::graphics::bufferqueue::V1_0::IProducerListener::castFrom"
    access: public_access
    linker_set_key: "_ZN7android8hardware8graphics11bufferqueue4V1_017IProducerListener8castFromERKNS_2spIS4_EEb"
  }
  mangled_function_name: "_ZN7android8hardware8graphics11bufferqueue4V1_017IProducerListener8castFromERKNS_2spIS4_EEb"
  source_file: "/data/aosp/out/soong/.intermediates/hardware/interfaces/graphics/bufferqueue/1.0/android.hardware.graphics.bufferqueue@1.0_genc++_headers/gen/android/hardware/graphics/bufferqueue/1.0/IProducerListener.h"
  parameters {
    basic_abi {
      type_abi {
        name: "const android::sp<android::hardware::graphics::bufferqueue::V1_0::IProducerListener> &"
      }
      name: "parent"
      access: public_access
      linker_set_key: "false"
    }
    default_arg: false
  }
  parameters {
    basic_abi {
      type_abi {
        name: "bool"
        size: 1
        alignment: 1
      }
      name: "emitError"
      access: public_access
      linker_set_key: "true"
    }
    default_arg: true
  }
}
functions {
  basic_abi {
    type_abi {
      name: "android::hardware::Return<android::sp<android::hardware::graphics::bufferqueue::V1_0::IProducerListener> >"
    }
    name: "android::hardware::graphics::bufferqueue::V1_0::IProducerListener::castFrom"
    access: public_access
    linker_set_key: "_ZN7android8hardware8graphics11bufferqueue4V1_017IProducerListener8castFromERKNS_2spINS_4hidl4base4V1_05IBaseEEEb"
  }
  mangled_function_name: "_ZN7android8hardware8graphics11bufferqueue4V1_017IProducerListener8castFromERKNS_2spINS_4hidl4base4V1_05IBaseEEEb"
  source_file: "/data/aosp/out/soong/.intermediates/hardware/interfaces/graphics/bufferqueue/1.0/android.hardware.graphics.bufferqueue@1.0_genc++_headers/gen/android/hardware/graphics/bufferqueue/1.0/IProducerListener.h"
  parameters {
    basic_abi {
      type_abi {
        name: "const android::sp<android::hidl::base::V1_0::IBase> &"
      }
      name: "parent"
      access: public_access
      linker_set_key: "false"
    }
    default_arg: false
  }
  parameters {
    basic_abi {
      type_abi {
        name: "bool"
        size: 1
        alignment: 1
      }
      name: "emitError"
      access: public_access
      linker_set_key: "true"
    }
    default_arg: true
  }
}
functions {
  basic_abi {
    type_abi {
      name: "android::sp<android::hardware::graphics::bufferqueue::V1_0::IProducerListener>"
    }
    name: "android::hardware::graphics::bufferqueue::V1_0::IProducerListener::tryGetService"
    access: public_access
    linker_set_key: "_ZN7android8hardware8graphics11bufferqueue4V1_017IProducerListener13tryGetServiceERKNSt3__112basic_stringIcNS5_11char_traitsIcEENS5_9allocatorIcEEEEb"
  }
  mangled_function_name: "_ZN7android8hardware8graphics11bufferqueue4V1_017IProducerListener13tryGetServiceERKNSt3__112basic_stringIcNS5_11char_traitsIcEENS5_9allocatorIcEEEEb"
  source_file: "/data/aosp/out/soong/.intermediates/hardware/interfaces/graphics/bufferqueue/1.0/android.hardware.graphics.bufferqueue@1.0_genc++_headers/gen/android/hardware/graphics/bufferqueue/1.0/IProducerListener.h"
  parameters {
    basic_abi {
      type_abi {
        name: "const std::basic_string<char, std::char_traits<char>, std::allocator<char> > &"
      }
      name: "serviceName"
      access: public_access
      linker_set_key: "true"
    }
    default_arg: true
  }
  parameters {
    basic_abi {
      type_abi {
        name: "bool"
        size: 1
        alignment: 1
      }
      name: "getStub"
      access: public_access
      linker_set_key: "true"
    }
    default_arg: true
  }
}
functions {
  basic_abi {
    type_abi {
      name: "android::sp<android::hardware::graphics::bufferqueue::V1_0::IProducerListener>"
    }
    name: "android::hardware::graphics::bufferqueue::V1_0::IProducerListener::tryGetService"
    access: public_access
    linker_set_key: "_ZN7android8hardware8graphics11bufferqueue4V1_017IProducerListener13tryGetServiceEPKcb"
  }
  mangled_function_name: "_ZN7android8hardware8graphics11bufferqueue4V1_017IProducerListener13tryGetServiceEPKcb"
  source_file: "/data/aosp/out/soong/.intermediates/hardware/interfaces/graphics/bufferqueue/1.0/android.hardware.graphics.bufferqueue@1.0_genc++_headers/gen/android/hardware/graphics/bufferqueue/1.0/IProducerListener.h"
  parameters {
    basic_abi {
      type_abi {
        name: "const char *"
        size: 4
        alignment: 4
      }
      name: "serviceName"
      access: public_access
      linker_set_key: "false"
    }
    default_arg: false
  }
  parameters {
    basic_abi {
      type_abi {
        name: "bool"
        size: 1
        alignment: 1
      }
      name: "getStub"
      access: public_access
      linker_set_key: "true"
    }
    default_arg: true
  }
}
functions {
  basic_abi {
    type_abi {
      name: "android::sp<android::hardware::graphics::bufferqueue::V1_0::IProducerListener>"
    }
    name: "android::hardware::graphics::bufferqueue::V1_0::IProducerListener::tryGetService"
    access: public_access
    linker_set_key: "_ZN7android8hardware8graphics11bufferqueue4V1_017IProducerListener13tryGetServiceERKNS0_11hidl_stringEb"
  }
  mangled_function_name: "_ZN7android8hardware8graphics11bufferqueue4V1_017IProducerListener13tryGetServiceERKNS0_11hidl_stringEb"
  source_file: "/data/aosp/out/soong/.intermediates/hardware/interfaces/graphics/bufferqueue/1.0/android.hardware.graphics.bufferqueue@1.0_genc++_headers/gen/android/hardware/graphics/bufferqueue/1.0/IProducerListener.h"
  parameters {
    basic_abi {
      type_abi {
        name: "const android::hardware::hidl_string &"
      }
      name: "serviceName"
      access: public_access
      linker_set_key: "false"
    }
    default_arg: false
  }
  parameters {
    basic_abi {
      type_abi {
        name: "bool"
        size: 1
        alignment: 1
      }
      name: "getStub"
      access: public_access
      linker_set_key: "true"
    }
    default_arg: true
  }
}
functions {
  basic_abi {
    type_abi {
      name: "android::sp<android::hardware::graphics::bufferqueue::V1_0::IProducerListener>"
    }
    name: "android::hardware::graphics::bufferqueue::V1_0::IProducerListener::tryGetService"
    access: public_access
    linker_set_key: "_ZN7android8hardware8graphics11bufferqueue4V1_017IProducerListener13tryGetServiceEb"
  }
  mangled_function_name: "_ZN7android8hardware8graphics11bufferqueue4V1_017IProducerListener13tryGetServiceEb"
  source_file: "/data/aosp/out/soong/.intermediates/hardware/interfaces/graphics/bufferqueue/1.0/android.hardware.graphics.bufferqueue@1.0_genc++_headers/gen/android/hardware/graphics/bufferqueue/1.0/IProducerListener.h"
  parameters {
    basic_abi {
      type_abi {
        name: "bool"
        size: 1
        alignment: 1
      }
      name: "getStub"
      access: public_access
      linker_set_key: "false"
    }
    default_arg: false
  }
}
functions {
  basic_abi {
    type_abi {
      name: "android::sp<android::hardware::graphics::bufferqueue::V1_0::IProducerListener>"
    }
    name: "android::hardware::graphics::bufferqueue::V1_0::IProducerListener::getService"
    access: public_access
    linker_set_key: "_ZN7android8hardware8graphics11bufferqueue4V1_017IProducerListener10getServiceERKNSt3__112basic_stringIcNS5_11char_traitsIcEENS5_9allocatorIcEEEEb"
  }
  mangled_function_name: "_ZN7android8hardware8graphics11bufferqueue4V1_017IProducerListener10getServiceERKNSt3__112basic_stringIcNS5_11char_traitsIcEENS5_9allocatorIcEEEEb"
  source_file: "/data/aosp/out/soong/.intermediates/hardware/interfaces/graphics/bufferqueue/1.0/android.hardware.graphics.bufferqueue@1.0_genc++_headers/gen/android/hardware/graphics/bufferqueue/1.0/IProducerListener.h"
  parameters {
    basic_abi {
      type_abi {
        name: "const std::basic_string<char, std::char_traits<char>, std::allocator<char> > &"
      }
      name: "serviceName"
      access: public_access
      linker_set_key: "true"
    }
    default_arg: true
  }
  parameters {
    basic_abi {
      type_abi {
        name: "bool"
        size: 1
        alignment: 1
      }
      name: "getStub"
      access: public_access
      linker_set_key: "true"
    }
    default_arg: true
  }
}
functions {
  basic_abi {
    type_abi {
      name: "android::sp<android::hardware::graphics::bufferqueue::V1_0::IProducerListener>"
    }
    name: "android::hardware::graphics::bufferqueue::V1_0::IProducerListener::getService"
    access: public_access
    linker_set_key: "_ZN7android8hardware8graphics11bufferqueue4V1_017IProducerListener10getServiceEPKcb"
  }
  mangled_function_name: "_ZN7android8hardware8graphics11bufferqueue4V1_017IProducerListener10getServiceEPKcb"
  source_file: "/data/aosp/out/soong/.intermediates/hardware/interfaces/graphics/bufferqueue/1.0/android.hardware.graphics.bufferqueue@1.0_genc++_headers/gen/android/hardware/graphics/bufferqueue/1.0/IProducerListener.h"
  parameters {
    basic_abi {
      type_abi {
        name: "const char *"
        size: 4
        alignment: 4
      }
      name: "serviceName"
      access: public_access
      linker_set_key: "false"
    }
    default_arg: false
  }
  parameters {
    basic_abi {
      type_abi {
        name: "bool"
        size: 1
        alignment: 1
      }
      name: "getStub"
      access: public_access
      linker_set_key: "true"
    }
    default_arg: true
  }
}
functions {
  basic_abi {
    type_abi {
      name: "android::sp<android::hardware::graphics::bufferqueue::V1_0::IProducerListener>"
    }
    name: "android::hardware::graphics::bufferqueue::V1_0::IProducerListener::getService"
    access: public_access
    linker_set_key: "_ZN7android8hardware8graphics11bufferqueue4V1_017IProducerListener10getServiceERKNS0_11hidl_stringEb"
  }
  mangled_function_name: "_ZN7android8hardware8graphics11bufferqueue4V1_017IProducerListener10getServiceERKNS0_11hidl_stringEb"
  source_file: "/data/aosp/out/soong/.intermediates/hardware/interfaces/graphics/bufferqueue/1.0/android.hardware.graphics.bufferqueue@1.0_genc++_headers/gen/android/hardware/graphics/bufferqueue/1.0/IProducerListener.h"
  parameters {
    basic_abi {
      type_abi {
        name: "const android::hardware::hidl_string &"
      }
      name: "serviceName"
      access: public_access
      linker_set_key: "false"
    }
    default_arg: false
  }
  parameters {
    basic_abi {
      type_abi {
        name: "bool"
        size: 1
        alignment: 1
      }
      name: "getStub"
      access: public_access
      linker_set_key: "true"
    }
    default_arg: true
  }
}
functions {
  basic_abi {
    type_abi {
      name: "android::sp<android::hardware::graphics::bufferqueue::V1_0::IProducerListener>"
    }
    name: "android::hardware::graphics::bufferqueue::V1_0::IProducerListener::getService"
    access: public_access
    linker_set_key: "_ZN7android8hardware8graphics11bufferqueue4V1_017IProducerListener10getServiceEb"
  }
  mangled_function_name: "_ZN7android8hardware8graphics11bufferqueue4V1_017IProducerListener10getServiceEb"
  source_file: "/data/aosp/out/soong/.intermediates/hardware/interfaces/graphics/bufferqueue/1.0/android.hardware.graphics.bufferqueue@1.0_genc++_headers/gen/android/hardware/graphics/bufferqueue/1.0/IProducerListener.h"
  parameters {
    basic_abi {
      type_abi {
        name: "bool"
        size: 1
        alignment: 1
      }
      name: "getStub"
      access: public_access
      linker_set_key: "false"
    }
    default_arg: false
  }
}
functions {
  basic_abi {
    type_abi {
      name: "int"
      size: 4
      alignment: 4
    }
    name: "android::hardware::graphics::bufferqueue::V1_0::IProducerListener::registerAsService"
    access: public_access
    linker_set_key: "_ZN7android8hardware8graphics11bufferqueue4V1_017IProducerListener17registerAsServiceERKNSt3__112basic_stringIcNS5_11char_traitsIcEENS5_9allocatorIcEEEE"
  }
  mangled_function_name: "_ZN7android8hardware8graphics11bufferqueue4V1_017IProducerListener17registerAsServiceERKNSt3__112basic_stringIcNS5_11char_traitsIcEENS5_9allocatorIcEEEE"
  source_file: "/data/aosp/out/soong/.intermediates/hardware/interfaces/graphics/bufferqueue/1.0/android.hardware.graphics.bufferqueue@1.0_genc++_headers/gen/android/hardware/graphics/bufferqueue/1.0/IProducerListener.h"
  parameters {
    basic_abi {
      type_abi {
        name: "const std::basic_string<char, std::char_traits<char>, std::allocator<char> > &"
      }
      name: "serviceName"
      access: public_access
      linker_set_key: "true"
    }
    default_arg: true
  }
}
functions {
  basic_abi {
    type_abi {
      name: "bool"
      size: 1
      alignment: 1
    }
    name: "android::hardware::graphics::bufferqueue::V1_0::IProducerListener::registerForNotifications"
    access: public_access
    linker_set_key: "_ZN7android8hardware8graphics11bufferqueue4V1_017IProducerListener24registerForNotificationsERKNSt3__112basic_stringIcNS5_11char_traitsIcEENS5_9allocatorIcEEEERKNS_2spINS_4hidl7manager4V1_020IServiceNotificationEEE"
  }
  mangled_function_name: "_ZN7android8hardware8graphics11bufferqueue4V1_017IProducerListener24registerForNotificationsERKNSt3__112basic_stringIcNS5_11char_traitsIcEENS5_9allocatorIcEEEERKNS_2spINS_4hidl7manager4V1_020IServiceNotificationEEE"
  source_file: "/data/aosp/out/soong/.intermediates/hardware/interfaces/graphics/bufferqueue/1.0/android.hardware.graphics.bufferqueue@1.0_genc++_headers/gen/android/hardware/graphics/bufferqueue/1.0/IProducerListener.h"
  parameters {
    basic_abi {
      type_abi {
        name: "const std::basic_string<char, std::char_traits<char>, std::allocator<char> > &"
      }
      name: "serviceName"
      access: public_access
      linker_set_key: "false"
    }
    default_arg: false
  }
  parameters {
    basic_abi {
      type_abi {
        name: "const android::sp<android::hidl::manager::V1_0::IServiceNotification> &"
      }
      name: "notification"
      access: public_access
      linker_set_key: "false"
    }
    default_arg: false
  }
}
functions {
  basic_abi {
    type_abi {
      name: "std::basic_string<char, std::char_traits<char>, std::allocator<char> >"
    }
    name: "android::hardware::graphics::bufferqueue::V1_0::toString"
    access: public_access
    linker_set_key: "_ZN7android8hardware8graphics11bufferqueue4V1_08toStringERKNS_2spINS3_17IProducerListenerEEE"
  }
  mangled_function_name: "_ZN7android8hardware8graphics11bufferqueue4V1_08toStringERKNS_2spINS3_17IProducerListenerEEE"
  source_file: "/data/aosp/out/soong/.intermediates/hardware/interfaces/graphics/bufferqueue/1.0/android.hardware.graphics.bufferqueue@1.0_genc++_headers/gen/android/hardware/graphics/bufferqueue/1.0/IProducerListener.h"
  parameters {
    basic_abi {
      type_abi {
        name: "const android::sp<android::hardware::graphics::bufferqueue::V1_0::IProducerListener> &"
      }
      name: ""
      access: public_access
      linker_set_key: "false"
    }
    default_arg: false
  }
}
functions {
  basic_abi {
    type_abi {
      name: "bool"
      size: 1
      alignment: 1
    }
    name: "android::hardware::graphics::bufferqueue::V1_0::IGraphicBufferProducer::isRemote"
    access: public_access
    linker_set_key: "_ZNK7android8hardware8graphics11bufferqueue4V1_022IGraphicBufferProducer8isRemoteEv"
  }
  mangled_function_name: "_ZNK7android8hardware8graphics11bufferqueue4V1_022IGraphicBufferProducer8isRemoteEv"
  source_file: "/data/aosp/out/soong/.intermediates/hardware/interfaces/graphics/bufferqueue/1.0/android.hardware.graphics.bufferqueue@1.0_genc++_headers/gen/android/hardware/graphics/bufferqueue/1.0/IGraphicBufferProducer.h"
}
functions {
  basic_abi {
    type_abi {
      name: "android::hardware::Return<void>"
    }
    name: "android::hardware::graphics::bufferqueue::V1_0::IGraphicBufferProducer::requestBuffer"
    access: public_access
    linker_set_key: "_ZN7android8hardware8graphics11bufferqueue4V1_022IGraphicBufferProducer13requestBufferEiNSt3__18functionIFviRKNS0_5media4V1_09AnwBufferEEEE"
  }
  mangled_function_name: "_ZN7android8hardware8graphics11bufferqueue4V1_022IGraphicBufferProducer13requestBufferEiNSt3__18functionIFviRKNS0_5media4V1_09AnwBufferEEEE"
  source_file: "/data/aosp/out/soong/.intermediates/hardware/interfaces/graphics/bufferqueue/1.0/android.hardware.graphics.bufferqueue@1.0_genc++_headers/gen/android/hardware/graphics/bufferqueue/1.0/IGraphicBufferProducer.h"
  parameters {
    basic_abi {
      type_abi {
        name: "int"
        size: 4
        alignment: 4
      }
      name: "slot"
      access: public_access
      linker_set_key: "false"
    }
    default_arg: false
  }
  parameters {
    basic_abi {
      type_abi {
        name: "std::function<void (int, const AnwBuffer &)>"
      }
      name: "_hidl_cb"
      access: public_access
      linker_set_key: "false"
    }
    default_arg: false
  }
}
functions {
  basic_abi {
    type_abi {
      name: "android::hardware::Return<int>"
    }
    name: "android::hardware::graphics::bufferqueue::V1_0::IGraphicBufferProducer::setMaxDequeuedBufferCount"
    access: public_access
    linker_set_key: "_ZN7android8hardware8graphics11bufferqueue4V1_022IGraphicBufferProducer25setMaxDequeuedBufferCountEi"
  }
  mangled_function_name: "_ZN7android8hardware8graphics11bufferqueue4V1_022IGraphicBufferProducer25setMaxDequeuedBufferCountEi"
  source_file: "/data/aosp/out/soong/.intermediates/hardware/interfaces/graphics/bufferqueue/1.0/android.hardware.graphics.bufferqueue@1.0_genc++_headers/gen/android/hardware/graphics/bufferqueue/1.0/IGraphicBufferProducer.h"
  parameters {
    basic_abi {
      type_abi {
        name: "int"
        size: 4
        alignment: 4
      }
      name: "maxDequeuedBuffers"
      access: public_access
      linker_set_key: "false"
    }
    default_arg: false
  }
}
functions {
  basic_abi {
    type_abi {
      name: "android::hardware::Return<int>"
    }
    name: "android::hardware::graphics::bufferqueue::V1_0::IGraphicBufferProducer::setAsyncMode"
    access: public_access
    linker_set_key: "_ZN7android8hardware8graphics11bufferqueue4V1_022IGraphicBufferProducer12setAsyncModeEb"
  }
  mangled_function_name: "_ZN7android8hardware8graphics11bufferqueue4V1_022IGraphicBufferProducer12setAsyncModeEb"
  source_file: "/data/aosp/out/soong/.intermediates/hardware/interfaces/graphics/bufferqueue/1.0/android.hardware.graphics.bufferqueue@1.0_genc++_headers/gen/android/hardware/graphics/bufferqueue/1.0/IGraphicBufferProducer.h"
  parameters {
    basic_abi {
      type_abi {
        name: "bool"
        size: 1
        alignment: 1
      }
      name: "async"
      access: public_access
      linker_set_key: "false"
    }
    default_arg: false
  }
}
functions {
  basic_abi {
    type_abi {
      name: "android::hardware::Return<void>"
    }
    name: "android::hardware::graphics::bufferqueue::V1_0::IGraphicBufferProducer::dequeueBuffer"
    access: public_access
    linker_set_key: "_ZN7android8hardware8graphics11bufferqueue4V1_022IGraphicBufferProducer13dequeueBufferEjjNS1_6common4V1_011PixelFormatEjbNSt3__18functionIFviiRKNS0_11hidl_handleERKNS4_22FrameEventHistoryDeltaEEEE"
  }
  mangled_function_name: "_ZN7android8hardware8graphics11bufferqueue4V1_022IGraphicBufferProducer13dequeueBufferEjjNS1_6common4V1_011PixelFormatEjbNSt3__18functionIFviiRKNS0_11hidl_handleERKNS4_22FrameEventHistoryDeltaEEEE"
  source_file: "/data/aosp/out/soong/.intermediates/hardware/interfaces/graphics/bufferqueue/1.0/android.hardware.graphics.bufferqueue@1.0_genc++_headers/gen/android/hardware/graphics/bufferqueue/1.0/IGraphicBufferProducer.h"
  parameters {
    basic_abi {
      type_abi {
        name: "unsigned int"
        size: 4
        alignment: 4
      }
      name: "width"
      access: public_access
      linker_set_key: "false"
    }
    default_arg: false
  }
  parameters {
    basic_abi {
      type_abi {
        name: "unsigned int"
        size: 4
        alignment: 4
      }
      name: "height"
      access: public_access
      linker_set_key: "false"
    }
    default_arg: false
  }
  parameters {
    basic_abi {
      type_abi {
        name: "android::hardware::graphics::common::V1_0::PixelFormat"
      }
      name: "format"
      access: public_access
      linker_set_key: "false"
    }
    default_arg: false
  }
  parameters {
    basic_abi {
      type_abi {
        name: "unsigned int"
        size: 4
        alignment: 4
      }
      name: "usage"
      access: public_access
      linker_set_key: "false"
    }
    default_arg: false
  }
  parameters {
    basic_abi {
      type_abi {
        name: "bool"
        size: 1
        alignment: 1
      }
      name: "getFrameTimestamps"
      access: public_access
      linker_set_key: "false"
    }
    default_arg: false
  }
  parameters {
    basic_abi {
      type_abi {
        name: "std::function<void (int, int, const hidl_handle &, const FrameEventHistoryDelta &)>"
      }
      name: "_hidl_cb"
      access: public_access
      linker_set_key: "false"
    }
    default_arg: false
  }
}
functions {
  basic_abi {
    type_abi {
      name: "android::hardware::Return<int>"
    }
    name: "android::hardware::graphics::bufferqueue::V1_0::IGraphicBufferProducer::detachBuffer"
    access: public_access
    linker_set_key: "_ZN7android8hardware8graphics11bufferqueue4V1_022IGraphicBufferProducer12detachBufferEi"
  }
  mangled_function_name: "_ZN7android8hardware8graphics11bufferqueue4V1_022IGraphicBufferProducer12detachBufferEi"
  source_file: "/data/aosp/out/soong/.intermediates/hardware/interfaces/graphics/bufferqueue/1.0/android.hardware.graphics.bufferqueue@1.0_genc++_headers/gen/android/hardware/graphics/bufferqueue/1.0/IGraphicBufferProducer.h"
  parameters {
    basic_abi {
      type_abi {
        name: "int"
        size: 4
        alignment: 4
      }
      name: "slot"
      access: public_access
      linker_set_key: "false"
    }
    default_arg: false
  }
}
functions {
  basic_abi {
    type_abi {
      name: "android::hardware::Return<void>"
    }
    name: "android::hardware::graphics::bufferqueue::V1_0::IGraphicBufferProducer::detachNextBuffer"
    access: public_access
    linker_set_key: "_ZN7android8hardware8graphics11bufferqueue4V1_022IGraphicBufferProducer16detachNextBufferENSt3__18functionIFviRKNS0_5media4V1_09AnwBufferERKNS0_11hidl_handleEEEE"
  }
  mangled_function_name: "_ZN7android8hardware8graphics11bufferqueue4V1_022IGraphicBufferProducer16detachNextBufferENSt3__18functionIFviRKNS0_5media4V1_09AnwBufferERKNS0_11hidl_handleEEEE"
  source_file: "/data/aosp/out/soong/.intermediates/hardware/interfaces/graphics/bufferqueue/1.0/android.hardware.graphics.bufferqueue@1.0_genc++_headers/gen/android/hardware/graphics/bufferqueue/1.0/IGraphicBufferProducer.h"
  parameters {
    basic_abi {
      type_abi {
        name: "std::function<void (int, const AnwBuffer &, const hidl_handle &)>"
      }
      name: "_hidl_cb"
      access: public_access
      linker_set_key: "false"
    }
    default_arg: false
  }
}
functions {
  basic_abi {
    type_abi {
      name: "android::hardware::Return<void>"
    }
    name: "android::hardware::graphics::bufferqueue::V1_0::IGraphicBufferProducer::attachBuffer"
    access: public_access
    linker_set_key: "_ZN7android8hardware8graphics11bufferqueue4V1_022IGraphicBufferProducer12attachBufferERKNS0_5media4V1_09AnwBufferENSt3__18functionIFviiEEE"
  }
  mangled_function_name: "_ZN7android8hardware8graphics11bufferqueue4V1_022IGraphicBufferProducer12attachBufferERKNS0_5media4V1_09AnwBufferENSt3__18functionIFviiEEE"
  source_file: "/data/aosp/out/soong/.intermediates/hardware/interfaces/graphics/bufferqueue/1.0/android.hardware.graphics.bufferqueue@1.0_genc++_headers/gen/android/hardware/graphics/bufferqueue/1.0/IGraphicBufferProducer.h"
  parameters {
    basic_abi {
      type_abi {
        name: "const android::hardware::media::V1_0::AnwBuffer &"
      }
      name: "buffer"
      access: public_access
      linker_set_key: "false"
    }
    default_arg: false
  }
  parameters {
    basic_abi {
      type_abi {
        name: "std::function<void (int, int)>"
      }
      name: "_hidl_cb"
      access: public_access
      linker_set_key: "false"
    }
    default_arg: false
  }
}
functions {
  basic_abi {
    type_abi {
      name: "android::hardware::Return<void>"
    }
    name: "android::hardware::graphics::bufferqueue::V1_0::IGraphicBufferProducer::queueBuffer"
    access: public_access
    linker_set_key: "_ZN7android8hardware8graphics11bufferqueue4V1_022IGraphicBufferProducer11queueBufferEiRKNS4_16QueueBufferInputENSt3__18functionIFviRKNS4_17QueueBufferOutputEEEE"
  }
  mangled_function_name: "_ZN7android8hardware8graphics11bufferqueue4V1_022IGraphicBufferProducer11queueBufferEiRKNS4_16QueueBufferInputENSt3__18functionIFviRKNS4_17QueueBufferOutputEEEE"
  source_file: "/data/aosp/out/soong/.intermediates/hardware/interfaces/graphics/bufferqueue/1.0/android.hardware.graphics.bufferqueue@1.0_genc++_headers/gen/android/hardware/graphics/bufferqueue/1.0/IGraphicBufferProducer.h"
  parameters {
    basic_abi {
      type_abi {
        name: "int"
        size: 4
        alignment: 4
      }
      name: "slot"
      access: public_access
      linker_set_key: "false"
    }
    default_arg: false
  }
  parameters {
    basic_abi {
      type_abi {
        name: "const android::hardware::graphics::bufferqueue::V1_0::IGraphicBufferProducer::QueueBufferInput &"
      }
      name: "input"
      access: public_access
      linker_set_key: "false"
    }
    default_arg: false
  }
  parameters {
    basic_abi {
      type_abi {
        name: "std::function<void (int, const QueueBufferOutput &)>"
      }
      name: "_hidl_cb"
      access: public_access
      linker_set_key: "false"
    }
    default_arg: false
  }
}
functions {
  basic_abi {
    type_abi {
      name: "android::hardware::Return<int>"
    }
    name: "android::hardware::graphics::bufferqueue::V1_0::IGraphicBufferProducer::cancelBuffer"
    access: public_access
    linker_set_key: "_ZN7android8hardware8graphics11bufferqueue4V1_022IGraphicBufferProducer12cancelBufferEiRKNS0_11hidl_handleE"
  }
  mangled_function_name: "_ZN7android8hardware8graphics11bufferqueue4V1_022IGraphicBufferProducer12cancelBufferEiRKNS0_11hidl_handleE"
  source_file: "/data/aosp/out/soong/.intermediates/hardware/interfaces/graphics/bufferqueue/1.0/android.hardware.graphics.bufferqueue@1.0_genc++_headers/gen/android/hardware/graphics/bufferqueue/1.0/IGraphicBufferProducer.h"
  parameters {
    basic_abi {
      type_abi {
        name: "int"
        size: 4
        alignment: 4
      }
      name: "slot"
      access: public_access
      linker_set_key: "false"
    }
    default_arg: false
  }
  parameters {
    basic_abi {
      type_abi {
        name: "const android::hardware::hidl_handle &"
      }
      name: "fence"
      access: public_access
      linker_set_key: "false"
    }
    default_arg: false
  }
}
functions {
  basic_abi {
    type_abi {
      name: "android::hardware::Return<void>"
    }
    name: "android::hardware::graphics::bufferqueue::V1_0::IGraphicBufferProducer::query"
    access: public_access
    linker_set_key: "_ZN7android8hardware8graphics11bufferqueue4V1_022IGraphicBufferProducer5queryEiNSt3__18functionIFviiEEE"
  }
  mangled_function_name: "_ZN7android8hardware8graphics11bufferqueue4V1_022IGraphicBufferProducer5queryEiNSt3__18functionIFviiEEE"
  source_file: "/data/aosp/out/soong/.intermediates/hardware/interfaces/graphics/bufferqueue/1.0/android.hardware.graphics.bufferqueue@1.0_genc++_headers/gen/android/hardware/graphics/bufferqueue/1.0/IGraphicBufferProducer.h"
  parameters {
    basic_abi {
      type_abi {
        name: "int"
        size: 4
        alignment: 4
      }
      name: "what"
      access: public_access
      linker_set_key: "false"
    }
    default_arg: false
  }
  parameters {
    basic_abi {
      type_abi {
        name: "std::function<void (int, int)>"
      }
      name: "_hidl_cb"
      access: public_access
      linker_set_key: "false"
    }
    default_arg: false
  }
}
functions {
  basic_abi {
    type_abi {
      name: "android::hardware::Return<void>"
    }
    name: "android::hardware::graphics::bufferqueue::V1_0::IGraphicBufferProducer::connect"
    access: public_access
    linker_set_key: "_ZN7android8hardware8graphics11bufferqueue4V1_022IGraphicBufferProducer7connectERKNS_2spINS3_17IProducerListenerEEEibNSt3__18functionIFviRKNS4_17QueueBufferOutputEEEE"
  }
  mangled_function_name: "_ZN7android8hardware8graphics11bufferqueue4V1_022IGraphicBufferProducer7connectERKNS_2spINS3_17IProducerListenerEEEibNSt3__18functionIFviRKNS4_17QueueBufferOutputEEEE"
  source_file: "/data/aosp/out/soong/.intermediates/hardware/interfaces/graphics/bufferqueue/1.0/android.hardware.graphics.bufferqueue@1.0_genc++_headers/gen/android/hardware/graphics/bufferqueue/1.0/IGraphicBufferProducer.h"
  parameters {
    basic_abi {
      type_abi {
        name: "const android::sp<android::hardware::graphics::bufferqueue::V1_0::IProducerListener> &"
      }
      name: "listener"
      access: public_access
      linker_set_key: "false"
    }
    default_arg: false
  }
  parameters {
    basic_abi {
      type_abi {
        name: "int"
        size: 4
        alignment: 4
      }
      name: "api"
      access: public_access
      linker_set_key: "false"
    }
    default_arg: false
  }
  parameters {
    basic_abi {
      type_abi {
        name: "bool"
        size: 1
        alignment: 1
      }
      name: "producerControlledByApp"
      access: public_access
      linker_set_key: "false"
    }
    default_arg: false
  }
  parameters {
    basic_abi {
      type_abi {
        name: "std::function<void (int, const QueueBufferOutput &)>"
      }
      name: "_hidl_cb"
      access: public_access
      linker_set_key: "false"
    }
    default_arg: false
  }
}
functions {
  basic_abi {
    type_abi {
      name: "android::hardware::Return<int>"
    }
    name: "android::hardware::graphics::bufferqueue::V1_0::IGraphicBufferProducer::disconnect"
    access: public_access
    linker_set_key: "_ZN7android8hardware8graphics11bufferqueue4V1_022IGraphicBufferProducer10disconnectEiNS4_14DisconnectModeE"
  }
  mangled_function_name: "_ZN7android8hardware8graphics11bufferqueue4V1_022IGraphicBufferProducer10disconnectEiNS4_14DisconnectModeE"
  source_file: "/data/aosp/out/soong/.intermediates/hardware/interfaces/graphics/bufferqueue/1.0/android.hardware.graphics.bufferqueue@1.0_genc++_headers/gen/android/hardware/graphics/bufferqueue/1.0/IGraphicBufferProducer.h"
  parameters {
    basic_abi {
      type_abi {
        name: "int"
        size: 4
        alignment: 4
      }
      name: "api"
      access: public_access
      linker_set_key: "false"
    }
    default_arg: false
  }
  parameters {
    basic_abi {
      type_abi {
        name: "android::hardware::graphics::bufferqueue::V1_0::IGraphicBufferProducer::DisconnectMode"
      }
      name: "mode"
      access: public_access
      linker_set_key: "false"
    }
    default_arg: false
  }
}
functions {
  basic_abi {
    type_abi {
      name: "android::hardware::Return<int>"
    }
    name: "android::hardware::graphics::bufferqueue::V1_0::IGraphicBufferProducer::setSidebandStream"
    access: public_access
    linker_set_key: "_ZN7android8hardware8graphics11bufferqueue4V1_022IGraphicBufferProducer17setSidebandStreamERKNS0_11hidl_handleE"
  }
  mangled_function_name: "_ZN7android8hardware8graphics11bufferqueue4V1_022IGraphicBufferProducer17setSidebandStreamERKNS0_11hidl_handleE"
  source_file: "/data/aosp/out/soong/.intermediates/hardware/interfaces/graphics/bufferqueue/1.0/android.hardware.graphics.bufferqueue@1.0_genc++_headers/gen/android/hardware/graphics/bufferqueue/1.0/IGraphicBufferProducer.h"
  parameters {
    basic_abi {
      type_abi {
        name: "const android::hardware::hidl_handle &"
      }
      name: "stream"
      access: public_access
      linker_set_key: "false"
    }
    default_arg: false
  }
}
functions {
  basic_abi {
    type_abi {
      name: "android::hardware::Return<void>"
    }
    name: "android::hardware::graphics::bufferqueue::V1_0::IGraphicBufferProducer::allocateBuffers"
    access: public_access
    linker_set_key: "_ZN7android8hardware8graphics11bufferqueue4V1_022IGraphicBufferProducer15allocateBuffersEjjNS1_6common4V1_011PixelFormatEj"
  }
  mangled_function_name: "_ZN7android8hardware8graphics11bufferqueue4V1_022IGraphicBufferProducer15allocateBuffersEjjNS1_6common4V1_011PixelFormatEj"
  source_file: "/data/aosp/out/soong/.intermediates/hardware/interfaces/graphics/bufferqueue/1.0/android.hardware.graphics.bufferqueue@1.0_genc++_headers/gen/android/hardware/graphics/bufferqueue/1.0/IGraphicBufferProducer.h"
  parameters {
    basic_abi {
      type_abi {
        name: "unsigned int"
        size: 4
        alignment: 4
      }
      name: "width"
      access: public_access
      linker_set_key: "false"
    }
    default_arg: false
  }
  parameters {
    basic_abi {
      type_abi {
        name: "unsigned int"
        size: 4
        alignment: 4
      }
      name: "height"
      access: public_access
      linker_set_key: "false"
    }
    default_arg: false
  }
  parameters {
    basic_abi {
      type_abi {
        name: "android::hardware::graphics::common::V1_0::PixelFormat"
      }
      name: "format"
      access: public_access
      linker_set_key: "false"
    }
    default_arg: false
  }
  parameters {
    basic_abi {
      type_abi {
        name: "unsigned int"
        size: 4
        alignment: 4
      }
      name: "usage"
      access: public_access
      linker_set_key: "false"
    }
    default_arg: false
  }
}
functions {
  basic_abi {
    type_abi {
      name: "android::hardware::Return<int>"
    }
    name: "android::hardware::graphics::bufferqueue::V1_0::IGraphicBufferProducer::allowAllocation"
    access: public_access
    linker_set_key: "_ZN7android8hardware8graphics11bufferqueue4V1_022IGraphicBufferProducer15allowAllocationEb"
  }
  mangled_function_name: "_ZN7android8hardware8graphics11bufferqueue4V1_022IGraphicBufferProducer15allowAllocationEb"
  source_file: "/data/aosp/out/soong/.intermediates/hardware/interfaces/graphics/bufferqueue/1.0/android.hardware.graphics.bufferqueue@1.0_genc++_headers/gen/android/hardware/graphics/bufferqueue/1.0/IGraphicBufferProducer.h"
  parameters {
    basic_abi {
      type_abi {
        name: "bool"
        size: 1
        alignment: 1
      }
      name: "allow"
      access: public_access
      linker_set_key: "false"
    }
    default_arg: false
  }
}
functions {
  basic_abi {
    type_abi {
      name: "android::hardware::Return<int>"
    }
    name: "android::hardware::graphics::bufferqueue::V1_0::IGraphicBufferProducer::setGenerationNumber"
    access: public_access
    linker_set_key: "_ZN7android8hardware8graphics11bufferqueue4V1_022IGraphicBufferProducer19setGenerationNumberEj"
  }
  mangled_function_name: "_ZN7android8hardware8graphics11bufferqueue4V1_022IGraphicBufferProducer19setGenerationNumberEj"
  source_file: "/data/aosp/out/soong/.intermediates/hardware/interfaces/graphics/bufferqueue/1.0/android.hardware.graphics.bufferqueue@1.0_genc++_headers/gen/android/hardware/graphics/bufferqueue/1.0/IGraphicBufferProducer.h"
  parameters {
    basic_abi {
      type_abi {
        name: "unsigned int"
        size: 4
        alignment: 4
      }
      name: "generationNumber"
      access: public_access
      linker_set_key: "false"
    }
    default_arg: false
  }
}
functions {
  basic_abi {
    type_abi {
      name: "android::hardware::Return<void>"
    }
    name: "android::hardware::graphics::bufferqueue::V1_0::IGraphicBufferProducer::getConsumerName"
    access: public_access
    linker_set_key: "_ZN7android8hardware8graphics11bufferqueue4V1_022IGraphicBufferProducer15getConsumerNameENSt3__18functionIFvRKNS0_11hidl_stringEEEE"
  }
  mangled_function_name: "_ZN7android8hardware8graphics11bufferqueue4V1_022IGraphicBufferProducer15getConsumerNameENSt3__18functionIFvRKNS0_11hidl_stringEEEE"
  source_file: "/data/aosp/out/soong/.intermediates/hardware/interfaces/graphics/bufferqueue/1.0/android.hardware.graphics.bufferqueue@1.0_genc++_headers/gen/android/hardware/graphics/bufferqueue/1.0/IGraphicBufferProducer.h"
  parameters {
    basic_abi {
      type_abi {
        name: "std::function<void (const hidl_string &)>"
      }
      name: "_hidl_cb"
      access: public_access
      linker_set_key: "false"
    }
    default_arg: false
  }
}
functions {
  basic_abi {
    type_abi {
      name: "android::hardware::Return<int>"
    }
    name: "android::hardware::graphics::bufferqueue::V1_0::IGraphicBufferProducer::setSharedBufferMode"
    access: public_access
    linker_set_key: "_ZN7android8hardware8graphics11bufferqueue4V1_022IGraphicBufferProducer19setSharedBufferModeEb"
  }
  mangled_function_name: "_ZN7android8hardware8graphics11bufferqueue4V1_022IGraphicBufferProducer19setSharedBufferModeEb"
  source_file: "/data/aosp/out/soong/.intermediates/hardware/interfaces/graphics/bufferqueue/1.0/android.hardware.graphics.bufferqueue@1.0_genc++_headers/gen/android/hardware/graphics/bufferqueue/1.0/IGraphicBufferProducer.h"
  parameters {
    basic_abi {
      type_abi {
        name: "bool"
        size: 1
        alignment: 1
      }
      name: "sharedBufferMode"
      access: public_access
      linker_set_key: "false"
    }
    default_arg: false
  }
}
functions {
  basic_abi {
    type_abi {
      name: "android::hardware::Return<int>"
    }
    name: "android::hardware::graphics::bufferqueue::V1_0::IGraphicBufferProducer::setAutoRefresh"
    access: public_access
    linker_set_key: "_ZN7android8hardware8graphics11bufferqueue4V1_022IGraphicBufferProducer14setAutoRefreshEb"
  }
  mangled_function_name: "_ZN7android8hardware8graphics11bufferqueue4V1_022IGraphicBufferProducer14setAutoRefreshEb"
  source_file: "/data/aosp/out/soong/.intermediates/hardware/interfaces/graphics/bufferqueue/1.0/android.hardware.graphics.bufferqueue@1.0_genc++_headers/gen/android/hardware/graphics/bufferqueue/1.0/IGraphicBufferProducer.h"
  parameters {
    basic_abi {
      type_abi {
        name: "bool"
        size: 1
        alignment: 1
      }
      name: "autoRefresh"
      access: public_access
      linker_set_key: "false"
    }
    default_arg: false
  }
}
functions {
  basic_abi {
    type_abi {
      name: "android::hardware::Return<int>"
    }
    name: "android::hardware::graphics::bufferqueue::V1_0::IGraphicBufferProducer::setDequeueTimeout"
    access: public_access
    linker_set_key: "_ZN7android8hardware8graphics11bufferqueue4V1_022IGraphicBufferProducer17setDequeueTimeoutEx"
  }
  mangled_function_name: "_ZN7android8hardware8graphics11bufferqueue4V1_022IGraphicBufferProducer17setDequeueTimeoutEx"
  source_file: "/data/aosp/out/soong/.intermediates/hardware/interfaces/graphics/bufferqueue/1.0/android.hardware.graphics.bufferqueue@1.0_genc++_headers/gen/android/hardware/graphics/bufferqueue/1.0/IGraphicBufferProducer.h"
  parameters {
    basic_abi {
      type_abi {
        name: "long long"
        size: 8
        alignment: 8
      }
      name: "timeoutNs"
      access: public_access
      linker_set_key: "false"
    }
    default_arg: false
  }
}
functions {
  basic_abi {
    type_abi {
      name: "android::hardware::Return<void>"
    }
    name: "android::hardware::graphics::bufferqueue::V1_0::IGraphicBufferProducer::getLastQueuedBuffer"
    access: public_access
    linker_set_key: "_ZN7android8hardware8graphics11bufferqueue4V1_022IGraphicBufferProducer19getLastQueuedBufferENSt3__18functionIFviRKNS0_5media4V1_09AnwBufferERKNS0_11hidl_handleERKNS0_10hidl_arrayIfLj16EJEEEEEE"
  }
  mangled_function_name: "_ZN7android8hardware8graphics11bufferqueue4V1_022IGraphicBufferProducer19getLastQueuedBufferENSt3__18functionIFviRKNS0_5media4V1_09AnwBufferERKNS0_11hidl_handleERKNS0_10hidl_arrayIfLj16EJEEEEEE"
  source_file: "/data/aosp/out/soong/.intermediates/hardware/interfaces/graphics/bufferqueue/1.0/android.hardware.graphics.bufferqueue@1.0_genc++_headers/gen/android/hardware/graphics/bufferqueue/1.0/IGraphicBufferProducer.h"
  parameters {
    basic_abi {
      type_abi {
        name: "std::function<void (int, const AnwBuffer &, const hidl_handle &, const hidl_array<float, 16> &)>"
      }
      name: "_hidl_cb"
      access: public_access
      linker_set_key: "false"
    }
    default_arg: false
  }
}
functions {
  basic_abi {
    type_abi {
      name: "android::hardware::Return<void>"
    }
    name: "android::hardware::graphics::bufferqueue::V1_0::IGraphicBufferProducer::getFrameTimestamps"
    access: public_access
    linker_set_key: "_ZN7android8hardware8graphics11bufferqueue4V1_022IGraphicBufferProducer18getFrameTimestampsENSt3__18functionIFvRKNS4_22FrameEventHistoryDeltaEEEE"
  }
  mangled_function_name: "_ZN7android8hardware8graphics11bufferqueue4V1_022IGraphicBufferProducer18getFrameTimestampsENSt3__18functionIFvRKNS4_22FrameEventHistoryDeltaEEEE"
  source_file: "/data/aosp/out/soong/.intermediates/hardware/interfaces/graphics/bufferqueue/1.0/android.hardware.graphics.bufferqueue@1.0_genc++_headers/gen/android/hardware/graphics/bufferqueue/1.0/IGraphicBufferProducer.h"
  parameters {
    basic_abi {
      type_abi {
        name: "std::function<void (const FrameEventHistoryDelta &)>"
      }
      name: "_hidl_cb"
      access: public_access
      linker_set_key: "false"
    }
    default_arg: false
  }
}
functions {
  basic_abi {
    type_abi {
      name: "android::hardware::Return<void>"
    }
    name: "android::hardware::graphics::bufferqueue::V1_0::IGraphicBufferProducer::getUniqueId"
    access: public_access
    linker_set_key: "_ZN7android8hardware8graphics11bufferqueue4V1_022IGraphicBufferProducer11getUniqueIdENSt3__18functionIFviyEEE"
  }
  mangled_function_name: "_ZN7android8hardware8graphics11bufferqueue4V1_022IGraphicBufferProducer11getUniqueIdENSt3__18functionIFviyEEE"
  source_file: "/data/aosp/out/soong/.intermediates/hardware/interfaces/graphics/bufferqueue/1.0/android.hardware.graphics.bufferqueue@1.0_genc++_headers/gen/android/hardware/graphics/bufferqueue/1.0/IGraphicBufferProducer.h"
  parameters {
    basic_abi {
      type_abi {
        name: "std::function<void (int, unsigned long long)>"
      }
      name: "_hidl_cb"
      access: public_access
      linker_set_key: "false"
    }
    default_arg: false
  }
}
functions {
  basic_abi {
    type_abi {
      name: "android::hardware::Return<void>"
    }
    name: "android::hardware::graphics::bufferqueue::V1_0::IGraphicBufferProducer::interfaceChain"
    access: public_access
    linker_set_key: "_ZN7android8hardware8graphics11bufferqueue4V1_022IGraphicBufferProducer14interfaceChainENSt3__18functionIFvRKNS0_8hidl_vecINS0_11hidl_stringEEEEEE"
  }
  mangled_function_name: "_ZN7android8hardware8graphics11bufferqueue4V1_022IGraphicBufferProducer14interfaceChainENSt3__18functionIFvRKNS0_8hidl_vecINS0_11hidl_stringEEEEEE"
  source_file: "/data/aosp/out/soong/.intermediates/hardware/interfaces/graphics/bufferqueue/1.0/android.hardware.graphics.bufferqueue@1.0_genc++_headers/gen/android/hardware/graphics/bufferqueue/1.0/IGraphicBufferProducer.h"
  parameters {
    basic_abi {
      type_abi {
        name: "std::function<void (const hidl_vec<hidl_string> &)>"
      }
      name: "_hidl_cb"
      access: public_access
      linker_set_key: "false"
    }
    default_arg: false
  }
}
functions {
  basic_abi {
    type_abi {
      name: "android::hardware::Return<void>"
    }
    name: "android::hardware::graphics::bufferqueue::V1_0::IGraphicBufferProducer::debug"
    access: public_access
    linker_set_key: "_ZN7android8hardware8graphics11bufferqueue4V1_022IGraphicBufferProducer5debugERKNS0_11hidl_handleERKNS0_8hidl_vecINS0_11hidl_stringEEE"
  }
  mangled_function_name: "_ZN7android8hardware8graphics11bufferqueue4V1_022IGraphicBufferProducer5debugERKNS0_11hidl_handleERKNS0_8hidl_vecINS0_11hidl_stringEEE"
  source_file: "/data/aosp/out/soong/.intermediates/hardware/interfaces/graphics/bufferqueue/1.0/android.hardware.graphics.bufferqueue@1.0_genc++_headers/gen/android/hardware/graphics/bufferqueue/1.0/IGraphicBufferProducer.h"
  parameters {
    basic_abi {
      type_abi {
        name: "const android::hardware::hidl_handle &"
      }
      name: "fd"
      access: public_access
      linker_set_key: "false"
    }
    default_arg: false
  }
  parameters {
    basic_abi {
      type_abi {
        name: "const android::hardware::hidl_vec<android::hardware::hidl_string> &"
      }
      name: "options"
      access: public_access
      linker_set_key: "false"
    }
    default_arg: false
  }
}
functions {
  basic_abi {
    type_abi {
      name: "android::hardware::Return<void>"
    }
    name: "android::hardware::graphics::bufferqueue::V1_0::IGraphicBufferProducer::interfaceDescriptor"
    access: public_access
    linker_set_key: "_ZN7android8hardware8graphics11bufferqueue4V1_022IGraphicBufferProducer19interfaceDescriptorENSt3__18functionIFvRKNS0_11hidl_stringEEEE"
  }
  mangled_function_name: "_ZN7android8hardware8graphics11bufferqueue4V1_022IGraphicBufferProducer19interfaceDescriptorENSt3__18functionIFvRKNS0_11hidl_stringEEEE"
  source_file: "/data/aosp/out/soong/.intermediates/hardware/interfaces/graphics/bufferqueue/1.0/android.hardware.graphics.bufferqueue@1.0_genc++_headers/gen/android/hardware/graphics/bufferqueue/1.0/IGraphicBufferProducer.h"
  parameters {
    basic_abi {
      type_abi {
        name: "std::function<void (const hidl_string &)>"
      }
      name: "_hidl_cb"
      access: public_access
      linker_set_key: "false"
    }
    default_arg: false
  }
}
functions {
  basic_abi {
    type_abi {
      name: "android::hardware::Return<void>"
    }
    name: "android::hardware::graphics::bufferqueue::V1_0::IGraphicBufferProducer::getHashChain"
    access: public_access
    linker_set_key: "_ZN7android8hardware8graphics11bufferqueue4V1_022IGraphicBufferProducer12getHashChainENSt3__18functionIFvRKNS0_8hidl_vecINS0_10hidl_arrayIhLj32EJEEEEEEEE"
  }
  mangled_function_name: "_ZN7android8hardware8graphics11bufferqueue4V1_022IGraphicBufferProducer12getHashChainENSt3__18functionIFvRKNS0_8hidl_vecINS0_10hidl_arrayIhLj32EJEEEEEEEE"
  source_file: "/data/aosp/out/soong/.intermediates/hardware/interfaces/graphics/bufferqueue/1.0/android.hardware.graphics.bufferqueue@1.0_genc++_headers/gen/android/hardware/graphics/bufferqueue/1.0/IGraphicBufferProducer.h"
  parameters {
    basic_abi {
      type_abi {
        name: "std::function<void (const hidl_vec<hidl_array<unsigned char, 32> > &)>"
      }
      name: "_hidl_cb"
      access: public_access
      linker_set_key: "false"
    }
    default_arg: false
  }
}
functions {
  basic_abi {
    type_abi {
      name: "android::hardware::Return<void>"
    }
    name: "android::hardware::graphics::bufferqueue::V1_0::IGraphicBufferProducer::setHALInstrumentation"
    access: public_access
    linker_set_key: "_ZN7android8hardware8graphics11bufferqueue4V1_022IGraphicBufferProducer21setHALInstrumentationEv"
  }
  mangled_function_name: "_ZN7android8hardware8graphics11bufferqueue4V1_022IGraphicBufferProducer21setHALInstrumentationEv"
  source_file: "/data/aosp/out/soong/.intermediates/hardware/interfaces/graphics/bufferqueue/1.0/android.hardware.graphics.bufferqueue@1.0_genc++_headers/gen/android/hardware/graphics/bufferqueue/1.0/IGraphicBufferProducer.h"
}
functions {
  basic_abi {
    type_abi {
      name: "android::hardware::Return<bool>"
    }
    name: "android::hardware::graphics::bufferqueue::V1_0::IGraphicBufferProducer::linkToDeath"
    access: public_access
    linker_set_key: "_ZN7android8hardware8graphics11bufferqueue4V1_022IGraphicBufferProducer11linkToDeathERKNS_2spINS0_20hidl_death_recipientEEEy"
  }
  mangled_function_name: "_ZN7android8hardware8graphics11bufferqueue4V1_022IGraphicBufferProducer11linkToDeathERKNS_2spINS0_20hidl_death_recipientEEEy"
  source_file: "/data/aosp/out/soong/.intermediates/hardware/interfaces/graphics/bufferqueue/1.0/android.hardware.graphics.bufferqueue@1.0_genc++_headers/gen/android/hardware/graphics/bufferqueue/1.0/IGraphicBufferProducer.h"
  parameters {
    basic_abi {
      type_abi {
        name: "const android::sp<android::hardware::hidl_death_recipient> &"
      }
      name: "recipient"
      access: public_access
      linker_set_key: "false"
    }
    default_arg: false
  }
  parameters {
    basic_abi {
      type_abi {
        name: "unsigned long long"
        size: 8
        alignment: 8
      }
      name: "cookie"
      access: public_access
      linker_set_key: "false"
    }
    default_arg: false
  }
}
functions {
  basic_abi {
    type_abi {
      name: "android::hardware::Return<void>"
    }
    name: "android::hardware::graphics::bufferqueue::V1_0::IGraphicBufferProducer::ping"
    access: public_access
    linker_set_key: "_ZN7android8hardware8graphics11bufferqueue4V1_022IGraphicBufferProducer4pingEv"
  }
  mangled_function_name: "_ZN7android8hardware8graphics11bufferqueue4V1_022IGraphicBufferProducer4pingEv"
  source_file: "/data/aosp/out/soong/.intermediates/hardware/interfaces/graphics/bufferqueue/1.0/android.hardware.graphics.bufferqueue@1.0_genc++_headers/gen/android/hardware/graphics/bufferqueue/1.0/IGraphicBufferProducer.h"
}
functions {
  basic_abi {
    type_abi {
      name: "android::hardware::Return<void>"
    }
    name: "android::hardware::graphics::bufferqueue::V1_0::IGraphicBufferProducer::getDebugInfo"
    access: public_access
    linker_set_key: "_ZN7android8hardware8graphics11bufferqueue4V1_022IGraphicBufferProducer12getDebugInfoENSt3__18functionIFvRKNS_4hidl4base4V1_09DebugInfoEEEE"
  }
  mangled_function_name: "_ZN7android8hardware8graphics11bufferqueue4V1_022IGraphicBufferProducer12getDebugInfoENSt3__18functionIFvRKNS_4hidl4base4V1_09DebugInfoEEEE"
  source_file: "/data/aosp/out/soong/.intermediates/hardware/interfaces/graphics/bufferqueue/1.0/android.hardware.graphics.bufferqueue@1.0_genc++_headers/gen/android/hardware/graphics/bufferqueue/1.0/IGraphicBufferProducer.h"
  parameters {
    basic_abi {
      type_abi {
        name: "std::function<void (const DebugInfo &)>"
      }
      name: "_hidl_cb"
      access: public_access
      linker_set_key: "false"
    }
    default_arg: false
  }
}
functions {
  basic_abi {
    type_abi {
      name: "android::hardware::Return<void>"
    }
    name: "android::hardware::graphics::bufferqueue::V1_0::IGraphicBufferProducer::notifySyspropsChanged"
    access: public_access
    linker_set_key: "_ZN7android8hardware8graphics11bufferqueue4V1_022IGraphicBufferProducer21notifySyspropsChangedEv"
  }
  mangled_function_name: "_ZN7android8hardware8graphics11bufferqueue4V1_022IGraphicBufferProducer21notifySyspropsChangedEv"
  source_file: "/data/aosp/out/soong/.intermediates/hardware/interfaces/graphics/bufferqueue/1.0/android.hardware.graphics.bufferqueue@1.0_genc++_headers/gen/android/hardware/graphics/bufferqueue/1.0/IGraphicBufferProducer.h"
}
functions {
  basic_abi {
    type_abi {
      name: "android::hardware::Return<bool>"
    }
    name: "android::hardware::graphics::bufferqueue::V1_0::IGraphicBufferProducer::unlinkToDeath"
    access: public_access
    linker_set_key: "_ZN7android8hardware8graphics11bufferqueue4V1_022IGraphicBufferProducer13unlinkToDeathERKNS_2spINS0_20hidl_death_recipientEEE"
  }
  mangled_function_name: "_ZN7android8hardware8graphics11bufferqueue4V1_022IGraphicBufferProducer13unlinkToDeathERKNS_2spINS0_20hidl_death_recipientEEE"
  source_file: "/data/aosp/out/soong/.intermediates/hardware/interfaces/graphics/bufferqueue/1.0/android.hardware.graphics.bufferqueue@1.0_genc++_headers/gen/android/hardware/graphics/bufferqueue/1.0/IGraphicBufferProducer.h"
  parameters {
    basic_abi {
      type_abi {
        name: "const android::sp<android::hardware::hidl_death_recipient> &"
      }
      name: "recipient"
      access: public_access
      linker_set_key: "false"
    }
    default_arg: false
  }
}
functions {
  basic_abi {
    type_abi {
      name: "android::hardware::Return<android::sp<android::hardware::graphics::bufferqueue::V1_0::IGraphicBufferProducer> >"
    }
    name: "android::hardware::graphics::bufferqueue::V1_0::IGraphicBufferProducer::castFrom"
    access: public_access
    linker_set_key: "_ZN7android8hardware8graphics11bufferqueue4V1_022IGraphicBufferProducer8castFromERKNS_2spIS4_EEb"
  }
  mangled_function_name: "_ZN7android8hardware8graphics11bufferqueue4V1_022IGraphicBufferProducer8castFromERKNS_2spIS4_EEb"
  source_file: "/data/aosp/out/soong/.intermediates/hardware/interfaces/graphics/bufferqueue/1.0/android.hardware.graphics.bufferqueue@1.0_genc++_headers/gen/android/hardware/graphics/bufferqueue/1.0/IGraphicBufferProducer.h"
  parameters {
    basic_abi {
      type_abi {
        name: "const android::sp<android::hardware::graphics::bufferqueue::V1_0::IGraphicBufferProducer> &"
      }
      name: "parent"
      access: public_access
      linker_set_key: "false"
    }
    default_arg: false
  }
  parameters {
    basic_abi {
      type_abi {
        name: "bool"
        size: 1
        alignment: 1
      }
      name: "emitError"
      access: public_access
      linker_set_key: "true"
    }
    default_arg: true
  }
}
functions {
  basic_abi {
    type_abi {
      name: "android::hardware::Return<android::sp<android::hardware::graphics::bufferqueue::V1_0::IGraphicBufferProducer> >"
    }
    name: "android::hardware::graphics::bufferqueue::V1_0::IGraphicBufferProducer::castFrom"
    access: public_access
    linker_set_key: "_ZN7android8hardware8graphics11bufferqueue4V1_022IGraphicBufferProducer8castFromERKNS_2spINS_4hidl4base4V1_05IBaseEEEb"
  }
  mangled_function_name: "_ZN7android8hardware8graphics11bufferqueue4V1_022IGraphicBufferProducer8castFromERKNS_2spINS_4hidl4base4V1_05IBaseEEEb"
  source_file: "/data/aosp/out/soong/.intermediates/hardware/interfaces/graphics/bufferqueue/1.0/android.hardware.graphics.bufferqueue@1.0_genc++_headers/gen/android/hardware/graphics/bufferqueue/1.0/IGraphicBufferProducer.h"
  parameters {
    basic_abi {
      type_abi {
        name: "const android::sp<android::hidl::base::V1_0::IBase> &"
      }
      name: "parent"
      access: public_access
      linker_set_key: "false"
    }
    default_arg: false
  }
  parameters {
    basic_abi {
      type_abi {
        name: "bool"
        size: 1
        alignment: 1
      }
      name: "emitError"
      access: public_access
      linker_set_key: "true"
    }
    default_arg: true
  }
}
functions {
  basic_abi {
    type_abi {
      name: "android::sp<android::hardware::graphics::bufferqueue::V1_0::IGraphicBufferProducer>"
    }
    name: "android::hardware::graphics::bufferqueue::V1_0::IGraphicBufferProducer::tryGetService"
    access: public_access
    linker_set_key: "_ZN7android8hardware8graphics11bufferqueue4V1_022IGraphicBufferProducer13tryGetServiceERKNSt3__112basic_stringIcNS5_11char_traitsIcEENS5_9allocatorIcEEEEb"
  }
  mangled_function_name: "_ZN7android8hardware8graphics11bufferqueue4V1_022IGraphicBufferProducer13tryGetServiceERKNSt3__112basic_stringIcNS5_11char_traitsIcEENS5_9allocatorIcEEEEb"
  source_file: "/data/aosp/out/soong/.intermediates/hardware/interfaces/graphics/bufferqueue/1.0/android.hardware.graphics.bufferqueue@1.0_genc++_headers/gen/android/hardware/graphics/bufferqueue/1.0/IGraphicBufferProducer.h"
  parameters {
    basic_abi {
      type_abi {
        name: "const std::basic_string<char, std::char_traits<char>, std::allocator<char> > &"
      }
      name: "serviceName"
      access: public_access
      linker_set_key: "true"
    }
    default_arg: true
  }
  parameters {
    basic_abi {
      type_abi {
        name: "bool"
        size: 1
        alignment: 1
      }
      name: "getStub"
      access: public_access
      linker_set_key: "true"
    }
    default_arg: true
  }
}
functions {
  basic_abi {
    type_abi {
      name: "android::sp<android::hardware::graphics::bufferqueue::V1_0::IGraphicBufferProducer>"
    }
    name: "android::hardware::graphics::bufferqueue::V1_0::IGraphicBufferProducer::tryGetService"
    access: public_access
    linker_set_key: "_ZN7android8hardware8graphics11bufferqueue4V1_022IGraphicBufferProducer13tryGetServiceEPKcb"
  }
  mangled_function_name: "_ZN7android8hardware8graphics11bufferqueue4V1_022IGraphicBufferProducer13tryGetServiceEPKcb"
  source_file: "/data/aosp/out/soong/.intermediates/hardware/interfaces/graphics/bufferqueue/1.0/android.hardware.graphics.bufferqueue@1.0_genc++_headers/gen/android/hardware/graphics/bufferqueue/1.0/IGraphicBufferProducer.h"
  parameters {
    basic_abi {
      type_abi {
        name: "const char *"
        size: 4
        alignment: 4
      }
      name: "serviceName"
      access: public_access
      linker_set_key: "false"
    }
    default_arg: false
  }
  parameters {
    basic_abi {
      type_abi {
        name: "bool"
        size: 1
        alignment: 1
      }
      name: "getStub"
      access: public_access
      linker_set_key: "true"
    }
    default_arg: true
  }
}
functions {
  basic_abi {
    type_abi {
      name: "android::sp<android::hardware::graphics::bufferqueue::V1_0::IGraphicBufferProducer>"
    }
    name: "android::hardware::graphics::bufferqueue::V1_0::IGraphicBufferProducer::tryGetService"
    access: public_access
    linker_set_key: "_ZN7android8hardware8graphics11bufferqueue4V1_022IGraphicBufferProducer13tryGetServiceERKNS0_11hidl_stringEb"
  }
  mangled_function_name: "_ZN7android8hardware8graphics11bufferqueue4V1_022IGraphicBufferProducer13tryGetServiceERKNS0_11hidl_stringEb"
  source_file: "/data/aosp/out/soong/.intermediates/hardware/interfaces/graphics/bufferqueue/1.0/android.hardware.graphics.bufferqueue@1.0_genc++_headers/gen/android/hardware/graphics/bufferqueue/1.0/IGraphicBufferProducer.h"
  parameters {
    basic_abi {
      type_abi {
        name: "const android::hardware::hidl_string &"
      }
      name: "serviceName"
      access: public_access
      linker_set_key: "false"
    }
    default_arg: false
  }
  parameters {
    basic_abi {
      type_abi {
        name: "bool"
        size: 1
        alignment: 1
      }
      name: "getStub"
      access: public_access
      linker_set_key: "true"
    }
    default_arg: true
  }
}
functions {
  basic_abi {
    type_abi {
      name: "android::sp<android::hardware::graphics::bufferqueue::V1_0::IGraphicBufferProducer>"
    }
    name: "android::hardware::graphics::bufferqueue::V1_0::IGraphicBufferProducer::tryGetService"
    access: public_access
    linker_set_key: "_ZN7android8hardware8graphics11bufferqueue4V1_022IGraphicBufferProducer13tryGetServiceEb"
  }
  mangled_function_name: "_ZN7android8hardware8graphics11bufferqueue4V1_022IGraphicBufferProducer13tryGetServiceEb"
  source_file: "/data/aosp/out/soong/.intermediates/hardware/interfaces/graphics/bufferqueue/1.0/android.hardware.graphics.bufferqueue@1.0_genc++_headers/gen/android/hardware/graphics/bufferqueue/1.0/IGraphicBufferProducer.h"
  parameters {
    basic_abi {
      type_abi {
        name: "bool"
        size: 1
        alignment: 1
      }
      name: "getStub"
      access: public_access
      linker_set_key: "false"
    }
    default_arg: false
  }
}
functions {
  basic_abi {
    type_abi {
      name: "android::sp<android::hardware::graphics::bufferqueue::V1_0::IGraphicBufferProducer>"
    }
    name: "android::hardware::graphics::bufferqueue::V1_0::IGraphicBufferProducer::getService"
    access: public_access
    linker_set_key: "_ZN7android8hardware8graphics11bufferqueue4V1_022IGraphicBufferProducer10getServiceERKNSt3__112basic_stringIcNS5_11char_traitsIcEENS5_9allocatorIcEEEEb"
  }
  mangled_function_name: "_ZN7android8hardware8graphics11bufferqueue4V1_022IGraphicBufferProducer10getServiceERKNSt3__112basic_stringIcNS5_11char_traitsIcEENS5_9allocatorIcEEEEb"
  source_file: "/data/aosp/out/soong/.intermediates/hardware/interfaces/graphics/bufferqueue/1.0/android.hardware.graphics.bufferqueue@1.0_genc++_headers/gen/android/hardware/graphics/bufferqueue/1.0/IGraphicBufferProducer.h"
  parameters {
    basic_abi {
      type_abi {
        name: "const std::basic_string<char, std::char_traits<char>, std::allocator<char> > &"
      }
      name: "serviceName"
      access: public_access
      linker_set_key: "true"
    }
    default_arg: true
  }
  parameters {
    basic_abi {
      type_abi {
        name: "bool"
        size: 1
        alignment: 1
      }
      name: "getStub"
      access: public_access
      linker_set_key: "true"
    }
    default_arg: true
  }
}
functions {
  basic_abi {
    type_abi {
      name: "android::sp<android::hardware::graphics::bufferqueue::V1_0::IGraphicBufferProducer>"
    }
    name: "android::hardware::graphics::bufferqueue::V1_0::IGraphicBufferProducer::getService"
    access: public_access
    linker_set_key: "_ZN7android8hardware8graphics11bufferqueue4V1_022IGraphicBufferProducer10getServiceEPKcb"
  }
  mangled_function_name: "_ZN7android8hardware8graphics11bufferqueue4V1_022IGraphicBufferProducer10getServiceEPKcb"
  source_file: "/data/aosp/out/soong/.intermediates/hardware/interfaces/graphics/bufferqueue/1.0/android.hardware.graphics.bufferqueue@1.0_genc++_headers/gen/android/hardware/graphics/bufferqueue/1.0/IGraphicBufferProducer.h"
  parameters {
    basic_abi {
      type_abi {
        name: "const char *"
        size: 4
        alignment: 4
      }
      name: "serviceName"
      access: public_access
      linker_set_key: "false"
    }
    default_arg: false
  }
  parameters {
    basic_abi {
      type_abi {
        name: "bool"
        size: 1
        alignment: 1
      }
      name: "getStub"
      access: public_access
      linker_set_key: "true"
    }
    default_arg: true
  }
}
functions {
  basic_abi {
    type_abi {
      name: "android::sp<android::hardware::graphics::bufferqueue::V1_0::IGraphicBufferProducer>"
    }
    name: "android::hardware::graphics::bufferqueue::V1_0::IGraphicBufferProducer::getService"
    access: public_access
    linker_set_key: "_ZN7android8hardware8graphics11bufferqueue4V1_022IGraphicBufferProducer10getServiceERKNS0_11hidl_stringEb"
  }
  mangled_function_name: "_ZN7android8hardware8graphics11bufferqueue4V1_022IGraphicBufferProducer10getServiceERKNS0_11hidl_stringEb"
  source_file: "/data/aosp/out/soong/.intermediates/hardware/interfaces/graphics/bufferqueue/1.0/android.hardware.graphics.bufferqueue@1.0_genc++_headers/gen/android/hardware/graphics/bufferqueue/1.0/IGraphicBufferProducer.h"
  parameters {
    basic_abi {
      type_abi {
        name: "const android::hardware::hidl_string &"
      }
      name: "serviceName"
      access: public_access
      linker_set_key: "false"
    }
    default_arg: false
  }
  parameters {
    basic_abi {
      type_abi {
        name: "bool"
        size: 1
        alignment: 1
      }
      name: "getStub"
      access: public_access
      linker_set_key: "true"
    }
    default_arg: true
  }
}
functions {
  basic_abi {
    type_abi {
      name: "android::sp<android::hardware::graphics::bufferqueue::V1_0::IGraphicBufferProducer>"
    }
    name: "android::hardware::graphics::bufferqueue::V1_0::IGraphicBufferProducer::getService"
    access: public_access
    linker_set_key: "_ZN7android8hardware8graphics11bufferqueue4V1_022IGraphicBufferProducer10getServiceEb"
  }
  mangled_function_name: "_ZN7android8hardware8graphics11bufferqueue4V1_022IGraphicBufferProducer10getServiceEb"
  source_file: "/data/aosp/out/soong/.intermediates/hardware/interfaces/graphics/bufferqueue/1.0/android.hardware.graphics.bufferqueue@1.0_genc++_headers/gen/android/hardware/graphics/bufferqueue/1.0/IGraphicBufferProducer.h"
  parameters {
    basic_abi {
      type_abi {
        name: "bool"
        size: 1
        alignment: 1
      }
      name: "getStub"
      access: public_access
      linker_set_key: "false"
    }
    default_arg: false
  }
}
functions {
  basic_abi {
    type_abi {
      name: "int"
      size: 4
      alignment: 4
    }
    name: "android::hardware::graphics::bufferqueue::V1_0::IGraphicBufferProducer::registerAsService"
    access: public_access
    linker_set_key: "_ZN7android8hardware8graphics11bufferqueue4V1_022IGraphicBufferProducer17registerAsServiceERKNSt3__112basic_stringIcNS5_11char_traitsIcEENS5_9allocatorIcEEEE"
  }
  mangled_function_name: "_ZN7android8hardware8graphics11bufferqueue4V1_022IGraphicBufferProducer17registerAsServiceERKNSt3__112basic_stringIcNS5_11char_traitsIcEENS5_9allocatorIcEEEE"
  source_file: "/data/aosp/out/soong/.intermediates/hardware/interfaces/graphics/bufferqueue/1.0/android.hardware.graphics.bufferqueue@1.0_genc++_headers/gen/android/hardware/graphics/bufferqueue/1.0/IGraphicBufferProducer.h"
  parameters {
    basic_abi {
      type_abi {
        name: "const std::basic_string<char, std::char_traits<char>, std::allocator<char> > &"
      }
      name: "serviceName"
      access: public_access
      linker_set_key: "true"
    }
    default_arg: true
  }
}
functions {
  basic_abi {
    type_abi {
      name: "bool"
      size: 1
      alignment: 1
    }
    name: "android::hardware::graphics::bufferqueue::V1_0::IGraphicBufferProducer::registerForNotifications"
    access: public_access
    linker_set_key: "_ZN7android8hardware8graphics11bufferqueue4V1_022IGraphicBufferProducer24registerForNotificationsERKNSt3__112basic_stringIcNS5_11char_traitsIcEENS5_9allocatorIcEEEERKNS_2spINS_4hidl7manager4V1_020IServiceNotificationEEE"
  }
  mangled_function_name: "_ZN7android8hardware8graphics11bufferqueue4V1_022IGraphicBufferProducer24registerForNotificationsERKNSt3__112basic_stringIcNS5_11char_traitsIcEENS5_9allocatorIcEEEERKNS_2spINS_4hidl7manager4V1_020IServiceNotificationEEE"
  source_file: "/data/aosp/out/soong/.intermediates/hardware/interfaces/graphics/bufferqueue/1.0/android.hardware.graphics.bufferqueue@1.0_genc++_headers/gen/android/hardware/graphics/bufferqueue/1.0/IGraphicBufferProducer.h"
  parameters {
    basic_abi {
      type_abi {
        name: "const std::basic_string<char, std::char_traits<char>, std::allocator<char> > &"
      }
      name: "serviceName"
      access: public_access
      linker_set_key: "false"
    }
    default_arg: false
  }
  parameters {
    basic_abi {
      type_abi {
        name: "const android::sp<android::hidl::manager::V1_0::IServiceNotification> &"
      }
      name: "notification"
      access: public_access
      linker_set_key: "false"
    }
    default_arg: false
  }
}
functions {
  basic_abi {
    type_abi {
      name: "int"
      size: 4
      alignment: 4
    }
    name: "android::hardware::graphics::bufferqueue::V1_0::operator|"
    access: public_access
    linker_set_key: "_ZN7android8hardware8graphics11bufferqueue4V1_0orENS3_22IGraphicBufferProducer17FenceTimeSnapshot5StateES6_"
  }
  mangled_function_name: "_ZN7android8hardware8graphics11bufferqueue4V1_0orENS3_22IGraphicBufferProducer17FenceTimeSnapshot5StateES6_"
  source_file: "/data/aosp/out/soong/.intermediates/hardware/interfaces/graphics/bufferqueue/1.0/android.hardware.graphics.bufferqueue@1.0_genc++_headers/gen/android/hardware/graphics/bufferqueue/1.0/IGraphicBufferProducer.h"
  parameters {
    basic_abi {
      type_abi {
        name: "const android::hardware::graphics::bufferqueue::V1_0::IGraphicBufferProducer::FenceTimeSnapshot::State"
      }
      name: "lhs"
      access: public_access
      linker_set_key: "false"
    }
    default_arg: false
  }
  parameters {
    basic_abi {
      type_abi {
        name: "const android::hardware::graphics::bufferqueue::V1_0::IGraphicBufferProducer::FenceTimeSnapshot::State"
      }
      name: "rhs"
      access: public_access
      linker_set_key: "false"
    }
    default_arg: false
  }
}
functions {
  basic_abi {
    type_abi {
      name: "int"
      size: 4
      alignment: 4
    }
    name: "android::hardware::graphics::bufferqueue::V1_0::operator|"
    access: public_access
    linker_set_key: "_ZN7android8hardware8graphics11bufferqueue4V1_0orEiNS3_22IGraphicBufferProducer17FenceTimeSnapshot5StateE"
  }
  mangled_function_name: "_ZN7android8hardware8graphics11bufferqueue4V1_0orEiNS3_22IGraphicBufferProducer17FenceTimeSnapshot5StateE"
  source_file: "/data/aosp/out/soong/.intermediates/hardware/interfaces/graphics/bufferqueue/1.0/android.hardware.graphics.bufferqueue@1.0_genc++_headers/gen/android/hardware/graphics/bufferqueue/1.0/IGraphicBufferProducer.h"
  parameters {
    basic_abi {
      type_abi {
        name: "const int"
        size: 4
        alignment: 4
      }
      name: "lhs"
      access: public_access
      linker_set_key: "false"
    }
    default_arg: false
  }
  parameters {
    basic_abi {
      type_abi {
        name: "const android::hardware::graphics::bufferqueue::V1_0::IGraphicBufferProducer::FenceTimeSnapshot::State"
      }
      name: "rhs"
      access: public_access
      linker_set_key: "false"
    }
    default_arg: false
  }
}
functions {
  basic_abi {
    type_abi {
      name: "int"
      size: 4
      alignment: 4
    }
    name: "android::hardware::graphics::bufferqueue::V1_0::operator|"
    access: public_access
    linker_set_key: "_ZN7android8hardware8graphics11bufferqueue4V1_0orENS3_22IGraphicBufferProducer17FenceTimeSnapshot5StateEi"
  }
  mangled_function_name: "_ZN7android8hardware8graphics11bufferqueue4V1_0orENS3_22IGraphicBufferProducer17FenceTimeSnapshot5StateEi"
  source_file: "/data/aosp/out/soong/.intermediates/hardware/interfaces/graphics/bufferqueue/1.0/android.hardware.graphics.bufferqueue@1.0_genc++_headers/gen/android/hardware/graphics/bufferqueue/1.0/IGraphicBufferProducer.h"
  parameters {
    basic_abi {
      type_abi {
        name: "const android::hardware::graphics::bufferqueue::V1_0::IGraphicBufferProducer::FenceTimeSnapshot::State"
      }
      name: "lhs"
      access: public_access
      linker_set_key: "false"
    }
    default_arg: false
  }
  parameters {
    basic_abi {
      type_abi {
        name: "const int"
        size: 4
        alignment: 4
      }
      name: "rhs"
      access: public_access
      linker_set_key: "false"
    }
    default_arg: false
  }
}
functions {
  basic_abi {
    type_abi {
      name: "int"
      size: 4
      alignment: 4
    }
    name: "android::hardware::graphics::bufferqueue::V1_0::operator&"
    access: public_access
    linker_set_key: "_ZN7android8hardware8graphics11bufferqueue4V1_0anENS3_22IGraphicBufferProducer17FenceTimeSnapshot5StateES6_"
  }
  mangled_function_name: "_ZN7android8hardware8graphics11bufferqueue4V1_0anENS3_22IGraphicBufferProducer17FenceTimeSnapshot5StateES6_"
  source_file: "/data/aosp/out/soong/.intermediates/hardware/interfaces/graphics/bufferqueue/1.0/android.hardware.graphics.bufferqueue@1.0_genc++_headers/gen/android/hardware/graphics/bufferqueue/1.0/IGraphicBufferProducer.h"
  parameters {
    basic_abi {
      type_abi {
        name: "const android::hardware::graphics::bufferqueue::V1_0::IGraphicBufferProducer::FenceTimeSnapshot::State"
      }
      name: "lhs"
      access: public_access
      linker_set_key: "false"
    }
    default_arg: false
  }
  parameters {
    basic_abi {
      type_abi {
        name: "const android::hardware::graphics::bufferqueue::V1_0::IGraphicBufferProducer::FenceTimeSnapshot::State"
      }
      name: "rhs"
      access: public_access
      linker_set_key: "false"
    }
    default_arg: false
  }
}
functions {
  basic_abi {
    type_abi {
      name: "int"
      size: 4
      alignment: 4
    }
    name: "android::hardware::graphics::bufferqueue::V1_0::operator&"
    access: public_access
    linker_set_key: "_ZN7android8hardware8graphics11bufferqueue4V1_0anEiNS3_22IGraphicBufferProducer17FenceTimeSnapshot5StateE"
  }
  mangled_function_name: "_ZN7android8hardware8graphics11bufferqueue4V1_0anEiNS3_22IGraphicBufferProducer17FenceTimeSnapshot5StateE"
  source_file: "/data/aosp/out/soong/.intermediates/hardware/interfaces/graphics/bufferqueue/1.0/android.hardware.graphics.bufferqueue@1.0_genc++_headers/gen/android/hardware/graphics/bufferqueue/1.0/IGraphicBufferProducer.h"
  parameters {
    basic_abi {
      type_abi {
        name: "const int"
        size: 4
        alignment: 4
      }
      name: "lhs"
      access: public_access
      linker_set_key: "false"
    }
    default_arg: false
  }
  parameters {
    basic_abi {
      type_abi {
        name: "const android::hardware::graphics::bufferqueue::V1_0::IGraphicBufferProducer::FenceTimeSnapshot::State"
      }
      name: "rhs"
      access: public_access
      linker_set_key: "false"
    }
    default_arg: false
  }
}
functions {
  basic_abi {
    type_abi {
      name: "int"
      size: 4
      alignment: 4
    }
    name: "android::hardware::graphics::bufferqueue::V1_0::operator&"
    access: public_access
    linker_set_key: "_ZN7android8hardware8graphics11bufferqueue4V1_0anENS3_22IGraphicBufferProducer17FenceTimeSnapshot5StateEi"
  }
  mangled_function_name: "_ZN7android8hardware8graphics11bufferqueue4V1_0anENS3_22IGraphicBufferProducer17FenceTimeSnapshot5StateEi"
  source_file: "/data/aosp/out/soong/.intermediates/hardware/interfaces/graphics/bufferqueue/1.0/android.hardware.graphics.bufferqueue@1.0_genc++_headers/gen/android/hardware/graphics/bufferqueue/1.0/IGraphicBufferProducer.h"
  parameters {
    basic_abi {
      type_abi {
        name: "const android::hardware::graphics::bufferqueue::V1_0::IGraphicBufferProducer::FenceTimeSnapshot::State"
      }
      name: "lhs"
      access: public_access
      linker_set_key: "false"
    }
    default_arg: false
  }
  parameters {
    basic_abi {
      type_abi {
        name: "const int"
        size: 4
        alignment: 4
      }
      name: "rhs"
      access: public_access
      linker_set_key: "false"
    }
    default_arg: false
  }
}
functions {
  basic_abi {
    type_abi {
      name: "int &"
    }
    name: "android::hardware::graphics::bufferqueue::V1_0::operator|="
    access: public_access
    linker_set_key: "_ZN7android8hardware8graphics11bufferqueue4V1_0oRERiNS3_22IGraphicBufferProducer17FenceTimeSnapshot5StateE"
  }
  mangled_function_name: "_ZN7android8hardware8graphics11bufferqueue4V1_0oRERiNS3_22IGraphicBufferProducer17FenceTimeSnapshot5StateE"
  source_file: "/data/aosp/out/soong/.intermediates/hardware/interfaces/graphics/bufferqueue/1.0/android.hardware.graphics.bufferqueue@1.0_genc++_headers/gen/android/hardware/graphics/bufferqueue/1.0/IGraphicBufferProducer.h"
  parameters {
    basic_abi {
      type_abi {
        name: "int &"
      }
      name: "v"
      access: public_access
      linker_set_key: "false"
    }
    default_arg: false
  }
  parameters {
    basic_abi {
      type_abi {
        name: "const android::hardware::graphics::bufferqueue::V1_0::IGraphicBufferProducer::FenceTimeSnapshot::State"
      }
      name: "e"
      access: public_access
      linker_set_key: "false"
    }
    default_arg: false
  }
}
functions {
  basic_abi {
    type_abi {
      name: "int &"
    }
    name: "android::hardware::graphics::bufferqueue::V1_0::operator&="
    access: public_access
    linker_set_key: "_ZN7android8hardware8graphics11bufferqueue4V1_0aNERiNS3_22IGraphicBufferProducer17FenceTimeSnapshot5StateE"
  }
  mangled_function_name: "_ZN7android8hardware8graphics11bufferqueue4V1_0aNERiNS3_22IGraphicBufferProducer17FenceTimeSnapshot5StateE"
  source_file: "/data/aosp/out/soong/.intermediates/hardware/interfaces/graphics/bufferqueue/1.0/android.hardware.graphics.bufferqueue@1.0_genc++_headers/gen/android/hardware/graphics/bufferqueue/1.0/IGraphicBufferProducer.h"
  parameters {
    basic_abi {
      type_abi {
        name: "int &"
      }
      name: "v"
      access: public_access
      linker_set_key: "false"
    }
    default_arg: false
  }
  parameters {
    basic_abi {
      type_abi {
        name: "const android::hardware::graphics::bufferqueue::V1_0::IGraphicBufferProducer::FenceTimeSnapshot::State"
      }
      name: "e"
      access: public_access
      linker_set_key: "false"
    }
    default_arg: false
  }
}
functions {
  basic_abi {
    type_abi {
      name: "std::basic_string<char, std::char_traits<char>, std::allocator<char> >"
    }
    name: "android::hardware::graphics::bufferqueue::V1_0::toString"
    access: public_access
    linker_set_key: "_ZN7android8hardware8graphics11bufferqueue4V1_08toStringINS3_22IGraphicBufferProducer17FenceTimeSnapshot5StateEEENSt3__112basic_stringIcNS8_11char_traitsIcEENS8_9allocatorIcEEEEi"
  }
  mangled_function_name: "_ZN7android8hardware8graphics11bufferqueue4V1_08toStringINS3_22IGraphicBufferProducer17FenceTimeSnapshot5StateEEENSt3__112basic_stringIcNS8_11char_traitsIcEENS8_9allocatorIcEEEEi"
  source_file: "/data/aosp/out/soong/.intermediates/hardware/interfaces/graphics/bufferqueue/1.0/android.hardware.graphics.bufferqueue@1.0_genc++_headers/gen/android/hardware/graphics/bufferqueue/1.0/IGraphicBufferProducer.h"
  parameters {
    basic_abi {
      type_abi {
        name: "int"
        size: 4
        alignment: 4
      }
      name: "o"
      access: public_access
      linker_set_key: "false"
    }
    default_arg: false
  }
  template_info {
    elements {
      basic_abi {
        type_abi {
          name: "android::hardware::graphics::bufferqueue::V1_0::IGraphicBufferProducer::FenceTimeSnapshot::State"
        }
        linker_set_key: "android::hardware::graphics::bufferqueue::V1_0::IGraphicBufferProducer::FenceTimeSnapshot::State"
      }
    }
  }
}
functions {
  basic_abi {
    type_abi {
      name: "std::basic_string<char, std::char_traits<char>, std::allocator<char> >"
    }
    name: "android::hardware::graphics::bufferqueue::V1_0::toString"
    access: public_access
    linker_set_key: "_ZN7android8hardware8graphics11bufferqueue4V1_08toStringENS3_22IGraphicBufferProducer17FenceTimeSnapshot5StateE"
  }
  mangled_function_name: "_ZN7android8hardware8graphics11bufferqueue4V1_08toStringENS3_22IGraphicBufferProducer17FenceTimeSnapshot5StateE"
  source_file: "/data/aosp/out/soong/.intermediates/hardware/interfaces/graphics/bufferqueue/1.0/android.hardware.graphics.bufferqueue@1.0_genc++_headers/gen/android/hardware/graphics/bufferqueue/1.0/IGraphicBufferProducer.h"
  parameters {
    basic_abi {
      type_abi {
        name: "android::hardware::graphics::bufferqueue::V1_0::IGraphicBufferProducer::FenceTimeSnapshot::State"
      }
      name: "o"
      access: public_access
      linker_set_key: "false"
    }
    default_arg: false
  }
}
functions {
  basic_abi {
    type_abi {
      name: "std::basic_string<char, std::char_traits<char>, std::allocator<char> >"
    }
    name: "android::hardware::graphics::bufferqueue::V1_0::toString"
    access: public_access
    linker_set_key: "_ZN7android8hardware8graphics11bufferqueue4V1_08toStringERKNS3_22IGraphicBufferProducer17FenceTimeSnapshotE"
  }
  mangled_function_name: "_ZN7android8hardware8graphics11bufferqueue4V1_08toStringERKNS3_22IGraphicBufferProducer17FenceTimeSnapshotE"
  source_file: "/data/aosp/out/soong/.intermediates/hardware/interfaces/graphics/bufferqueue/1.0/android.hardware.graphics.bufferqueue@1.0_genc++_headers/gen/android/hardware/graphics/bufferqueue/1.0/IGraphicBufferProducer.h"
  parameters {
    basic_abi {
      type_abi {
        name: "const android::hardware::graphics::bufferqueue::V1_0::IGraphicBufferProducer::FenceTimeSnapshot &"
      }
      name: ""
      access: public_access
      linker_set_key: "false"
    }
    default_arg: false
  }
}
functions {
  basic_abi {
    type_abi {
      name: "std::basic_string<char, std::char_traits<char>, std::allocator<char> >"
    }
    name: "android::hardware::graphics::bufferqueue::V1_0::toString"
    access: public_access
    linker_set_key: "_ZN7android8hardware8graphics11bufferqueue4V1_08toStringERKNS3_22IGraphicBufferProducer16FrameEventsDeltaE"
  }
  mangled_function_name: "_ZN7android8hardware8graphics11bufferqueue4V1_08toStringERKNS3_22IGraphicBufferProducer16FrameEventsDeltaE"
  source_file: "/data/aosp/out/soong/.intermediates/hardware/interfaces/graphics/bufferqueue/1.0/android.hardware.graphics.bufferqueue@1.0_genc++_headers/gen/android/hardware/graphics/bufferqueue/1.0/IGraphicBufferProducer.h"
  parameters {
    basic_abi {
      type_abi {
        name: "const android::hardware::graphics::bufferqueue::V1_0::IGraphicBufferProducer::FrameEventsDelta &"
      }
      name: ""
      access: public_access
      linker_set_key: "false"
    }
    default_arg: false
  }
}
functions {
  basic_abi {
    type_abi {
      name: "std::basic_string<char, std::char_traits<char>, std::allocator<char> >"
    }
    name: "android::hardware::graphics::bufferqueue::V1_0::toString"
    access: public_access
    linker_set_key: "_ZN7android8hardware8graphics11bufferqueue4V1_08toStringERKNS3_22IGraphicBufferProducer16CompositorTimingE"
  }
  mangled_function_name: "_ZN7android8hardware8graphics11bufferqueue4V1_08toStringERKNS3_22IGraphicBufferProducer16CompositorTimingE"
  source_file: "/data/aosp/out/soong/.intermediates/hardware/interfaces/graphics/bufferqueue/1.0/android.hardware.graphics.bufferqueue@1.0_genc++_headers/gen/android/hardware/graphics/bufferqueue/1.0/IGraphicBufferProducer.h"
  parameters {
    basic_abi {
      type_abi {
        name: "const android::hardware::graphics::bufferqueue::V1_0::IGraphicBufferProducer::CompositorTiming &"
      }
      name: ""
      access: public_access
      linker_set_key: "false"
    }
    default_arg: false
  }
}
functions {
  basic_abi {
    type_abi {
      name: "bool"
      size: 1
      alignment: 1
    }
    name: "android::hardware::graphics::bufferqueue::V1_0::operator=="
    access: public_access
    linker_set_key: "_ZN7android8hardware8graphics11bufferqueue4V1_0eqERKNS3_22IGraphicBufferProducer16CompositorTimingES7_"
  }
  mangled_function_name: "_ZN7android8hardware8graphics11bufferqueue4V1_0eqERKNS3_22IGraphicBufferProducer16CompositorTimingES7_"
  source_file: "/data/aosp/out/soong/.intermediates/hardware/interfaces/graphics/bufferqueue/1.0/android.hardware.graphics.bufferqueue@1.0_genc++_headers/gen/android/hardware/graphics/bufferqueue/1.0/IGraphicBufferProducer.h"
  parameters {
    basic_abi {
      type_abi {
        name: "const android::hardware::graphics::bufferqueue::V1_0::IGraphicBufferProducer::CompositorTiming &"
      }
      name: ""
      access: public_access
      linker_set_key: "false"
    }
    default_arg: false
  }
  parameters {
    basic_abi {
      type_abi {
        name: "const android::hardware::graphics::bufferqueue::V1_0::IGraphicBufferProducer::CompositorTiming &"
      }
      name: ""
      access: public_access
      linker_set_key: "false"
    }
    default_arg: false
  }
}
functions {
  basic_abi {
    type_abi {
      name: "bool"
      size: 1
      alignment: 1
    }
    name: "android::hardware::graphics::bufferqueue::V1_0::operator!="
    access: public_access
    linker_set_key: "_ZN7android8hardware8graphics11bufferqueue4V1_0neERKNS3_22IGraphicBufferProducer16CompositorTimingES7_"
  }
  mangled_function_name: "_ZN7android8hardware8graphics11bufferqueue4V1_0neERKNS3_22IGraphicBufferProducer16CompositorTimingES7_"
  source_file: "/data/aosp/out/soong/.intermediates/hardware/interfaces/graphics/bufferqueue/1.0/android.hardware.graphics.bufferqueue@1.0_genc++_headers/gen/android/hardware/graphics/bufferqueue/1.0/IGraphicBufferProducer.h"
  parameters {
    basic_abi {
      type_abi {
        name: "const android::hardware::graphics::bufferqueue::V1_0::IGraphicBufferProducer::CompositorTiming &"
      }
      name: ""
      access: public_access
      linker_set_key: "false"
    }
    default_arg: false
  }
  parameters {
    basic_abi {
      type_abi {
        name: "const android::hardware::graphics::bufferqueue::V1_0::IGraphicBufferProducer::CompositorTiming &"
      }
      name: ""
      access: public_access
      linker_set_key: "false"
    }
    default_arg: false
  }
}
functions {
  basic_abi {
    type_abi {
      name: "std::basic_string<char, std::char_traits<char>, std::allocator<char> >"
    }
    name: "android::hardware::graphics::bufferqueue::V1_0::toString"
    access: public_access
    linker_set_key: "_ZN7android8hardware8graphics11bufferqueue4V1_08toStringERKNS3_22IGraphicBufferProducer22FrameEventHistoryDeltaE"
  }
  mangled_function_name: "_ZN7android8hardware8graphics11bufferqueue4V1_08toStringERKNS3_22IGraphicBufferProducer22FrameEventHistoryDeltaE"
  source_file: "/data/aosp/out/soong/.intermediates/hardware/interfaces/graphics/bufferqueue/1.0/android.hardware.graphics.bufferqueue@1.0_genc++_headers/gen/android/hardware/graphics/bufferqueue/1.0/IGraphicBufferProducer.h"
  parameters {
    basic_abi {
      type_abi {
        name: "const android::hardware::graphics::bufferqueue::V1_0::IGraphicBufferProducer::FrameEventHistoryDelta &"
      }
      name: ""
      access: public_access
      linker_set_key: "false"
    }
    default_arg: false
  }
}
functions {
  basic_abi {
    type_abi {
      name: "int"
      size: 4
      alignment: 4
    }
    name: "android::hardware::graphics::bufferqueue::V1_0::operator|"
    access: public_access
    linker_set_key: "_ZN7android8hardware8graphics11bufferqueue4V1_0orENS3_22IGraphicBufferProducer14DisconnectModeES5_"
  }
  mangled_function_name: "_ZN7android8hardware8graphics11bufferqueue4V1_0orENS3_22IGraphicBufferProducer14DisconnectModeES5_"
  source_file: "/data/aosp/out/soong/.intermediates/hardware/interfaces/graphics/bufferqueue/1.0/android.hardware.graphics.bufferqueue@1.0_genc++_headers/gen/android/hardware/graphics/bufferqueue/1.0/IGraphicBufferProducer.h"
  parameters {
    basic_abi {
      type_abi {
        name: "const android::hardware::graphics::bufferqueue::V1_0::IGraphicBufferProducer::DisconnectMode"
      }
      name: "lhs"
      access: public_access
      linker_set_key: "false"
    }
    default_arg: false
  }
  parameters {
    basic_abi {
      type_abi {
        name: "const android::hardware::graphics::bufferqueue::V1_0::IGraphicBufferProducer::DisconnectMode"
      }
      name: "rhs"
      access: public_access
      linker_set_key: "false"
    }
    default_arg: false
  }
}
functions {
  basic_abi {
    type_abi {
      name: "int"
      size: 4
      alignment: 4
    }
    name: "android::hardware::graphics::bufferqueue::V1_0::operator|"
    access: public_access
    linker_set_key: "_ZN7android8hardware8graphics11bufferqueue4V1_0orEiNS3_22IGraphicBufferProducer14DisconnectModeE"
  }
  mangled_function_name: "_ZN7android8hardware8graphics11bufferqueue4V1_0orEiNS3_22IGraphicBufferProducer14DisconnectModeE"
  source_file: "/data/aosp/out/soong/.intermediates/hardware/interfaces/graphics/bufferqueue/1.0/android.hardware.graphics.bufferqueue@1.0_genc++_headers/gen/android/hardware/graphics/bufferqueue/1.0/IGraphicBufferProducer.h"
  parameters {
    basic_abi {
      type_abi {
        name: "const int"
        size: 4
        alignment: 4
      }
      name: "lhs"
      access: public_access
      linker_set_key: "false"
    }
    default_arg: false
  }
  parameters {
    basic_abi {
      type_abi {
        name: "const android::hardware::graphics::bufferqueue::V1_0::IGraphicBufferProducer::DisconnectMode"
      }
      name: "rhs"
      access: public_access
      linker_set_key: "false"
    }
    default_arg: false
  }
}
functions {
  basic_abi {
    type_abi {
      name: "int"
      size: 4
      alignment: 4
    }
    name: "android::hardware::graphics::bufferqueue::V1_0::operator|"
    access: public_access
    linker_set_key: "_ZN7android8hardware8graphics11bufferqueue4V1_0orENS3_22IGraphicBufferProducer14DisconnectModeEi"
  }
  mangled_function_name: "_ZN7android8hardware8graphics11bufferqueue4V1_0orENS3_22IGraphicBufferProducer14DisconnectModeEi"
  source_file: "/data/aosp/out/soong/.intermediates/hardware/interfaces/graphics/bufferqueue/1.0/android.hardware.graphics.bufferqueue@1.0_genc++_headers/gen/android/hardware/graphics/bufferqueue/1.0/IGraphicBufferProducer.h"
  parameters {
    basic_abi {
      type_abi {
        name: "const android::hardware::graphics::bufferqueue::V1_0::IGraphicBufferProducer::DisconnectMode"
      }
      name: "lhs"
      access: public_access
      linker_set_key: "false"
    }
    default_arg: false
  }
  parameters {
    basic_abi {
      type_abi {
        name: "const int"
        size: 4
        alignment: 4
      }
      name: "rhs"
      access: public_access
      linker_set_key: "false"
    }
    default_arg: false
  }
}
functions {
  basic_abi {
    type_abi {
      name: "int"
      size: 4
      alignment: 4
    }
    name: "android::hardware::graphics::bufferqueue::V1_0::operator&"
    access: public_access
    linker_set_key: "_ZN7android8hardware8graphics11bufferqueue4V1_0anENS3_22IGraphicBufferProducer14DisconnectModeES5_"
  }
  mangled_function_name: "_ZN7android8hardware8graphics11bufferqueue4V1_0anENS3_22IGraphicBufferProducer14DisconnectModeES5_"
  source_file: "/data/aosp/out/soong/.intermediates/hardware/interfaces/graphics/bufferqueue/1.0/android.hardware.graphics.bufferqueue@1.0_genc++_headers/gen/android/hardware/graphics/bufferqueue/1.0/IGraphicBufferProducer.h"
  parameters {
    basic_abi {
      type_abi {
        name: "const android::hardware::graphics::bufferqueue::V1_0::IGraphicBufferProducer::DisconnectMode"
      }
      name: "lhs"
      access: public_access
      linker_set_key: "false"
    }
    default_arg: false
  }
  parameters {
    basic_abi {
      type_abi {
        name: "const android::hardware::graphics::bufferqueue::V1_0::IGraphicBufferProducer::DisconnectMode"
      }
      name: "rhs"
      access: public_access
      linker_set_key: "false"
    }
    default_arg: false
  }
}
functions {
  basic_abi {
    type_abi {
      name: "int"
      size: 4
      alignment: 4
    }
    name: "android::hardware::graphics::bufferqueue::V1_0::operator&"
    access: public_access
    linker_set_key: "_ZN7android8hardware8graphics11bufferqueue4V1_0anEiNS3_22IGraphicBufferProducer14DisconnectModeE"
  }
  mangled_function_name: "_ZN7android8hardware8graphics11bufferqueue4V1_0anEiNS3_22IGraphicBufferProducer14DisconnectModeE"
  source_file: "/data/aosp/out/soong/.intermediates/hardware/interfaces/graphics/bufferqueue/1.0/android.hardware.graphics.bufferqueue@1.0_genc++_headers/gen/android/hardware/graphics/bufferqueue/1.0/IGraphicBufferProducer.h"
  parameters {
    basic_abi {
      type_abi {
        name: "const int"
        size: 4
        alignment: 4
      }
      name: "lhs"
      access: public_access
      linker_set_key: "false"
    }
    default_arg: false
  }
  parameters {
    basic_abi {
      type_abi {
        name: "const android::hardware::graphics::bufferqueue::V1_0::IGraphicBufferProducer::DisconnectMode"
      }
      name: "rhs"
      access: public_access
      linker_set_key: "false"
    }
    default_arg: false
  }
}
functions {
  basic_abi {
    type_abi {
      name: "int"
      size: 4
      alignment: 4
    }
    name: "android::hardware::graphics::bufferqueue::V1_0::operator&"
    access: public_access
    linker_set_key: "_ZN7android8hardware8graphics11bufferqueue4V1_0anENS3_22IGraphicBufferProducer14DisconnectModeEi"
  }
  mangled_function_name: "_ZN7android8hardware8graphics11bufferqueue4V1_0anENS3_22IGraphicBufferProducer14DisconnectModeEi"
  source_file: "/data/aosp/out/soong/.intermediates/hardware/interfaces/graphics/bufferqueue/1.0/android.hardware.graphics.bufferqueue@1.0_genc++_headers/gen/android/hardware/graphics/bufferqueue/1.0/IGraphicBufferProducer.h"
  parameters {
    basic_abi {
      type_abi {
        name: "const android::hardware::graphics::bufferqueue::V1_0::IGraphicBufferProducer::DisconnectMode"
      }
      name: "lhs"
      access: public_access
      linker_set_key: "false"
    }
    default_arg: false
  }
  parameters {
    basic_abi {
      type_abi {
        name: "const int"
        size: 4
        alignment: 4
      }
      name: "rhs"
      access: public_access
      linker_set_key: "false"
    }
    default_arg: false
  }
}
functions {
  basic_abi {
    type_abi {
      name: "int &"
    }
    name: "android::hardware::graphics::bufferqueue::V1_0::operator|="
    access: public_access
    linker_set_key: "_ZN7android8hardware8graphics11bufferqueue4V1_0oRERiNS3_22IGraphicBufferProducer14DisconnectModeE"
  }
  mangled_function_name: "_ZN7android8hardware8graphics11bufferqueue4V1_0oRERiNS3_22IGraphicBufferProducer14DisconnectModeE"
  source_file: "/data/aosp/out/soong/.intermediates/hardware/interfaces/graphics/bufferqueue/1.0/android.hardware.graphics.bufferqueue@1.0_genc++_headers/gen/android/hardware/graphics/bufferqueue/1.0/IGraphicBufferProducer.h"
  parameters {
    basic_abi {
      type_abi {
        name: "int &"
      }
      name: "v"
      access: public_access
      linker_set_key: "false"
    }
    default_arg: false
  }
  parameters {
    basic_abi {
      type_abi {
        name: "const android::hardware::graphics::bufferqueue::V1_0::IGraphicBufferProducer::DisconnectMode"
      }
      name: "e"
      access: public_access
      linker_set_key: "false"
    }
    default_arg: false
  }
}
functions {
  basic_abi {
    type_abi {
      name: "int &"
    }
    name: "android::hardware::graphics::bufferqueue::V1_0::operator&="
    access: public_access
    linker_set_key: "_ZN7android8hardware8graphics11bufferqueue4V1_0aNERiNS3_22IGraphicBufferProducer14DisconnectModeE"
  }
  mangled_function_name: "_ZN7android8hardware8graphics11bufferqueue4V1_0aNERiNS3_22IGraphicBufferProducer14DisconnectModeE"
  source_file: "/data/aosp/out/soong/.intermediates/hardware/interfaces/graphics/bufferqueue/1.0/android.hardware.graphics.bufferqueue@1.0_genc++_headers/gen/android/hardware/graphics/bufferqueue/1.0/IGraphicBufferProducer.h"
  parameters {
    basic_abi {
      type_abi {
        name: "int &"
      }
      name: "v"
      access: public_access
      linker_set_key: "false"
    }
    default_arg: false
  }
  parameters {
    basic_abi {
      type_abi {
        name: "const android::hardware::graphics::bufferqueue::V1_0::IGraphicBufferProducer::DisconnectMode"
      }
      name: "e"
      access: public_access
      linker_set_key: "false"
    }
    default_arg: false
  }
}
functions {
  basic_abi {
    type_abi {
      name: "std::basic_string<char, std::char_traits<char>, std::allocator<char> >"
    }
    name: "android::hardware::graphics::bufferqueue::V1_0::toString"
    access: public_access
    linker_set_key: "_ZN7android8hardware8graphics11bufferqueue4V1_08toStringINS3_22IGraphicBufferProducer14DisconnectModeEEENSt3__112basic_stringIcNS7_11char_traitsIcEENS7_9allocatorIcEEEEi"
  }
  mangled_function_name: "_ZN7android8hardware8graphics11bufferqueue4V1_08toStringINS3_22IGraphicBufferProducer14DisconnectModeEEENSt3__112basic_stringIcNS7_11char_traitsIcEENS7_9allocatorIcEEEEi"
  source_file: "/data/aosp/out/soong/.intermediates/hardware/interfaces/graphics/bufferqueue/1.0/android.hardware.graphics.bufferqueue@1.0_genc++_headers/gen/android/hardware/graphics/bufferqueue/1.0/IGraphicBufferProducer.h"
  parameters {
    basic_abi {
      type_abi {
        name: "int"
        size: 4
        alignment: 4
      }
      name: "o"
      access: public_access
      linker_set_key: "false"
    }
    default_arg: false
  }
  template_info {
    elements {
      basic_abi {
        type_abi {
          name: "android::hardware::graphics::bufferqueue::V1_0::IGraphicBufferProducer::DisconnectMode"
        }
        linker_set_key: "android::hardware::graphics::bufferqueue::V1_0::IGraphicBufferProducer::DisconnectMode"
      }
    }
  }
}
functions {
  basic_abi {
    type_abi {
      name: "std::basic_string<char, std::char_traits<char>, std::allocator<char> >"
    }
    name: "android::hardware::graphics::bufferqueue::V1_0::toString"
    access: public_access
    linker_set_key: "_ZN7android8hardware8graphics11bufferqueue4V1_08toStringENS3_22IGraphicBufferProducer14DisconnectModeE"
  }
  mangled_function_name: "_ZN7android8hardware8graphics11bufferqueue4V1_08toStringENS3_22IGraphicBufferProducer14DisconnectModeE"
  source_file: "/data/aosp/out/soong/.intermediates/hardware/interfaces/graphics/bufferqueue/1.0/android.hardware.graphics.bufferqueue@1.0_genc++_headers/gen/android/hardware/graphics/bufferqueue/1.0/IGraphicBufferProducer.h"
  parameters {
    basic_abi {
      type_abi {
        name: "android::hardware::graphics::bufferqueue::V1_0::IGraphicBufferProducer::DisconnectMode"
      }
      name: "o"
      access: public_access
      linker_set_key: "false"
    }
    default_arg: false
  }
}
functions {
  basic_abi {
    type_abi {
      name: "std::basic_string<char, std::char_traits<char>, std::allocator<char> >"
    }
    name: "android::hardware::graphics::bufferqueue::V1_0::toString"
    access: public_access
    linker_set_key: "_ZN7android8hardware8graphics11bufferqueue4V1_08toStringERKNS3_22IGraphicBufferProducer16QueueBufferInputE"
  }
  mangled_function_name: "_ZN7android8hardware8graphics11bufferqueue4V1_08toStringERKNS3_22IGraphicBufferProducer16QueueBufferInputE"
  source_file: "/data/aosp/out/soong/.intermediates/hardware/interfaces/graphics/bufferqueue/1.0/android.hardware.graphics.bufferqueue@1.0_genc++_headers/gen/android/hardware/graphics/bufferqueue/1.0/IGraphicBufferProducer.h"
  parameters {
    basic_abi {
      type_abi {
        name: "const android::hardware::graphics::bufferqueue::V1_0::IGraphicBufferProducer::QueueBufferInput &"
      }
      name: ""
      access: public_access
      linker_set_key: "false"
    }
    default_arg: false
  }
}
functions {
  basic_abi {
    type_abi {
      name: "std::basic_string<char, std::char_traits<char>, std::allocator<char> >"
    }
    name: "android::hardware::graphics::bufferqueue::V1_0::toString"
    access: public_access
    linker_set_key: "_ZN7android8hardware8graphics11bufferqueue4V1_08toStringERKNS3_22IGraphicBufferProducer17QueueBufferOutputE"
  }
  mangled_function_name: "_ZN7android8hardware8graphics11bufferqueue4V1_08toStringERKNS3_22IGraphicBufferProducer17QueueBufferOutputE"
  source_file: "/data/aosp/out/soong/.intermediates/hardware/interfaces/graphics/bufferqueue/1.0/android.hardware.graphics.bufferqueue@1.0_genc++_headers/gen/android/hardware/graphics/bufferqueue/1.0/IGraphicBufferProducer.h"
  parameters {
    basic_abi {
      type_abi {
        name: "const android::hardware::graphics::bufferqueue::V1_0::IGraphicBufferProducer::QueueBufferOutput &"
      }
      name: ""
      access: public_access
      linker_set_key: "false"
    }
    default_arg: false
  }
}
functions {
  basic_abi {
    type_abi {
      name: "std::basic_string<char, std::char_traits<char>, std::allocator<char> >"
    }
    name: "android::hardware::graphics::bufferqueue::V1_0::toString"
    access: public_access
    linker_set_key: "_ZN7android8hardware8graphics11bufferqueue4V1_08toStringERKNS_2spINS3_22IGraphicBufferProducerEEE"
  }
  mangled_function_name: "_ZN7android8hardware8graphics11bufferqueue4V1_08toStringERKNS_2spINS3_22IGraphicBufferProducerEEE"
  source_file: "/data/aosp/out/soong/.intermediates/hardware/interfaces/graphics/bufferqueue/1.0/android.hardware.graphics.bufferqueue@1.0_genc++_headers/gen/android/hardware/graphics/bufferqueue/1.0/IGraphicBufferProducer.h"
  parameters {
    basic_abi {
      type_abi {
        name: "const android::sp<android::hardware::graphics::bufferqueue::V1_0::IGraphicBufferProducer> &"
      }
      name: ""
      access: public_access
      linker_set_key: "false"
    }
    default_arg: false
  }
}
functions {
  basic_abi {
    type_abi {
      name: "void"
    }
    name: "android::hardware::graphics::bufferqueue::V1_0::BnHwProducerListener::BnHwProducerListener"
    access: public_access
    linker_set_key: "_ZN7android8hardware8graphics11bufferqueue4V1_020BnHwProducerListenerC2ERKNS_2spINS3_17IProducerListenerEEE"
  }
  mangled_function_name: "_ZN7android8hardware8graphics11bufferqueue4V1_020BnHwProducerListenerC2ERKNS_2spINS3_17IProducerListenerEEE"
  source_file: "/data/aosp/out/soong/.intermediates/hardware/interfaces/graphics/bufferqueue/1.0/android.hardware.graphics.bufferqueue@1.0_genc++_headers/gen/android/hardware/graphics/bufferqueue/1.0/BnHwProducerListener.h"
  parameters {
    basic_abi {
      type_abi {
        name: "const android::sp<android::hardware::graphics::bufferqueue::V1_0::IProducerListener> &"
      }
      name: "_hidl_impl"
      access: public_access
      linker_set_key: "false"
    }
    default_arg: false
  }
}
functions {
  basic_abi {
    type_abi {
      name: "void"
    }
    name: "android::hardware::graphics::bufferqueue::V1_0::BnHwProducerListener::BnHwProducerListener"
    access: public_access
    linker_set_key: "_ZN7android8hardware8graphics11bufferqueue4V1_020BnHwProducerListenerC1ERKNS_2spINS3_17IProducerListenerEEE"
  }
  mangled_function_name: "_ZN7android8hardware8graphics11bufferqueue4V1_020BnHwProducerListenerC1ERKNS_2spINS3_17IProducerListenerEEE"
  source_file: "/data/aosp/out/soong/.intermediates/hardware/interfaces/graphics/bufferqueue/1.0/android.hardware.graphics.bufferqueue@1.0_genc++_headers/gen/android/hardware/graphics/bufferqueue/1.0/BnHwProducerListener.h"
  parameters {
    basic_abi {
      type_abi {
        name: "const android::sp<android::hardware::graphics::bufferqueue::V1_0::IProducerListener> &"
      }
      name: "_hidl_impl"
      access: public_access
      linker_set_key: "false"
    }
    default_arg: false
  }
}
functions {
  basic_abi {
    type_abi {
      name: "void"
    }
    name: "android::hardware::graphics::bufferqueue::V1_0::BnHwProducerListener::BnHwProducerListener"
    access: public_access
    linker_set_key: "_ZN7android8hardware8graphics11bufferqueue4V1_020BnHwProducerListenerC2ERKNS_2spINS3_17IProducerListenerEEERKNSt3__112basic_stringIcNSA_11char_traitsIcEENSA_9allocatorIcEEEESI_"
  }
  mangled_function_name: "_ZN7android8hardware8graphics11bufferqueue4V1_020BnHwProducerListenerC2ERKNS_2spINS3_17IProducerListenerEEERKNSt3__112basic_stringIcNSA_11char_traitsIcEENSA_9allocatorIcEEEESI_"
  source_file: "/data/aosp/out/soong/.intermediates/hardware/interfaces/graphics/bufferqueue/1.0/android.hardware.graphics.bufferqueue@1.0_genc++_headers/gen/android/hardware/graphics/bufferqueue/1.0/BnHwProducerListener.h"
  parameters {
    basic_abi {
      type_abi {
        name: "const android::sp<android::hardware::graphics::bufferqueue::V1_0::IProducerListener> &"
      }
      name: "_hidl_impl"
      access: public_access
      linker_set_key: "false"
    }
    default_arg: false
  }
  parameters {
    basic_abi {
      type_abi {
        name: "const std::basic_string<char, std::char_traits<char>, std::allocator<char> > &"
      }
      name: "HidlInstrumentor_package"
      access: public_access
      linker_set_key: "false"
    }
    default_arg: false
  }
  parameters {
    basic_abi {
      type_abi {
        name: "const std::basic_string<char, std::char_traits<char>, std::allocator<char> > &"
      }
      name: "HidlInstrumentor_interface"
      access: public_access
      linker_set_key: "false"
    }
    default_arg: false
  }
}
functions {
  basic_abi {
    type_abi {
      name: "void"
    }
    name: "android::hardware::graphics::bufferqueue::V1_0::BnHwProducerListener::BnHwProducerListener"
    access: public_access
    linker_set_key: "_ZN7android8hardware8graphics11bufferqueue4V1_020BnHwProducerListenerC1ERKNS_2spINS3_17IProducerListenerEEERKNSt3__112basic_stringIcNSA_11char_traitsIcEENSA_9allocatorIcEEEESI_"
  }
  mangled_function_name: "_ZN7android8hardware8graphics11bufferqueue4V1_020BnHwProducerListenerC1ERKNS_2spINS3_17IProducerListenerEEERKNSt3__112basic_stringIcNSA_11char_traitsIcEENSA_9allocatorIcEEEESI_"
  source_file: "/data/aosp/out/soong/.intermediates/hardware/interfaces/graphics/bufferqueue/1.0/android.hardware.graphics.bufferqueue@1.0_genc++_headers/gen/android/hardware/graphics/bufferqueue/1.0/BnHwProducerListener.h"
  parameters {
    basic_abi {
      type_abi {
        name: "const android::sp<android::hardware::graphics::bufferqueue::V1_0::IProducerListener> &"
      }
      name: "_hidl_impl"
      access: public_access
      linker_set_key: "false"
    }
    default_arg: false
  }
  parameters {
    basic_abi {
      type_abi {
        name: "const std::basic_string<char, std::char_traits<char>, std::allocator<char> > &"
      }
      name: "HidlInstrumentor_package"
      access: public_access
      linker_set_key: "false"
    }
    default_arg: false
  }
  parameters {
    basic_abi {
      type_abi {
        name: "const std::basic_string<char, std::char_traits<char>, std::allocator<char> > &"
      }
      name: "HidlInstrumentor_interface"
      access: public_access
      linker_set_key: "false"
    }
    default_arg: false
  }
}
functions {
  basic_abi {
    type_abi {
      name: "void"
    }
    name: "android::hardware::graphics::bufferqueue::V1_0::BnHwProducerListener::~BnHwProducerListener"
    access: public_access
    linker_set_key: "_ZN7android8hardware8graphics11bufferqueue4V1_020BnHwProducerListenerD2Ev"
  }
  mangled_function_name: "_ZN7android8hardware8graphics11bufferqueue4V1_020BnHwProducerListenerD2Ev"
  source_file: "/data/aosp/out/soong/.intermediates/hardware/interfaces/graphics/bufferqueue/1.0/android.hardware.graphics.bufferqueue@1.0_genc++_headers/gen/android/hardware/graphics/bufferqueue/1.0/BnHwProducerListener.h"
}
functions {
  basic_abi {
    type_abi {
      name: "void"
    }
    name: "android::hardware::graphics::bufferqueue::V1_0::BnHwProducerListener::~BnHwProducerListener"
    access: public_access
    linker_set_key: "_ZN7android8hardware8graphics11bufferqueue4V1_020BnHwProducerListenerD1Ev"
  }
  mangled_function_name: "_ZN7android8hardware8graphics11bufferqueue4V1_020BnHwProducerListenerD1Ev"
  source_file: "/data/aosp/out/soong/.intermediates/hardware/interfaces/graphics/bufferqueue/1.0/android.hardware.graphics.bufferqueue@1.0_genc++_headers/gen/android/hardware/graphics/bufferqueue/1.0/BnHwProducerListener.h"
}
functions {
  basic_abi {
    type_abi {
      name: "void"
    }
    name: "android::hardware::graphics::bufferqueue::V1_0::BnHwProducerListener::~BnHwProducerListener"
    access: public_access
    linker_set_key: "_ZN7android8hardware8graphics11bufferqueue4V1_020BnHwProducerListenerD0Ev"
  }
  mangled_function_name: "_ZN7android8hardware8graphics11bufferqueue4V1_020BnHwProducerListenerD0Ev"
  source_file: "/data/aosp/out/soong/.intermediates/hardware/interfaces/graphics/bufferqueue/1.0/android.hardware.graphics.bufferqueue@1.0_genc++_headers/gen/android/hardware/graphics/bufferqueue/1.0/BnHwProducerListener.h"
}
functions {
  basic_abi {
    type_abi {
      name: "int"
      size: 4
      alignment: 4
    }
    name: "android::hardware::graphics::bufferqueue::V1_0::BnHwProducerListener::onTransact"
    access: public_access
    linker_set_key: "_ZN7android8hardware8graphics11bufferqueue4V1_020BnHwProducerListener10onTransactEjRKNS0_6ParcelEPS5_jNSt3__18functionIFvRS5_EEE"
  }
  mangled_function_name: "_ZN7android8hardware8graphics11bufferqueue4V1_020BnHwProducerListener10onTransactEjRKNS0_6ParcelEPS5_jNSt3__18functionIFvRS5_EEE"
  source_file: "/data/aosp/out/soong/.intermediates/hardware/interfaces/graphics/bufferqueue/1.0/android.hardware.graphics.bufferqueue@1.0_genc++_headers/gen/android/hardware/graphics/bufferqueue/1.0/BnHwProducerListener.h"
  parameters {
    basic_abi {
      type_abi {
        name: "unsigned int"
        size: 4
        alignment: 4
      }
      name: "_hidl_code"
      access: public_access
      linker_set_key: "false"
    }
    default_arg: false
  }
  parameters {
    basic_abi {
      type_abi {
        name: "const android::hardware::Parcel &"
      }
      name: "_hidl_data"
      access: public_access
      linker_set_key: "false"
    }
    default_arg: false
  }
  parameters {
    basic_abi {
      type_abi {
        name: "android::hardware::Parcel *"
        size: 4
        alignment: 4
      }
      name: "_hidl_reply"
      access: public_access
      linker_set_key: "false"
    }
    default_arg: false
  }
  parameters {
    basic_abi {
      type_abi {
        name: "unsigned int"
        size: 4
        alignment: 4
      }
      name: "_hidl_flags"
      access: public_access
      linker_set_key: "true"
    }
    default_arg: true
  }
  parameters {
    basic_abi {
      type_abi {
        name: "std::function<void (Parcel &)>"
      }
      name: "_hidl_cb"
      access: public_access
      linker_set_key: "true"
    }
    default_arg: true
  }
}
functions {
  basic_abi {
    type_abi {
      name: "android::sp<android::hardware::graphics::bufferqueue::V1_0::IProducerListener>"
    }
    name: "android::hardware::graphics::bufferqueue::V1_0::BnHwProducerListener::getImpl"
    access: public_access
    linker_set_key: "_ZN7android8hardware8graphics11bufferqueue4V1_020BnHwProducerListener7getImplEv"
  }
  mangled_function_name: "_ZN7android8hardware8graphics11bufferqueue4V1_020BnHwProducerListener7getImplEv"
  source_file: "/data/aosp/out/soong/.intermediates/hardware/interfaces/graphics/bufferqueue/1.0/android.hardware.graphics.bufferqueue@1.0_genc++_headers/gen/android/hardware/graphics/bufferqueue/1.0/BnHwProducerListener.h"
}
functions {
  basic_abi {
    type_abi {
      name: "int"
      size: 4
      alignment: 4
    }
    name: "android::hardware::graphics::bufferqueue::V1_0::BnHwProducerListener::_hidl_onBufferReleased"
    access: public_access
    linker_set_key: "_ZN7android8hardware8graphics11bufferqueue4V1_020BnHwProducerListener22_hidl_onBufferReleasedEPNS_4hidl4base4V1_08BnHwBaseERKNS0_6ParcelEPSA_NSt3__18functionIFvRSA_EEE"
  }
  mangled_function_name: "_ZN7android8hardware8graphics11bufferqueue4V1_020BnHwProducerListener22_hidl_onBufferReleasedEPNS_4hidl4base4V1_08BnHwBaseERKNS0_6ParcelEPSA_NSt3__18functionIFvRSA_EEE"
  source_file: "/data/aosp/out/soong/.intermediates/hardware/interfaces/graphics/bufferqueue/1.0/android.hardware.graphics.bufferqueue@1.0_genc++_headers/gen/android/hardware/graphics/bufferqueue/1.0/BnHwProducerListener.h"
  parameters {
    basic_abi {
      type_abi {
        name: "android::hidl::base::V1_0::BnHwBase *"
        size: 4
        alignment: 4
      }
      name: "_hidl_this"
      access: public_access
      linker_set_key: "false"
    }
    default_arg: false
  }
  parameters {
    basic_abi {
      type_abi {
        name: "const android::hardware::Parcel &"
      }
      name: "_hidl_data"
      access: public_access
      linker_set_key: "false"
    }
    default_arg: false
  }
  parameters {
    basic_abi {
      type_abi {
        name: "android::hardware::Parcel *"
        size: 4
        alignment: 4
      }
      name: "_hidl_reply"
      access: public_access
      linker_set_key: "false"
    }
    default_arg: false
  }
  parameters {
    basic_abi {
      type_abi {
        name: "std::function<void (Parcel &)>"
      }
      name: "_hidl_cb"
      access: public_access
      linker_set_key: "false"
    }
    default_arg: false
  }
}
functions {
  basic_abi {
    type_abi {
      name: "int"
      size: 4
      alignment: 4
    }
    name: "android::hardware::graphics::bufferqueue::V1_0::BnHwProducerListener::_hidl_needsReleaseNotify"
    access: public_access
    linker_set_key: "_ZN7android8hardware8graphics11bufferqueue4V1_020BnHwProducerListener24_hidl_needsReleaseNotifyEPNS_4hidl4base4V1_08BnHwBaseERKNS0_6ParcelEPSA_NSt3__18functionIFvRSA_EEE"
  }
  mangled_function_name: "_ZN7android8hardware8graphics11bufferqueue4V1_020BnHwProducerListener24_hidl_needsReleaseNotifyEPNS_4hidl4base4V1_08BnHwBaseERKNS0_6ParcelEPSA_NSt3__18functionIFvRSA_EEE"
  source_file: "/data/aosp/out/soong/.intermediates/hardware/interfaces/graphics/bufferqueue/1.0/android.hardware.graphics.bufferqueue@1.0_genc++_headers/gen/android/hardware/graphics/bufferqueue/1.0/BnHwProducerListener.h"
  parameters {
    basic_abi {
      type_abi {
        name: "android::hidl::base::V1_0::BnHwBase *"
        size: 4
        alignment: 4
      }
      name: "_hidl_this"
      access: public_access
      linker_set_key: "false"
    }
    default_arg: false
  }
  parameters {
    basic_abi {
      type_abi {
        name: "const android::hardware::Parcel &"
      }
      name: "_hidl_data"
      access: public_access
      linker_set_key: "false"
    }
    default_arg: false
  }
  parameters {
    basic_abi {
      type_abi {
        name: "android::hardware::Parcel *"
        size: 4
        alignment: 4
      }
      name: "_hidl_reply"
      access: public_access
      linker_set_key: "false"
    }
    default_arg: false
  }
  parameters {
    basic_abi {
      type_abi {
        name: "std::function<void (Parcel &)>"
      }
      name: "_hidl_cb"
      access: public_access
      linker_set_key: "false"
    }
    default_arg: false
  }
}
functions {
  basic_abi {
    type_abi {
      name: "android::hardware::Return<void>"
    }
    name: "android::hardware::graphics::bufferqueue::V1_0::BnHwProducerListener::ping"
    access: private_access
    linker_set_key: "_ZN7android8hardware8graphics11bufferqueue4V1_020BnHwProducerListener4pingEv"
  }
  mangled_function_name: "_ZN7android8hardware8graphics11bufferqueue4V1_020BnHwProducerListener4pingEv"
  source_file: "/data/aosp/out/soong/.intermediates/hardware/interfaces/graphics/bufferqueue/1.0/android.hardware.graphics.bufferqueue@1.0_genc++_headers/gen/android/hardware/graphics/bufferqueue/1.0/BnHwProducerListener.h"
}
functions {
  basic_abi {
    type_abi {
      name: "android::hardware::Return<void>"
    }
    name: "android::hardware::graphics::bufferqueue::V1_0::BnHwProducerListener::getDebugInfo"
    access: private_access
    linker_set_key: "_ZN7android8hardware8graphics11bufferqueue4V1_020BnHwProducerListener12getDebugInfoENSt3__18functionIFvRKNS_4hidl4base4V1_09DebugInfoEEEE"
  }
  mangled_function_name: "_ZN7android8hardware8graphics11bufferqueue4V1_020BnHwProducerListener12getDebugInfoENSt3__18functionIFvRKNS_4hidl4base4V1_09DebugInfoEEEE"
  source_file: "/data/aosp/out/soong/.intermediates/hardware/interfaces/graphics/bufferqueue/1.0/android.hardware.graphics.bufferqueue@1.0_genc++_headers/gen/android/hardware/graphics/bufferqueue/1.0/BnHwProducerListener.h"
  parameters {
    basic_abi {
      type_abi {
        name: "std::function<void (const DebugInfo &)>"
      }
      name: "_hidl_cb"
      access: public_access
      linker_set_key: "false"
    }
    default_arg: false
  }
}
functions {
  basic_abi {
    type_abi {
      name: "void"
    }
    name: "android::hardware::graphics::bufferqueue::V1_0::BpHwProducerListener::BpHwProducerListener"
    access: public_access
    linker_set_key: "_ZN7android8hardware8graphics11bufferqueue4V1_020BpHwProducerListenerC2ERKNS_2spINS0_7IBinderEEE"
  }
  mangled_function_name: "_ZN7android8hardware8graphics11bufferqueue4V1_020BpHwProducerListenerC2ERKNS_2spINS0_7IBinderEEE"
  source_file: "/data/aosp/out/soong/.intermediates/hardware/interfaces/graphics/bufferqueue/1.0/android.hardware.graphics.bufferqueue@1.0_genc++_headers/gen/android/hardware/graphics/bufferqueue/1.0/BpHwProducerListener.h"
  parameters {
    basic_abi {
      type_abi {
        name: "const android::sp<android::hardware::IBinder> &"
      }
      name: "_hidl_impl"
      access: public_access
      linker_set_key: "false"
    }
    default_arg: false
  }
}
functions {
  basic_abi {
    type_abi {
      name: "void"
    }
    name: "android::hardware::graphics::bufferqueue::V1_0::BpHwProducerListener::BpHwProducerListener"
    access: public_access
    linker_set_key: "_ZN7android8hardware8graphics11bufferqueue4V1_020BpHwProducerListenerC1ERKNS_2spINS0_7IBinderEEE"
  }
  mangled_function_name: "_ZN7android8hardware8graphics11bufferqueue4V1_020BpHwProducerListenerC1ERKNS_2spINS0_7IBinderEEE"
  source_file: "/data/aosp/out/soong/.intermediates/hardware/interfaces/graphics/bufferqueue/1.0/android.hardware.graphics.bufferqueue@1.0_genc++_headers/gen/android/hardware/graphics/bufferqueue/1.0/BpHwProducerListener.h"
  parameters {
    basic_abi {
      type_abi {
        name: "const android::sp<android::hardware::IBinder> &"
      }
      name: "_hidl_impl"
      access: public_access
      linker_set_key: "false"
    }
    default_arg: false
  }
}
functions {
  basic_abi {
    type_abi {
      name: "bool"
      size: 1
      alignment: 1
    }
    name: "android::hardware::graphics::bufferqueue::V1_0::BpHwProducerListener::isRemote"
    access: public_access
    linker_set_key: "_ZNK7android8hardware8graphics11bufferqueue4V1_020BpHwProducerListener8isRemoteEv"
  }
  mangled_function_name: "_ZNK7android8hardware8graphics11bufferqueue4V1_020BpHwProducerListener8isRemoteEv"
  source_file: "/data/aosp/out/soong/.intermediates/hardware/interfaces/graphics/bufferqueue/1.0/android.hardware.graphics.bufferqueue@1.0_genc++_headers/gen/android/hardware/graphics/bufferqueue/1.0/BpHwProducerListener.h"
}
functions {
  basic_abi {
    type_abi {
      name: "android::hardware::Return<void>"
    }
    name: "android::hardware::graphics::bufferqueue::V1_0::BpHwProducerListener::_hidl_onBufferReleased"
    access: public_access
    linker_set_key: "_ZN7android8hardware8graphics11bufferqueue4V1_020BpHwProducerListener22_hidl_onBufferReleasedEPNS0_10IInterfaceEPNS0_7details16HidlInstrumentorE"
  }
  mangled_function_name: "_ZN7android8hardware8graphics11bufferqueue4V1_020BpHwProducerListener22_hidl_onBufferReleasedEPNS0_10IInterfaceEPNS0_7details16HidlInstrumentorE"
  source_file: "/data/aosp/out/soong/.intermediates/hardware/interfaces/graphics/bufferqueue/1.0/android.hardware.graphics.bufferqueue@1.0_genc++_headers/gen/android/hardware/graphics/bufferqueue/1.0/BpHwProducerListener.h"
  parameters {
    basic_abi {
      type_abi {
        name: "android::hardware::IInterface *"
        size: 4
        alignment: 4
      }
      name: "_hidl_this"
      access: public_access
      linker_set_key: "false"
    }
    default_arg: false
  }
  parameters {
    basic_abi {
      type_abi {
        name: "android::hardware::details::HidlInstrumentor *"
        size: 4
        alignment: 4
      }
      name: "_hidl_this_instrumentor"
      access: public_access
      linker_set_key: "false"
    }
    default_arg: false
  }
}
functions {
  basic_abi {
    type_abi {
      name: "android::hardware::Return<bool>"
    }
    name: "android::hardware::graphics::bufferqueue::V1_0::BpHwProducerListener::_hidl_needsReleaseNotify"
    access: public_access
    linker_set_key: "_ZN7android8hardware8graphics11bufferqueue4V1_020BpHwProducerListener24_hidl_needsReleaseNotifyEPNS0_10IInterfaceEPNS0_7details16HidlInstrumentorE"
  }
  mangled_function_name: "_ZN7android8hardware8graphics11bufferqueue4V1_020BpHwProducerListener24_hidl_needsReleaseNotifyEPNS0_10IInterfaceEPNS0_7details16HidlInstrumentorE"
  source_file: "/data/aosp/out/soong/.intermediates/hardware/interfaces/graphics/bufferqueue/1.0/android.hardware.graphics.bufferqueue@1.0_genc++_headers/gen/android/hardware/graphics/bufferqueue/1.0/BpHwProducerListener.h"
  parameters {
    basic_abi {
      type_abi {
        name: "android::hardware::IInterface *"
        size: 4
        alignment: 4
      }
      name: "_hidl_this"
      access: public_access
      linker_set_key: "false"
    }
    default_arg: false
  }
  parameters {
    basic_abi {
      type_abi {
        name: "android::hardware::details::HidlInstrumentor *"
        size: 4
        alignment: 4
      }
      name: "_hidl_this_instrumentor"
      access: public_access
      linker_set_key: "false"
    }
    default_arg: false
  }
}
functions {
  basic_abi {
    type_abi {
      name: "android::hardware::Return<void>"
    }
    name: "android::hardware::graphics::bufferqueue::V1_0::BpHwProducerListener::onBufferReleased"
    access: public_access
    linker_set_key: "_ZN7android8hardware8graphics11bufferqueue4V1_020BpHwProducerListener16onBufferReleasedEv"
  }
  mangled_function_name: "_ZN7android8hardware8graphics11bufferqueue4V1_020BpHwProducerListener16onBufferReleasedEv"
  source_file: "/data/aosp/out/soong/.intermediates/hardware/interfaces/graphics/bufferqueue/1.0/android.hardware.graphics.bufferqueue@1.0_genc++_headers/gen/android/hardware/graphics/bufferqueue/1.0/BpHwProducerListener.h"
}
functions {
  basic_abi {
    type_abi {
      name: "android::hardware::Return<bool>"
    }
    name: "android::hardware::graphics::bufferqueue::V1_0::BpHwProducerListener::needsReleaseNotify"
    access: public_access
    linker_set_key: "_ZN7android8hardware8graphics11bufferqueue4V1_020BpHwProducerListener18needsReleaseNotifyEv"
  }
  mangled_function_name: "_ZN7android8hardware8graphics11bufferqueue4V1_020BpHwProducerListener18needsReleaseNotifyEv"
  source_file: "/data/aosp/out/soong/.intermediates/hardware/interfaces/graphics/bufferqueue/1.0/android.hardware.graphics.bufferqueue@1.0_genc++_headers/gen/android/hardware/graphics/bufferqueue/1.0/BpHwProducerListener.h"
}
functions {
  basic_abi {
    type_abi {
      name: "android::hardware::Return<void>"
    }
    name: "android::hardware::graphics::bufferqueue::V1_0::BpHwProducerListener::interfaceChain"
    access: public_access
    linker_set_key: "_ZN7android8hardware8graphics11bufferqueue4V1_020BpHwProducerListener14interfaceChainENSt3__18functionIFvRKNS0_8hidl_vecINS0_11hidl_stringEEEEEE"
  }
  mangled_function_name: "_ZN7android8hardware8graphics11bufferqueue4V1_020BpHwProducerListener14interfaceChainENSt3__18functionIFvRKNS0_8hidl_vecINS0_11hidl_stringEEEEEE"
  source_file: "/data/aosp/out/soong/.intermediates/hardware/interfaces/graphics/bufferqueue/1.0/android.hardware.graphics.bufferqueue@1.0_genc++_headers/gen/android/hardware/graphics/bufferqueue/1.0/BpHwProducerListener.h"
  parameters {
    basic_abi {
      type_abi {
        name: "std::function<void (const hidl_vec<hidl_string> &)>"
      }
      name: "_hidl_cb"
      access: public_access
      linker_set_key: "false"
    }
    default_arg: false
  }
}
functions {
  basic_abi {
    type_abi {
      name: "android::hardware::Return<void>"
    }
    name: "android::hardware::graphics::bufferqueue::V1_0::BpHwProducerListener::debug"
    access: public_access
    linker_set_key: "_ZN7android8hardware8graphics11bufferqueue4V1_020BpHwProducerListener5debugERKNS0_11hidl_handleERKNS0_8hidl_vecINS0_11hidl_stringEEE"
  }
  mangled_function_name: "_ZN7android8hardware8graphics11bufferqueue4V1_020BpHwProducerListener5debugERKNS0_11hidl_handleERKNS0_8hidl_vecINS0_11hidl_stringEEE"
  source_file: "/data/aosp/out/soong/.intermediates/hardware/interfaces/graphics/bufferqueue/1.0/android.hardware.graphics.bufferqueue@1.0_genc++_headers/gen/android/hardware/graphics/bufferqueue/1.0/BpHwProducerListener.h"
  parameters {
    basic_abi {
      type_abi {
        name: "const android::hardware::hidl_handle &"
      }
      name: "fd"
      access: public_access
      linker_set_key: "false"
    }
    default_arg: false
  }
  parameters {
    basic_abi {
      type_abi {
        name: "const android::hardware::hidl_vec<android::hardware::hidl_string> &"
      }
      name: "options"
      access: public_access
      linker_set_key: "false"
    }
    default_arg: false
  }
}
functions {
  basic_abi {
    type_abi {
      name: "android::hardware::Return<void>"
    }
    name: "android::hardware::graphics::bufferqueue::V1_0::BpHwProducerListener::interfaceDescriptor"
    access: public_access
    linker_set_key: "_ZN7android8hardware8graphics11bufferqueue4V1_020BpHwProducerListener19interfaceDescriptorENSt3__18functionIFvRKNS0_11hidl_stringEEEE"
  }
  mangled_function_name: "_ZN7android8hardware8graphics11bufferqueue4V1_020BpHwProducerListener19interfaceDescriptorENSt3__18functionIFvRKNS0_11hidl_stringEEEE"
  source_file: "/data/aosp/out/soong/.intermediates/hardware/interfaces/graphics/bufferqueue/1.0/android.hardware.graphics.bufferqueue@1.0_genc++_headers/gen/android/hardware/graphics/bufferqueue/1.0/BpHwProducerListener.h"
  parameters {
    basic_abi {
      type_abi {
        name: "std::function<void (const hidl_string &)>"
      }
      name: "_hidl_cb"
      access: public_access
      linker_set_key: "false"
    }
    default_arg: false
  }
}
functions {
  basic_abi {
    type_abi {
      name: "android::hardware::Return<void>"
    }
    name: "android::hardware::graphics::bufferqueue::V1_0::BpHwProducerListener::getHashChain"
    access: public_access
    linker_set_key: "_ZN7android8hardware8graphics11bufferqueue4V1_020BpHwProducerListener12getHashChainENSt3__18functionIFvRKNS0_8hidl_vecINS0_10hidl_arrayIhLj32EJEEEEEEEE"
  }
  mangled_function_name: "_ZN7android8hardware8graphics11bufferqueue4V1_020BpHwProducerListener12getHashChainENSt3__18functionIFvRKNS0_8hidl_vecINS0_10hidl_arrayIhLj32EJEEEEEEEE"
  source_file: "/data/aosp/out/soong/.intermediates/hardware/interfaces/graphics/bufferqueue/1.0/android.hardware.graphics.bufferqueue@1.0_genc++_headers/gen/android/hardware/graphics/bufferqueue/1.0/BpHwProducerListener.h"
  parameters {
    basic_abi {
      type_abi {
        name: "std::function<void (const hidl_vec<hidl_array<unsigned char, 32> > &)>"
      }
      name: "_hidl_cb"
      access: public_access
      linker_set_key: "false"
    }
    default_arg: false
  }
}
functions {
  basic_abi {
    type_abi {
      name: "android::hardware::Return<void>"
    }
    name: "android::hardware::graphics::bufferqueue::V1_0::BpHwProducerListener::setHALInstrumentation"
    access: public_access
    linker_set_key: "_ZN7android8hardware8graphics11bufferqueue4V1_020BpHwProducerListener21setHALInstrumentationEv"
  }
  mangled_function_name: "_ZN7android8hardware8graphics11bufferqueue4V1_020BpHwProducerListener21setHALInstrumentationEv"
  source_file: "/data/aosp/out/soong/.intermediates/hardware/interfaces/graphics/bufferqueue/1.0/android.hardware.graphics.bufferqueue@1.0_genc++_headers/gen/android/hardware/graphics/bufferqueue/1.0/BpHwProducerListener.h"
}
functions {
  basic_abi {
    type_abi {
      name: "android::hardware::Return<bool>"
    }
    name: "android::hardware::graphics::bufferqueue::V1_0::BpHwProducerListener::linkToDeath"
    access: public_access
    linker_set_key: "_ZN7android8hardware8graphics11bufferqueue4V1_020BpHwProducerListener11linkToDeathERKNS_2spINS0_20hidl_death_recipientEEEy"
  }
  mangled_function_name: "_ZN7android8hardware8graphics11bufferqueue4V1_020BpHwProducerListener11linkToDeathERKNS_2spINS0_20hidl_death_recipientEEEy"
  source_file: "/data/aosp/out/soong/.intermediates/hardware/interfaces/graphics/bufferqueue/1.0/android.hardware.graphics.bufferqueue@1.0_genc++_headers/gen/android/hardware/graphics/bufferqueue/1.0/BpHwProducerListener.h"
  parameters {
    basic_abi {
      type_abi {
        name: "const android::sp<android::hardware::hidl_death_recipient> &"
      }
      name: "recipient"
      access: public_access
      linker_set_key: "false"
    }
    default_arg: false
  }
  parameters {
    basic_abi {
      type_abi {
        name: "unsigned long long"
        size: 8
        alignment: 8
      }
      name: "cookie"
      access: public_access
      linker_set_key: "false"
    }
    default_arg: false
  }
}
functions {
  basic_abi {
    type_abi {
      name: "android::hardware::Return<void>"
    }
    name: "android::hardware::graphics::bufferqueue::V1_0::BpHwProducerListener::ping"
    access: public_access
    linker_set_key: "_ZN7android8hardware8graphics11bufferqueue4V1_020BpHwProducerListener4pingEv"
  }
  mangled_function_name: "_ZN7android8hardware8graphics11bufferqueue4V1_020BpHwProducerListener4pingEv"
  source_file: "/data/aosp/out/soong/.intermediates/hardware/interfaces/graphics/bufferqueue/1.0/android.hardware.graphics.bufferqueue@1.0_genc++_headers/gen/android/hardware/graphics/bufferqueue/1.0/BpHwProducerListener.h"
}
functions {
  basic_abi {
    type_abi {
      name: "android::hardware::Return<void>"
    }
    name: "android::hardware::graphics::bufferqueue::V1_0::BpHwProducerListener::getDebugInfo"
    access: public_access
    linker_set_key: "_ZN7android8hardware8graphics11bufferqueue4V1_020BpHwProducerListener12getDebugInfoENSt3__18functionIFvRKNS_4hidl4base4V1_09DebugInfoEEEE"
  }
  mangled_function_name: "_ZN7android8hardware8graphics11bufferqueue4V1_020BpHwProducerListener12getDebugInfoENSt3__18functionIFvRKNS_4hidl4base4V1_09DebugInfoEEEE"
  source_file: "/data/aosp/out/soong/.intermediates/hardware/interfaces/graphics/bufferqueue/1.0/android.hardware.graphics.bufferqueue@1.0_genc++_headers/gen/android/hardware/graphics/bufferqueue/1.0/BpHwProducerListener.h"
  parameters {
    basic_abi {
      type_abi {
        name: "std::function<void (const DebugInfo &)>"
      }
      name: "_hidl_cb"
      access: public_access
      linker_set_key: "false"
    }
    default_arg: false
  }
}
functions {
  basic_abi {
    type_abi {
      name: "android::hardware::Return<void>"
    }
    name: "android::hardware::graphics::bufferqueue::V1_0::BpHwProducerListener::notifySyspropsChanged"
    access: public_access
    linker_set_key: "_ZN7android8hardware8graphics11bufferqueue4V1_020BpHwProducerListener21notifySyspropsChangedEv"
  }
  mangled_function_name: "_ZN7android8hardware8graphics11bufferqueue4V1_020BpHwProducerListener21notifySyspropsChangedEv"
  source_file: "/data/aosp/out/soong/.intermediates/hardware/interfaces/graphics/bufferqueue/1.0/android.hardware.graphics.bufferqueue@1.0_genc++_headers/gen/android/hardware/graphics/bufferqueue/1.0/BpHwProducerListener.h"
}
functions {
  basic_abi {
    type_abi {
      name: "android::hardware::Return<bool>"
    }
    name: "android::hardware::graphics::bufferqueue::V1_0::BpHwProducerListener::unlinkToDeath"
    access: public_access
    linker_set_key: "_ZN7android8hardware8graphics11bufferqueue4V1_020BpHwProducerListener13unlinkToDeathERKNS_2spINS0_20hidl_death_recipientEEE"
  }
  mangled_function_name: "_ZN7android8hardware8graphics11bufferqueue4V1_020BpHwProducerListener13unlinkToDeathERKNS_2spINS0_20hidl_death_recipientEEE"
  source_file: "/data/aosp/out/soong/.intermediates/hardware/interfaces/graphics/bufferqueue/1.0/android.hardware.graphics.bufferqueue@1.0_genc++_headers/gen/android/hardware/graphics/bufferqueue/1.0/BpHwProducerListener.h"
  parameters {
    basic_abi {
      type_abi {
        name: "const android::sp<android::hardware::hidl_death_recipient> &"
      }
      name: "recipient"
      access: public_access
      linker_set_key: "false"
    }
    default_arg: false
  }
}
functions {
  basic_abi {
    type_abi {
      name: "int"
      size: 4
      alignment: 4
    }
    name: "android::hardware::graphics::bufferqueue::V1_0::readEmbeddedFromParcel"
    access: public_access
    linker_set_key: "_ZN7android8hardware8graphics11bufferqueue4V1_022readEmbeddedFromParcelERKNS3_22IGraphicBufferProducer17FenceTimeSnapshotERKNS0_6ParcelEjj"
  }
  mangled_function_name: "_ZN7android8hardware8graphics11bufferqueue4V1_022readEmbeddedFromParcelERKNS3_22IGraphicBufferProducer17FenceTimeSnapshotERKNS0_6ParcelEjj"
  source_file: "/data/aosp/out/soong/.intermediates/hardware/interfaces/graphics/bufferqueue/1.0/android.hardware.graphics.bufferqueue@1.0_genc++_headers/gen/android/hardware/graphics/bufferqueue/1.0/IHwGraphicBufferProducer.h"
  parameters {
    basic_abi {
      type_abi {
        name: "const android::hardware::graphics::bufferqueue::V1_0::IGraphicBufferProducer::FenceTimeSnapshot &"
      }
      name: "obj"
      access: public_access
      linker_set_key: "false"
    }
    default_arg: false
  }
  parameters {
    basic_abi {
      type_abi {
        name: "const android::hardware::Parcel &"
      }
      name: "parcel"
      access: public_access
      linker_set_key: "false"
    }
    default_arg: false
  }
  parameters {
    basic_abi {
      type_abi {
        name: "unsigned int"
        size: 4
        alignment: 4
      }
      name: "parentHandle"
      access: public_access
      linker_set_key: "false"
    }
    default_arg: false
  }
  parameters {
    basic_abi {
      type_abi {
        name: "unsigned int"
        size: 4
        alignment: 4
      }
      name: "parentOffset"
      access: public_access
      linker_set_key: "false"
    }
    default_arg: false
  }
}
functions {
  basic_abi {
    type_abi {
      name: "int"
      size: 4
      alignment: 4
    }
    name: "android::hardware::graphics::bufferqueue::V1_0::writeEmbeddedToParcel"
    access: public_access
    linker_set_key: "_ZN7android8hardware8graphics11bufferqueue4V1_021writeEmbeddedToParcelERKNS3_22IGraphicBufferProducer17FenceTimeSnapshotEPNS0_6ParcelEjj"
  }
  mangled_function_name: "_ZN7android8hardware8graphics11bufferqueue4V1_021writeEmbeddedToParcelERKNS3_22IGraphicBufferProducer17FenceTimeSnapshotEPNS0_6ParcelEjj"
  source_file: "/data/aosp/out/soong/.intermediates/hardware/interfaces/graphics/bufferqueue/1.0/android.hardware.graphics.bufferqueue@1.0_genc++_headers/gen/android/hardware/graphics/bufferqueue/1.0/IHwGraphicBufferProducer.h"
  parameters {
    basic_abi {
      type_abi {
        name: "const android::hardware::graphics::bufferqueue::V1_0::IGraphicBufferProducer::FenceTimeSnapshot &"
      }
      name: "obj"
      access: public_access
      linker_set_key: "false"
    }
    default_arg: false
  }
  parameters {
    basic_abi {
      type_abi {
        name: "android::hardware::Parcel *"
        size: 4
        alignment: 4
      }
      name: "parcel"
      access: public_access
      linker_set_key: "false"
    }
    default_arg: false
  }
  parameters {
    basic_abi {
      type_abi {
        name: "unsigned int"
        size: 4
        alignment: 4
      }
      name: "parentHandle"
      access: public_access
      linker_set_key: "false"
    }
    default_arg: false
  }
  parameters {
    basic_abi {
      type_abi {
        name: "unsigned int"
        size: 4
        alignment: 4
      }
      name: "parentOffset"
      access: public_access
      linker_set_key: "false"
    }
    default_arg: false
  }
}
functions {
  basic_abi {
    type_abi {
      name: "int"
      size: 4
      alignment: 4
    }
    name: "android::hardware::graphics::bufferqueue::V1_0::readEmbeddedFromParcel"
    access: public_access
    linker_set_key: "_ZN7android8hardware8graphics11bufferqueue4V1_022readEmbeddedFromParcelERKNS3_22IGraphicBufferProducer16FrameEventsDeltaERKNS0_6ParcelEjj"
  }
  mangled_function_name: "_ZN7android8hardware8graphics11bufferqueue4V1_022readEmbeddedFromParcelERKNS3_22IGraphicBufferProducer16FrameEventsDeltaERKNS0_6ParcelEjj"
  source_file: "/data/aosp/out/soong/.intermediates/hardware/interfaces/graphics/bufferqueue/1.0/android.hardware.graphics.bufferqueue@1.0_genc++_headers/gen/android/hardware/graphics/bufferqueue/1.0/IHwGraphicBufferProducer.h"
  parameters {
    basic_abi {
      type_abi {
        name: "const android::hardware::graphics::bufferqueue::V1_0::IGraphicBufferProducer::FrameEventsDelta &"
      }
      name: "obj"
      access: public_access
      linker_set_key: "false"
    }
    default_arg: false
  }
  parameters {
    basic_abi {
      type_abi {
        name: "const android::hardware::Parcel &"
      }
      name: "parcel"
      access: public_access
      linker_set_key: "false"
    }
    default_arg: false
  }
  parameters {
    basic_abi {
      type_abi {
        name: "unsigned int"
        size: 4
        alignment: 4
      }
      name: "parentHandle"
      access: public_access
      linker_set_key: "false"
    }
    default_arg: false
  }
  parameters {
    basic_abi {
      type_abi {
        name: "unsigned int"
        size: 4
        alignment: 4
      }
      name: "parentOffset"
      access: public_access
      linker_set_key: "false"
    }
    default_arg: false
  }
}
functions {
  basic_abi {
    type_abi {
      name: "int"
      size: 4
      alignment: 4
    }
    name: "android::hardware::graphics::bufferqueue::V1_0::writeEmbeddedToParcel"
    access: public_access
    linker_set_key: "_ZN7android8hardware8graphics11bufferqueue4V1_021writeEmbeddedToParcelERKNS3_22IGraphicBufferProducer16FrameEventsDeltaEPNS0_6ParcelEjj"
  }
  mangled_function_name: "_ZN7android8hardware8graphics11bufferqueue4V1_021writeEmbeddedToParcelERKNS3_22IGraphicBufferProducer16FrameEventsDeltaEPNS0_6ParcelEjj"
  source_file: "/data/aosp/out/soong/.intermediates/hardware/interfaces/graphics/bufferqueue/1.0/android.hardware.graphics.bufferqueue@1.0_genc++_headers/gen/android/hardware/graphics/bufferqueue/1.0/IHwGraphicBufferProducer.h"
  parameters {
    basic_abi {
      type_abi {
        name: "const android::hardware::graphics::bufferqueue::V1_0::IGraphicBufferProducer::FrameEventsDelta &"
      }
      name: "obj"
      access: public_access
      linker_set_key: "false"
    }
    default_arg: false
  }
  parameters {
    basic_abi {
      type_abi {
        name: "android::hardware::Parcel *"
        size: 4
        alignment: 4
      }
      name: "parcel"
      access: public_access
      linker_set_key: "false"
    }
    default_arg: false
  }
  parameters {
    basic_abi {
      type_abi {
        name: "unsigned int"
        size: 4
        alignment: 4
      }
      name: "parentHandle"
      access: public_access
      linker_set_key: "false"
    }
    default_arg: false
  }
  parameters {
    basic_abi {
      type_abi {
        name: "unsigned int"
        size: 4
        alignment: 4
      }
      name: "parentOffset"
      access: public_access
      linker_set_key: "false"
    }
    default_arg: false
  }
}
functions {
  basic_abi {
    type_abi {
      name: "int"
      size: 4
      alignment: 4
    }
    name: "android::hardware::graphics::bufferqueue::V1_0::readEmbeddedFromParcel"
    access: public_access
    linker_set_key: "_ZN7android8hardware8graphics11bufferqueue4V1_022readEmbeddedFromParcelERKNS3_22IGraphicBufferProducer22FrameEventHistoryDeltaERKNS0_6ParcelEjj"
  }
  mangled_function_name: "_ZN7android8hardware8graphics11bufferqueue4V1_022readEmbeddedFromParcelERKNS3_22IGraphicBufferProducer22FrameEventHistoryDeltaERKNS0_6ParcelEjj"
  source_file: "/data/aosp/out/soong/.intermediates/hardware/interfaces/graphics/bufferqueue/1.0/android.hardware.graphics.bufferqueue@1.0_genc++_headers/gen/android/hardware/graphics/bufferqueue/1.0/IHwGraphicBufferProducer.h"
  parameters {
    basic_abi {
      type_abi {
        name: "const android::hardware::graphics::bufferqueue::V1_0::IGraphicBufferProducer::FrameEventHistoryDelta &"
      }
      name: "obj"
      access: public_access
      linker_set_key: "false"
    }
    default_arg: false
  }
  parameters {
    basic_abi {
      type_abi {
        name: "const android::hardware::Parcel &"
      }
      name: "parcel"
      access: public_access
      linker_set_key: "false"
    }
    default_arg: false
  }
  parameters {
    basic_abi {
      type_abi {
        name: "unsigned int"
        size: 4
        alignment: 4
      }
      name: "parentHandle"
      access: public_access
      linker_set_key: "false"
    }
    default_arg: false
  }
  parameters {
    basic_abi {
      type_abi {
        name: "unsigned int"
        size: 4
        alignment: 4
      }
      name: "parentOffset"
      access: public_access
      linker_set_key: "false"
    }
    default_arg: false
  }
}
functions {
  basic_abi {
    type_abi {
      name: "int"
      size: 4
      alignment: 4
    }
    name: "android::hardware::graphics::bufferqueue::V1_0::writeEmbeddedToParcel"
    access: public_access
    linker_set_key: "_ZN7android8hardware8graphics11bufferqueue4V1_021writeEmbeddedToParcelERKNS3_22IGraphicBufferProducer22FrameEventHistoryDeltaEPNS0_6ParcelEjj"
  }
  mangled_function_name: "_ZN7android8hardware8graphics11bufferqueue4V1_021writeEmbeddedToParcelERKNS3_22IGraphicBufferProducer22FrameEventHistoryDeltaEPNS0_6ParcelEjj"
  source_file: "/data/aosp/out/soong/.intermediates/hardware/interfaces/graphics/bufferqueue/1.0/android.hardware.graphics.bufferqueue@1.0_genc++_headers/gen/android/hardware/graphics/bufferqueue/1.0/IHwGraphicBufferProducer.h"
  parameters {
    basic_abi {
      type_abi {
        name: "const android::hardware::graphics::bufferqueue::V1_0::IGraphicBufferProducer::FrameEventHistoryDelta &"
      }
      name: "obj"
      access: public_access
      linker_set_key: "false"
    }
    default_arg: false
  }
  parameters {
    basic_abi {
      type_abi {
        name: "android::hardware::Parcel *"
        size: 4
        alignment: 4
      }
      name: "parcel"
      access: public_access
      linker_set_key: "false"
    }
    default_arg: false
  }
  parameters {
    basic_abi {
      type_abi {
        name: "unsigned int"
        size: 4
        alignment: 4
      }
      name: "parentHandle"
      access: public_access
      linker_set_key: "false"
    }
    default_arg: false
  }
  parameters {
    basic_abi {
      type_abi {
        name: "unsigned int"
        size: 4
        alignment: 4
      }
      name: "parentOffset"
      access: public_access
      linker_set_key: "false"
    }
    default_arg: false
  }
}
functions {
  basic_abi {
    type_abi {
      name: "int"
      size: 4
      alignment: 4
    }
    name: "android::hardware::graphics::bufferqueue::V1_0::readEmbeddedFromParcel"
    access: public_access
    linker_set_key: "_ZN7android8hardware8graphics11bufferqueue4V1_022readEmbeddedFromParcelERKNS3_22IGraphicBufferProducer16QueueBufferInputERKNS0_6ParcelEjj"
  }
  mangled_function_name: "_ZN7android8hardware8graphics11bufferqueue4V1_022readEmbeddedFromParcelERKNS3_22IGraphicBufferProducer16QueueBufferInputERKNS0_6ParcelEjj"
  source_file: "/data/aosp/out/soong/.intermediates/hardware/interfaces/graphics/bufferqueue/1.0/android.hardware.graphics.bufferqueue@1.0_genc++_headers/gen/android/hardware/graphics/bufferqueue/1.0/IHwGraphicBufferProducer.h"
  parameters {
    basic_abi {
      type_abi {
        name: "const android::hardware::graphics::bufferqueue::V1_0::IGraphicBufferProducer::QueueBufferInput &"
      }
      name: "obj"
      access: public_access
      linker_set_key: "false"
    }
    default_arg: false
  }
  parameters {
    basic_abi {
      type_abi {
        name: "const android::hardware::Parcel &"
      }
      name: "parcel"
      access: public_access
      linker_set_key: "false"
    }
    default_arg: false
  }
  parameters {
    basic_abi {
      type_abi {
        name: "unsigned int"
        size: 4
        alignment: 4
      }
      name: "parentHandle"
      access: public_access
      linker_set_key: "false"
    }
    default_arg: false
  }
  parameters {
    basic_abi {
      type_abi {
        name: "unsigned int"
        size: 4
        alignment: 4
      }
      name: "parentOffset"
      access: public_access
      linker_set_key: "false"
    }
    default_arg: false
  }
}
functions {
  basic_abi {
    type_abi {
      name: "int"
      size: 4
      alignment: 4
    }
    name: "android::hardware::graphics::bufferqueue::V1_0::writeEmbeddedToParcel"
    access: public_access
    linker_set_key: "_ZN7android8hardware8graphics11bufferqueue4V1_021writeEmbeddedToParcelERKNS3_22IGraphicBufferProducer16QueueBufferInputEPNS0_6ParcelEjj"
  }
  mangled_function_name: "_ZN7android8hardware8graphics11bufferqueue4V1_021writeEmbeddedToParcelERKNS3_22IGraphicBufferProducer16QueueBufferInputEPNS0_6ParcelEjj"
  source_file: "/data/aosp/out/soong/.intermediates/hardware/interfaces/graphics/bufferqueue/1.0/android.hardware.graphics.bufferqueue@1.0_genc++_headers/gen/android/hardware/graphics/bufferqueue/1.0/IHwGraphicBufferProducer.h"
  parameters {
    basic_abi {
      type_abi {
        name: "const android::hardware::graphics::bufferqueue::V1_0::IGraphicBufferProducer::QueueBufferInput &"
      }
      name: "obj"
      access: public_access
      linker_set_key: "false"
    }
    default_arg: false
  }
  parameters {
    basic_abi {
      type_abi {
        name: "android::hardware::Parcel *"
        size: 4
        alignment: 4
      }
      name: "parcel"
      access: public_access
      linker_set_key: "false"
    }
    default_arg: false
  }
  parameters {
    basic_abi {
      type_abi {
        name: "unsigned int"
        size: 4
        alignment: 4
      }
      name: "parentHandle"
      access: public_access
      linker_set_key: "false"
    }
    default_arg: false
  }
  parameters {
    basic_abi {
      type_abi {
        name: "unsigned int"
        size: 4
        alignment: 4
      }
      name: "parentOffset"
      access: public_access
      linker_set_key: "false"
    }
    default_arg: false
  }
}
functions {
  basic_abi {
    type_abi {
      name: "int"
      size: 4
      alignment: 4
    }
    name: "android::hardware::graphics::bufferqueue::V1_0::readEmbeddedFromParcel"
    access: public_access
    linker_set_key: "_ZN7android8hardware8graphics11bufferqueue4V1_022readEmbeddedFromParcelERKNS3_22IGraphicBufferProducer17QueueBufferOutputERKNS0_6ParcelEjj"
  }
  mangled_function_name: "_ZN7android8hardware8graphics11bufferqueue4V1_022readEmbeddedFromParcelERKNS3_22IGraphicBufferProducer17QueueBufferOutputERKNS0_6ParcelEjj"
  source_file: "/data/aosp/out/soong/.intermediates/hardware/interfaces/graphics/bufferqueue/1.0/android.hardware.graphics.bufferqueue@1.0_genc++_headers/gen/android/hardware/graphics/bufferqueue/1.0/IHwGraphicBufferProducer.h"
  parameters {
    basic_abi {
      type_abi {
        name: "const android::hardware::graphics::bufferqueue::V1_0::IGraphicBufferProducer::QueueBufferOutput &"
      }
      name: "obj"
      access: public_access
      linker_set_key: "false"
    }
    default_arg: false
  }
  parameters {
    basic_abi {
      type_abi {
        name: "const android::hardware::Parcel &"
      }
      name: "parcel"
      access: public_access
      linker_set_key: "false"
    }
    default_arg: false
  }
  parameters {
    basic_abi {
      type_abi {
        name: "unsigned int"
        size: 4
        alignment: 4
      }
      name: "parentHandle"
      access: public_access
      linker_set_key: "false"
    }
    default_arg: false
  }
  parameters {
    basic_abi {
      type_abi {
        name: "unsigned int"
        size: 4
        alignment: 4
      }
      name: "parentOffset"
      access: public_access
      linker_set_key: "false"
    }
    default_arg: false
  }
}
functions {
  basic_abi {
    type_abi {
      name: "int"
      size: 4
      alignment: 4
    }
    name: "android::hardware::graphics::bufferqueue::V1_0::writeEmbeddedToParcel"
    access: public_access
    linker_set_key: "_ZN7android8hardware8graphics11bufferqueue4V1_021writeEmbeddedToParcelERKNS3_22IGraphicBufferProducer17QueueBufferOutputEPNS0_6ParcelEjj"
  }
  mangled_function_name: "_ZN7android8hardware8graphics11bufferqueue4V1_021writeEmbeddedToParcelERKNS3_22IGraphicBufferProducer17QueueBufferOutputEPNS0_6ParcelEjj"
  source_file: "/data/aosp/out/soong/.intermediates/hardware/interfaces/graphics/bufferqueue/1.0/android.hardware.graphics.bufferqueue@1.0_genc++_headers/gen/android/hardware/graphics/bufferqueue/1.0/IHwGraphicBufferProducer.h"
  parameters {
    basic_abi {
      type_abi {
        name: "const android::hardware::graphics::bufferqueue::V1_0::IGraphicBufferProducer::QueueBufferOutput &"
      }
      name: "obj"
      access: public_access
      linker_set_key: "false"
    }
    default_arg: false
  }
  parameters {
    basic_abi {
      type_abi {
        name: "android::hardware::Parcel *"
        size: 4
        alignment: 4
      }
      name: "parcel"
      access: public_access
      linker_set_key: "false"
    }
    default_arg: false
  }
  parameters {
    basic_abi {
      type_abi {
        name: "unsigned int"
        size: 4
        alignment: 4
      }
      name: "parentHandle"
      access: public_access
      linker_set_key: "false"
    }
    default_arg: false
  }
  parameters {
    basic_abi {
      type_abi {
        name: "unsigned int"
        size: 4
        alignment: 4
      }
      name: "parentOffset"
      access: public_access
      linker_set_key: "false"
    }
    default_arg: false
  }
}
functions {
  basic_abi {
    type_abi {
      name: "void"
    }
    name: "android::hardware::graphics::bufferqueue::V1_0::BpHwGraphicBufferProducer::BpHwGraphicBufferProducer"
    access: public_access
    linker_set_key: "_ZN7android8hardware8graphics11bufferqueue4V1_025BpHwGraphicBufferProducerC2ERKNS_2spINS0_7IBinderEEE"
  }
  mangled_function_name: "_ZN7android8hardware8graphics11bufferqueue4V1_025BpHwGraphicBufferProducerC2ERKNS_2spINS0_7IBinderEEE"
  source_file: "/data/aosp/out/soong/.intermediates/hardware/interfaces/graphics/bufferqueue/1.0/android.hardware.graphics.bufferqueue@1.0_genc++_headers/gen/android/hardware/graphics/bufferqueue/1.0/BpHwGraphicBufferProducer.h"
  parameters {
    basic_abi {
      type_abi {
        name: "const android::sp<android::hardware::IBinder> &"
      }
      name: "_hidl_impl"
      access: public_access
      linker_set_key: "false"
    }
    default_arg: false
  }
}
functions {
  basic_abi {
    type_abi {
      name: "void"
    }
    name: "android::hardware::graphics::bufferqueue::V1_0::BpHwGraphicBufferProducer::BpHwGraphicBufferProducer"
    access: public_access
    linker_set_key: "_ZN7android8hardware8graphics11bufferqueue4V1_025BpHwGraphicBufferProducerC1ERKNS_2spINS0_7IBinderEEE"
  }
  mangled_function_name: "_ZN7android8hardware8graphics11bufferqueue4V1_025BpHwGraphicBufferProducerC1ERKNS_2spINS0_7IBinderEEE"
  source_file: "/data/aosp/out/soong/.intermediates/hardware/interfaces/graphics/bufferqueue/1.0/android.hardware.graphics.bufferqueue@1.0_genc++_headers/gen/android/hardware/graphics/bufferqueue/1.0/BpHwGraphicBufferProducer.h"
  parameters {
    basic_abi {
      type_abi {
        name: "const android::sp<android::hardware::IBinder> &"
      }
      name: "_hidl_impl"
      access: public_access
      linker_set_key: "false"
    }
    default_arg: false
  }
}
functions {
  basic_abi {
    type_abi {
      name: "bool"
      size: 1
      alignment: 1
    }
    name: "android::hardware::graphics::bufferqueue::V1_0::BpHwGraphicBufferProducer::isRemote"
    access: public_access
    linker_set_key: "_ZNK7android8hardware8graphics11bufferqueue4V1_025BpHwGraphicBufferProducer8isRemoteEv"
  }
  mangled_function_name: "_ZNK7android8hardware8graphics11bufferqueue4V1_025BpHwGraphicBufferProducer8isRemoteEv"
  source_file: "/data/aosp/out/soong/.intermediates/hardware/interfaces/graphics/bufferqueue/1.0/android.hardware.graphics.bufferqueue@1.0_genc++_headers/gen/android/hardware/graphics/bufferqueue/1.0/BpHwGraphicBufferProducer.h"
}
functions {
  basic_abi {
    type_abi {
      name: "android::hardware::Return<void>"
    }
    name: "android::hardware::graphics::bufferqueue::V1_0::BpHwGraphicBufferProducer::_hidl_requestBuffer"
    access: public_access
    linker_set_key: "_ZN7android8hardware8graphics11bufferqueue4V1_025BpHwGraphicBufferProducer19_hidl_requestBufferEPNS0_10IInterfaceEPNS0_7details16HidlInstrumentorEiNSt3__18functionIFviRKNS0_5media4V1_09AnwBufferEEEE"
  }
  mangled_function_name: "_ZN7android8hardware8graphics11bufferqueue4V1_025BpHwGraphicBufferProducer19_hidl_requestBufferEPNS0_10IInterfaceEPNS0_7details16HidlInstrumentorEiNSt3__18functionIFviRKNS0_5media4V1_09AnwBufferEEEE"
  source_file: "/data/aosp/out/soong/.intermediates/hardware/interfaces/graphics/bufferqueue/1.0/android.hardware.graphics.bufferqueue@1.0_genc++_headers/gen/android/hardware/graphics/bufferqueue/1.0/BpHwGraphicBufferProducer.h"
  parameters {
    basic_abi {
      type_abi {
        name: "android::hardware::IInterface *"
        size: 4
        alignment: 4
      }
      name: "_hidl_this"
      access: public_access
      linker_set_key: "false"
    }
    default_arg: false
  }
  parameters {
    basic_abi {
      type_abi {
        name: "android::hardware::details::HidlInstrumentor *"
        size: 4
        alignment: 4
      }
      name: "_hidl_this_instrumentor"
      access: public_access
      linker_set_key: "false"
    }
    default_arg: false
  }
  parameters {
    basic_abi {
      type_abi {
        name: "int"
        size: 4
        alignment: 4
      }
      name: "slot"
      access: public_access
      linker_set_key: "false"
    }
    default_arg: false
  }
  parameters {
    basic_abi {
      type_abi {
        name: "std::function<void (int, const AnwBuffer &)>"
      }
      name: "_hidl_cb"
      access: public_access
      linker_set_key: "false"
    }
    default_arg: false
  }
}
functions {
  basic_abi {
    type_abi {
      name: "android::hardware::Return<int>"
    }
    name: "android::hardware::graphics::bufferqueue::V1_0::BpHwGraphicBufferProducer::_hidl_setMaxDequeuedBufferCount"
    access: public_access
    linker_set_key: "_ZN7android8hardware8graphics11bufferqueue4V1_025BpHwGraphicBufferProducer31_hidl_setMaxDequeuedBufferCountEPNS0_10IInterfaceEPNS0_7details16HidlInstrumentorEi"
  }
  mangled_function_name: "_ZN7android8hardware8graphics11bufferqueue4V1_025BpHwGraphicBufferProducer31_hidl_setMaxDequeuedBufferCountEPNS0_10IInterfaceEPNS0_7details16HidlInstrumentorEi"
  source_file: "/data/aosp/out/soong/.intermediates/hardware/interfaces/graphics/bufferqueue/1.0/android.hardware.graphics.bufferqueue@1.0_genc++_headers/gen/android/hardware/graphics/bufferqueue/1.0/BpHwGraphicBufferProducer.h"
  parameters {
    basic_abi {
      type_abi {
        name: "android::hardware::IInterface *"
        size: 4
        alignment: 4
      }
      name: "_hidl_this"
      access: public_access
      linker_set_key: "false"
    }
    default_arg: false
  }
  parameters {
    basic_abi {
      type_abi {
        name: "android::hardware::details::HidlInstrumentor *"
        size: 4
        alignment: 4
      }
      name: "_hidl_this_instrumentor"
      access: public_access
      linker_set_key: "false"
    }
    default_arg: false
  }
  parameters {
    basic_abi {
      type_abi {
        name: "int"
        size: 4
        alignment: 4
      }
      name: "maxDequeuedBuffers"
      access: public_access
      linker_set_key: "false"
    }
    default_arg: false
  }
}
functions {
  basic_abi {
    type_abi {
      name: "android::hardware::Return<int>"
    }
    name: "android::hardware::graphics::bufferqueue::V1_0::BpHwGraphicBufferProducer::_hidl_setAsyncMode"
    access: public_access
    linker_set_key: "_ZN7android8hardware8graphics11bufferqueue4V1_025BpHwGraphicBufferProducer18_hidl_setAsyncModeEPNS0_10IInterfaceEPNS0_7details16HidlInstrumentorEb"
  }
  mangled_function_name: "_ZN7android8hardware8graphics11bufferqueue4V1_025BpHwGraphicBufferProducer18_hidl_setAsyncModeEPNS0_10IInterfaceEPNS0_7details16HidlInstrumentorEb"
  source_file: "/data/aosp/out/soong/.intermediates/hardware/interfaces/graphics/bufferqueue/1.0/android.hardware.graphics.bufferqueue@1.0_genc++_headers/gen/android/hardware/graphics/bufferqueue/1.0/BpHwGraphicBufferProducer.h"
  parameters {
    basic_abi {
      type_abi {
        name: "android::hardware::IInterface *"
        size: 4
        alignment: 4
      }
      name: "_hidl_this"
      access: public_access
      linker_set_key: "false"
    }
    default_arg: false
  }
  parameters {
    basic_abi {
      type_abi {
        name: "android::hardware::details::HidlInstrumentor *"
        size: 4
        alignment: 4
      }
      name: "_hidl_this_instrumentor"
      access: public_access
      linker_set_key: "false"
    }
    default_arg: false
  }
  parameters {
    basic_abi {
      type_abi {
        name: "bool"
        size: 1
        alignment: 1
      }
      name: "async"
      access: public_access
      linker_set_key: "false"
    }
    default_arg: false
  }
}
functions {
  basic_abi {
    type_abi {
      name: "android::hardware::Return<void>"
    }
    name: "android::hardware::graphics::bufferqueue::V1_0::BpHwGraphicBufferProducer::_hidl_dequeueBuffer"
    access: public_access
    linker_set_key: "_ZN7android8hardware8graphics11bufferqueue4V1_025BpHwGraphicBufferProducer19_hidl_dequeueBufferEPNS0_10IInterfaceEPNS0_7details16HidlInstrumentorEjjNS1_6common4V1_011PixelFormatEjbNSt3__18functionIFviiRKNS0_11hidl_handleERKNS3_22IGraphicBufferProducer22FrameEventHistoryDeltaEEEE"
  }
  mangled_function_name: "_ZN7android8hardware8graphics11bufferqueue4V1_025BpHwGraphicBufferProducer19_hidl_dequeueBufferEPNS0_10IInterfaceEPNS0_7details16HidlInstrumentorEjjNS1_6common4V1_011PixelFormatEjbNSt3__18functionIFviiRKNS0_11hidl_handleERKNS3_22IGraphicBufferProducer22FrameEventHistoryDeltaEEEE"
  source_file: "/data/aosp/out/soong/.intermediates/hardware/interfaces/graphics/bufferqueue/1.0/android.hardware.graphics.bufferqueue@1.0_genc++_headers/gen/android/hardware/graphics/bufferqueue/1.0/BpHwGraphicBufferProducer.h"
  parameters {
    basic_abi {
      type_abi {
        name: "android::hardware::IInterface *"
        size: 4
        alignment: 4
      }
      name: "_hidl_this"
      access: public_access
      linker_set_key: "false"
    }
    default_arg: false
  }
  parameters {
    basic_abi {
      type_abi {
        name: "android::hardware::details::HidlInstrumentor *"
        size: 4
        alignment: 4
      }
      name: "_hidl_this_instrumentor"
      access: public_access
      linker_set_key: "false"
    }
    default_arg: false
  }
  parameters {
    basic_abi {
      type_abi {
        name: "unsigned int"
        size: 4
        alignment: 4
      }
      name: "width"
      access: public_access
      linker_set_key: "false"
    }
    default_arg: false
  }
  parameters {
    basic_abi {
      type_abi {
        name: "unsigned int"
        size: 4
        alignment: 4
      }
      name: "height"
      access: public_access
      linker_set_key: "false"
    }
    default_arg: false
  }
  parameters {
    basic_abi {
      type_abi {
        name: "android::hardware::graphics::common::V1_0::PixelFormat"
      }
      name: "format"
      access: public_access
      linker_set_key: "false"
    }
    default_arg: false
  }
  parameters {
    basic_abi {
      type_abi {
        name: "unsigned int"
        size: 4
        alignment: 4
      }
      name: "usage"
      access: public_access
      linker_set_key: "false"
    }
    default_arg: false
  }
  parameters {
    basic_abi {
      type_abi {
        name: "bool"
        size: 1
        alignment: 1
      }
      name: "getFrameTimestamps"
      access: public_access
      linker_set_key: "false"
    }
    default_arg: false
  }
  parameters {
    basic_abi {
      type_abi {
        name: "std::function<void (int, int, const hidl_handle &, const FrameEventHistoryDelta &)>"
      }
      name: "_hidl_cb"
      access: public_access
      linker_set_key: "false"
    }
    default_arg: false
  }
}
functions {
  basic_abi {
    type_abi {
      name: "android::hardware::Return<int>"
    }
    name: "android::hardware::graphics::bufferqueue::V1_0::BpHwGraphicBufferProducer::_hidl_detachBuffer"
    access: public_access
    linker_set_key: "_ZN7android8hardware8graphics11bufferqueue4V1_025BpHwGraphicBufferProducer18_hidl_detachBufferEPNS0_10IInterfaceEPNS0_7details16HidlInstrumentorEi"
  }
  mangled_function_name: "_ZN7android8hardware8graphics11bufferqueue4V1_025BpHwGraphicBufferProducer18_hidl_detachBufferEPNS0_10IInterfaceEPNS0_7details16HidlInstrumentorEi"
  source_file: "/data/aosp/out/soong/.intermediates/hardware/interfaces/graphics/bufferqueue/1.0/android.hardware.graphics.bufferqueue@1.0_genc++_headers/gen/android/hardware/graphics/bufferqueue/1.0/BpHwGraphicBufferProducer.h"
  parameters {
    basic_abi {
      type_abi {
        name: "android::hardware::IInterface *"
        size: 4
        alignment: 4
      }
      name: "_hidl_this"
      access: public_access
      linker_set_key: "false"
    }
    default_arg: false
  }
  parameters {
    basic_abi {
      type_abi {
        name: "android::hardware::details::HidlInstrumentor *"
        size: 4
        alignment: 4
      }
      name: "_hidl_this_instrumentor"
      access: public_access
      linker_set_key: "false"
    }
    default_arg: false
  }
  parameters {
    basic_abi {
      type_abi {
        name: "int"
        size: 4
        alignment: 4
      }
      name: "slot"
      access: public_access
      linker_set_key: "false"
    }
    default_arg: false
  }
}
functions {
  basic_abi {
    type_abi {
      name: "android::hardware::Return<void>"
    }
    name: "android::hardware::graphics::bufferqueue::V1_0::BpHwGraphicBufferProducer::_hidl_detachNextBuffer"
    access: public_access
    linker_set_key: "_ZN7android8hardware8graphics11bufferqueue4V1_025BpHwGraphicBufferProducer22_hidl_detachNextBufferEPNS0_10IInterfaceEPNS0_7details16HidlInstrumentorENSt3__18functionIFviRKNS0_5media4V1_09AnwBufferERKNS0_11hidl_handleEEEE"
  }
  mangled_function_name: "_ZN7android8hardware8graphics11bufferqueue4V1_025BpHwGraphicBufferProducer22_hidl_detachNextBufferEPNS0_10IInterfaceEPNS0_7details16HidlInstrumentorENSt3__18functionIFviRKNS0_5media4V1_09AnwBufferERKNS0_11hidl_handleEEEE"
  source_file: "/data/aosp/out/soong/.intermediates/hardware/interfaces/graphics/bufferqueue/1.0/android.hardware.graphics.bufferqueue@1.0_genc++_headers/gen/android/hardware/graphics/bufferqueue/1.0/BpHwGraphicBufferProducer.h"
  parameters {
    basic_abi {
      type_abi {
        name: "android::hardware::IInterface *"
        size: 4
        alignment: 4
      }
      name: "_hidl_this"
      access: public_access
      linker_set_key: "false"
    }
    default_arg: false
  }
  parameters {
    basic_abi {
      type_abi {
        name: "android::hardware::details::HidlInstrumentor *"
        size: 4
        alignment: 4
      }
      name: "_hidl_this_instrumentor"
      access: public_access
      linker_set_key: "false"
    }
    default_arg: false
  }
  parameters {
    basic_abi {
      type_abi {
        name: "std::function<void (int, const AnwBuffer &, const hidl_handle &)>"
      }
      name: "_hidl_cb"
      access: public_access
      linker_set_key: "false"
    }
    default_arg: false
  }
}
functions {
  basic_abi {
    type_abi {
      name: "android::hardware::Return<void>"
    }
    name: "android::hardware::graphics::bufferqueue::V1_0::BpHwGraphicBufferProducer::_hidl_attachBuffer"
    access: public_access
    linker_set_key: "_ZN7android8hardware8graphics11bufferqueue4V1_025BpHwGraphicBufferProducer18_hidl_attachBufferEPNS0_10IInterfaceEPNS0_7details16HidlInstrumentorERKNS0_5media4V1_09AnwBufferENSt3__18functionIFviiEEE"
  }
  mangled_function_name: "_ZN7android8hardware8graphics11bufferqueue4V1_025BpHwGraphicBufferProducer18_hidl_attachBufferEPNS0_10IInterfaceEPNS0_7details16HidlInstrumentorERKNS0_5media4V1_09AnwBufferENSt3__18functionIFviiEEE"
  source_file: "/data/aosp/out/soong/.intermediates/hardware/interfaces/graphics/bufferqueue/1.0/android.hardware.graphics.bufferqueue@1.0_genc++_headers/gen/android/hardware/graphics/bufferqueue/1.0/BpHwGraphicBufferProducer.h"
  parameters {
    basic_abi {
      type_abi {
        name: "android::hardware::IInterface *"
        size: 4
        alignment: 4
      }
      name: "_hidl_this"
      access: public_access
      linker_set_key: "false"
    }
    default_arg: false
  }
  parameters {
    basic_abi {
      type_abi {
        name: "android::hardware::details::HidlInstrumentor *"
        size: 4
        alignment: 4
      }
      name: "_hidl_this_instrumentor"
      access: public_access
      linker_set_key: "false"
    }
    default_arg: false
  }
  parameters {
    basic_abi {
      type_abi {
        name: "const android::hardware::media::V1_0::AnwBuffer &"
      }
      name: "buffer"
      access: public_access
      linker_set_key: "false"
    }
    default_arg: false
  }
  parameters {
    basic_abi {
      type_abi {
        name: "std::function<void (int, int)>"
      }
      name: "_hidl_cb"
      access: public_access
      linker_set_key: "false"
    }
    default_arg: false
  }
}
functions {
  basic_abi {
    type_abi {
      name: "android::hardware::Return<void>"
    }
    name: "android::hardware::graphics::bufferqueue::V1_0::BpHwGraphicBufferProducer::_hidl_queueBuffer"
    access: public_access
    linker_set_key: "_ZN7android8hardware8graphics11bufferqueue4V1_025BpHwGraphicBufferProducer17_hidl_queueBufferEPNS0_10IInterfaceEPNS0_7details16HidlInstrumentorEiRKNS3_22IGraphicBufferProducer16QueueBufferInputENSt3__18functionIFviRKNSA_17QueueBufferOutputEEEE"
  }
  mangled_function_name: "_ZN7android8hardware8graphics11bufferqueue4V1_025BpHwGraphicBufferProducer17_hidl_queueBufferEPNS0_10IInterfaceEPNS0_7details16HidlInstrumentorEiRKNS3_22IGraphicBufferProducer16QueueBufferInputENSt3__18functionIFviRKNSA_17QueueBufferOutputEEEE"
  source_file: "/data/aosp/out/soong/.intermediates/hardware/interfaces/graphics/bufferqueue/1.0/android.hardware.graphics.bufferqueue@1.0_genc++_headers/gen/android/hardware/graphics/bufferqueue/1.0/BpHwGraphicBufferProducer.h"
  parameters {
    basic_abi {
      type_abi {
        name: "android::hardware::IInterface *"
        size: 4
        alignment: 4
      }
      name: "_hidl_this"
      access: public_access
      linker_set_key: "false"
    }
    default_arg: false
  }
  parameters {
    basic_abi {
      type_abi {
        name: "android::hardware::details::HidlInstrumentor *"
        size: 4
        alignment: 4
      }
      name: "_hidl_this_instrumentor"
      access: public_access
      linker_set_key: "false"
    }
    default_arg: false
  }
  parameters {
    basic_abi {
      type_abi {
        name: "int"
        size: 4
        alignment: 4
      }
      name: "slot"
      access: public_access
      linker_set_key: "false"
    }
    default_arg: false
  }
  parameters {
    basic_abi {
      type_abi {
        name: "const android::hardware::graphics::bufferqueue::V1_0::IGraphicBufferProducer::QueueBufferInput &"
      }
      name: "input"
      access: public_access
      linker_set_key: "false"
    }
    default_arg: false
  }
  parameters {
    basic_abi {
      type_abi {
        name: "std::function<void (int, const QueueBufferOutput &)>"
      }
      name: "_hidl_cb"
      access: public_access
      linker_set_key: "false"
    }
    default_arg: false
  }
}
functions {
  basic_abi {
    type_abi {
      name: "android::hardware::Return<int>"
    }
    name: "android::hardware::graphics::bufferqueue::V1_0::BpHwGraphicBufferProducer::_hidl_cancelBuffer"
    access: public_access
    linker_set_key: "_ZN7android8hardware8graphics11bufferqueue4V1_025BpHwGraphicBufferProducer18_hidl_cancelBufferEPNS0_10IInterfaceEPNS0_7details16HidlInstrumentorEiRKNS0_11hidl_handleE"
  }
  mangled_function_name: "_ZN7android8hardware8graphics11bufferqueue4V1_025BpHwGraphicBufferProducer18_hidl_cancelBufferEPNS0_10IInterfaceEPNS0_7details16HidlInstrumentorEiRKNS0_11hidl_handleE"
  source_file: "/data/aosp/out/soong/.intermediates/hardware/interfaces/graphics/bufferqueue/1.0/android.hardware.graphics.bufferqueue@1.0_genc++_headers/gen/android/hardware/graphics/bufferqueue/1.0/BpHwGraphicBufferProducer.h"
  parameters {
    basic_abi {
      type_abi {
        name: "android::hardware::IInterface *"
        size: 4
        alignment: 4
      }
      name: "_hidl_this"
      access: public_access
      linker_set_key: "false"
    }
    default_arg: false
  }
  parameters {
    basic_abi {
      type_abi {
        name: "android::hardware::details::HidlInstrumentor *"
        size: 4
        alignment: 4
      }
      name: "_hidl_this_instrumentor"
      access: public_access
      linker_set_key: "false"
    }
    default_arg: false
  }
  parameters {
    basic_abi {
      type_abi {
        name: "int"
        size: 4
        alignment: 4
      }
      name: "slot"
      access: public_access
      linker_set_key: "false"
    }
    default_arg: false
  }
  parameters {
    basic_abi {
      type_abi {
        name: "const android::hardware::hidl_handle &"
      }
      name: "fence"
      access: public_access
      linker_set_key: "false"
    }
    default_arg: false
  }
}
functions {
  basic_abi {
    type_abi {
      name: "android::hardware::Return<void>"
    }
    name: "android::hardware::graphics::bufferqueue::V1_0::BpHwGraphicBufferProducer::_hidl_query"
    access: public_access
    linker_set_key: "_ZN7android8hardware8graphics11bufferqueue4V1_025BpHwGraphicBufferProducer11_hidl_queryEPNS0_10IInterfaceEPNS0_7details16HidlInstrumentorEiNSt3__18functionIFviiEEE"
  }
  mangled_function_name: "_ZN7android8hardware8graphics11bufferqueue4V1_025BpHwGraphicBufferProducer11_hidl_queryEPNS0_10IInterfaceEPNS0_7details16HidlInstrumentorEiNSt3__18functionIFviiEEE"
  source_file: "/data/aosp/out/soong/.intermediates/hardware/interfaces/graphics/bufferqueue/1.0/android.hardware.graphics.bufferqueue@1.0_genc++_headers/gen/android/hardware/graphics/bufferqueue/1.0/BpHwGraphicBufferProducer.h"
  parameters {
    basic_abi {
      type_abi {
        name: "android::hardware::IInterface *"
        size: 4
        alignment: 4
      }
      name: "_hidl_this"
      access: public_access
      linker_set_key: "false"
    }
    default_arg: false
  }
  parameters {
    basic_abi {
      type_abi {
        name: "android::hardware::details::HidlInstrumentor *"
        size: 4
        alignment: 4
      }
      name: "_hidl_this_instrumentor"
      access: public_access
      linker_set_key: "false"
    }
    default_arg: false
  }
  parameters {
    basic_abi {
      type_abi {
        name: "int"
        size: 4
        alignment: 4
      }
      name: "what"
      access: public_access
      linker_set_key: "false"
    }
    default_arg: false
  }
  parameters {
    basic_abi {
      type_abi {
        name: "std::function<void (int, int)>"
      }
      name: "_hidl_cb"
      access: public_access
      linker_set_key: "false"
    }
    default_arg: false
  }
}
functions {
  basic_abi {
    type_abi {
      name: "android::hardware::Return<void>"
    }
    name: "android::hardware::graphics::bufferqueue::V1_0::BpHwGraphicBufferProducer::_hidl_connect"
    access: public_access
    linker_set_key: "_ZN7android8hardware8graphics11bufferqueue4V1_025BpHwGraphicBufferProducer13_hidl_connectEPNS0_10IInterfaceEPNS0_7details16HidlInstrumentorERKNS_2spINS3_17IProducerListenerEEEibNSt3__18functionIFviRKNS3_22IGraphicBufferProducer17QueueBufferOutputEEEE"
  }
  mangled_function_name: "_ZN7android8hardware8graphics11bufferqueue4V1_025BpHwGraphicBufferProducer13_hidl_connectEPNS0_10IInterfaceEPNS0_7details16HidlInstrumentorERKNS_2spINS3_17IProducerListenerEEEibNSt3__18functionIFviRKNS3_22IGraphicBufferProducer17QueueBufferOutputEEEE"
  source_file: "/data/aosp/out/soong/.intermediates/hardware/interfaces/graphics/bufferqueue/1.0/android.hardware.graphics.bufferqueue@1.0_genc++_headers/gen/android/hardware/graphics/bufferqueue/1.0/BpHwGraphicBufferProducer.h"
  parameters {
    basic_abi {
      type_abi {
        name: "android::hardware::IInterface *"
        size: 4
        alignment: 4
      }
      name: "_hidl_this"
      access: public_access
      linker_set_key: "false"
    }
    default_arg: false
  }
  parameters {
    basic_abi {
      type_abi {
        name: "android::hardware::details::HidlInstrumentor *"
        size: 4
        alignment: 4
      }
      name: "_hidl_this_instrumentor"
      access: public_access
      linker_set_key: "false"
    }
    default_arg: false
  }
  parameters {
    basic_abi {
      type_abi {
        name: "const android::sp<android::hardware::graphics::bufferqueue::V1_0::IProducerListener> &"
      }
      name: "listener"
      access: public_access
      linker_set_key: "false"
    }
    default_arg: false
  }
  parameters {
    basic_abi {
      type_abi {
        name: "int"
        size: 4
        alignment: 4
      }
      name: "api"
      access: public_access
      linker_set_key: "false"
    }
    default_arg: false
  }
  parameters {
    basic_abi {
      type_abi {
        name: "bool"
        size: 1
        alignment: 1
      }
      name: "producerControlledByApp"
      access: public_access
      linker_set_key: "false"
    }
    default_arg: false
  }
  parameters {
    basic_abi {
      type_abi {
        name: "std::function<void (int, const QueueBufferOutput &)>"
      }
      name: "_hidl_cb"
      access: public_access
      linker_set_key: "false"
    }
    default_arg: false
  }
}
functions {
  basic_abi {
    type_abi {
      name: "android::hardware::Return<int>"
    }
    name: "android::hardware::graphics::bufferqueue::V1_0::BpHwGraphicBufferProducer::_hidl_disconnect"
    access: public_access
    linker_set_key: "_ZN7android8hardware8graphics11bufferqueue4V1_025BpHwGraphicBufferProducer16_hidl_disconnectEPNS0_10IInterfaceEPNS0_7details16HidlInstrumentorEiNS3_22IGraphicBufferProducer14DisconnectModeE"
  }
  mangled_function_name: "_ZN7android8hardware8graphics11bufferqueue4V1_025BpHwGraphicBufferProducer16_hidl_disconnectEPNS0_10IInterfaceEPNS0_7details16HidlInstrumentorEiNS3_22IGraphicBufferProducer14DisconnectModeE"
  source_file: "/data/aosp/out/soong/.intermediates/hardware/interfaces/graphics/bufferqueue/1.0/android.hardware.graphics.bufferqueue@1.0_genc++_headers/gen/android/hardware/graphics/bufferqueue/1.0/BpHwGraphicBufferProducer.h"
  parameters {
    basic_abi {
      type_abi {
        name: "android::hardware::IInterface *"
        size: 4
        alignment: 4
      }
      name: "_hidl_this"
      access: public_access
      linker_set_key: "false"
    }
    default_arg: false
  }
  parameters {
    basic_abi {
      type_abi {
        name: "android::hardware::details::HidlInstrumentor *"
        size: 4
        alignment: 4
      }
      name: "_hidl_this_instrumentor"
      access: public_access
      linker_set_key: "false"
    }
    default_arg: false
  }
  parameters {
    basic_abi {
      type_abi {
        name: "int"
        size: 4
        alignment: 4
      }
      name: "api"
      access: public_access
      linker_set_key: "false"
    }
    default_arg: false
  }
  parameters {
    basic_abi {
      type_abi {
        name: "android::hardware::graphics::bufferqueue::V1_0::IGraphicBufferProducer::DisconnectMode"
      }
      name: "mode"
      access: public_access
      linker_set_key: "false"
    }
    default_arg: false
  }
}
functions {
  basic_abi {
    type_abi {
      name: "android::hardware::Return<int>"
    }
    name: "android::hardware::graphics::bufferqueue::V1_0::BpHwGraphicBufferProducer::_hidl_setSidebandStream"
    access: public_access
    linker_set_key: "_ZN7android8hardware8graphics11bufferqueue4V1_025BpHwGraphicBufferProducer23_hidl_setSidebandStreamEPNS0_10IInterfaceEPNS0_7details16HidlInstrumentorERKNS0_11hidl_handleE"
  }
  mangled_function_name: "_ZN7android8hardware8graphics11bufferqueue4V1_025BpHwGraphicBufferProducer23_hidl_setSidebandStreamEPNS0_10IInterfaceEPNS0_7details16HidlInstrumentorERKNS0_11hidl_handleE"
  source_file: "/data/aosp/out/soong/.intermediates/hardware/interfaces/graphics/bufferqueue/1.0/android.hardware.graphics.bufferqueue@1.0_genc++_headers/gen/android/hardware/graphics/bufferqueue/1.0/BpHwGraphicBufferProducer.h"
  parameters {
    basic_abi {
      type_abi {
        name: "android::hardware::IInterface *"
        size: 4
        alignment: 4
      }
      name: "_hidl_this"
      access: public_access
      linker_set_key: "false"
    }
    default_arg: false
  }
  parameters {
    basic_abi {
      type_abi {
        name: "android::hardware::details::HidlInstrumentor *"
        size: 4
        alignment: 4
      }
      name: "_hidl_this_instrumentor"
      access: public_access
      linker_set_key: "false"
    }
    default_arg: false
  }
  parameters {
    basic_abi {
      type_abi {
        name: "const android::hardware::hidl_handle &"
      }
      name: "stream"
      access: public_access
      linker_set_key: "false"
    }
    default_arg: false
  }
}
functions {
  basic_abi {
    type_abi {
      name: "android::hardware::Return<void>"
    }
    name: "android::hardware::graphics::bufferqueue::V1_0::BpHwGraphicBufferProducer::_hidl_allocateBuffers"
    access: public_access
    linker_set_key: "_ZN7android8hardware8graphics11bufferqueue4V1_025BpHwGraphicBufferProducer21_hidl_allocateBuffersEPNS0_10IInterfaceEPNS0_7details16HidlInstrumentorEjjNS1_6common4V1_011PixelFormatEj"
  }
  mangled_function_name: "_ZN7android8hardware8graphics11bufferqueue4V1_025BpHwGraphicBufferProducer21_hidl_allocateBuffersEPNS0_10IInterfaceEPNS0_7details16HidlInstrumentorEjjNS1_6common4V1_011PixelFormatEj"
  source_file: "/data/aosp/out/soong/.intermediates/hardware/interfaces/graphics/bufferqueue/1.0/android.hardware.graphics.bufferqueue@1.0_genc++_headers/gen/android/hardware/graphics/bufferqueue/1.0/BpHwGraphicBufferProducer.h"
  parameters {
    basic_abi {
      type_abi {
        name: "android::hardware::IInterface *"
        size: 4
        alignment: 4
      }
      name: "_hidl_this"
      access: public_access
      linker_set_key: "false"
    }
    default_arg: false
  }
  parameters {
    basic_abi {
      type_abi {
        name: "android::hardware::details::HidlInstrumentor *"
        size: 4
        alignment: 4
      }
      name: "_hidl_this_instrumentor"
      access: public_access
      linker_set_key: "false"
    }
    default_arg: false
  }
  parameters {
    basic_abi {
      type_abi {
        name: "unsigned int"
        size: 4
        alignment: 4
      }
      name: "width"
      access: public_access
      linker_set_key: "false"
    }
    default_arg: false
  }
  parameters {
    basic_abi {
      type_abi {
        name: "unsigned int"
        size: 4
        alignment: 4
      }
      name: "height"
      access: public_access
      linker_set_key: "false"
    }
    default_arg: false
  }
  parameters {
    basic_abi {
      type_abi {
        name: "android::hardware::graphics::common::V1_0::PixelFormat"
      }
      name: "format"
      access: public_access
      linker_set_key: "false"
    }
    default_arg: false
  }
  parameters {
    basic_abi {
      type_abi {
        name: "unsigned int"
        size: 4
        alignment: 4
      }
      name: "usage"
      access: public_access
      linker_set_key: "false"
    }
    default_arg: false
  }
}
functions {
  basic_abi {
    type_abi {
      name: "android::hardware::Return<int>"
    }
    name: "android::hardware::graphics::bufferqueue::V1_0::BpHwGraphicBufferProducer::_hidl_allowAllocation"
    access: public_access
    linker_set_key: "_ZN7android8hardware8graphics11bufferqueue4V1_025BpHwGraphicBufferProducer21_hidl_allowAllocationEPNS0_10IInterfaceEPNS0_7details16HidlInstrumentorEb"
  }
  mangled_function_name: "_ZN7android8hardware8graphics11bufferqueue4V1_025BpHwGraphicBufferProducer21_hidl_allowAllocationEPNS0_10IInterfaceEPNS0_7details16HidlInstrumentorEb"
  source_file: "/data/aosp/out/soong/.intermediates/hardware/interfaces/graphics/bufferqueue/1.0/android.hardware.graphics.bufferqueue@1.0_genc++_headers/gen/android/hardware/graphics/bufferqueue/1.0/BpHwGraphicBufferProducer.h"
  parameters {
    basic_abi {
      type_abi {
        name: "android::hardware::IInterface *"
        size: 4
        alignment: 4
      }
      name: "_hidl_this"
      access: public_access
      linker_set_key: "false"
    }
    default_arg: false
  }
  parameters {
    basic_abi {
      type_abi {
        name: "android::hardware::details::HidlInstrumentor *"
        size: 4
        alignment: 4
      }
      name: "_hidl_this_instrumentor"
      access: public_access
      linker_set_key: "false"
    }
    default_arg: false
  }
  parameters {
    basic_abi {
      type_abi {
        name: "bool"
        size: 1
        alignment: 1
      }
      name: "allow"
      access: public_access
      linker_set_key: "false"
    }
    default_arg: false
  }
}
functions {
  basic_abi {
    type_abi {
      name: "android::hardware::Return<int>"
    }
    name: "android::hardware::graphics::bufferqueue::V1_0::BpHwGraphicBufferProducer::_hidl_setGenerationNumber"
    access: public_access
    linker_set_key: "_ZN7android8hardware8graphics11bufferqueue4V1_025BpHwGraphicBufferProducer25_hidl_setGenerationNumberEPNS0_10IInterfaceEPNS0_7details16HidlInstrumentorEj"
  }
  mangled_function_name: "_ZN7android8hardware8graphics11bufferqueue4V1_025BpHwGraphicBufferProducer25_hidl_setGenerationNumberEPNS0_10IInterfaceEPNS0_7details16HidlInstrumentorEj"
  source_file: "/data/aosp/out/soong/.intermediates/hardware/interfaces/graphics/bufferqueue/1.0/android.hardware.graphics.bufferqueue@1.0_genc++_headers/gen/android/hardware/graphics/bufferqueue/1.0/BpHwGraphicBufferProducer.h"
  parameters {
    basic_abi {
      type_abi {
        name: "android::hardware::IInterface *"
        size: 4
        alignment: 4
      }
      name: "_hidl_this"
      access: public_access
      linker_set_key: "false"
    }
    default_arg: false
  }
  parameters {
    basic_abi {
      type_abi {
        name: "android::hardware::details::HidlInstrumentor *"
        size: 4
        alignment: 4
      }
      name: "_hidl_this_instrumentor"
      access: public_access
      linker_set_key: "false"
    }
    default_arg: false
  }
  parameters {
    basic_abi {
      type_abi {
        name: "unsigned int"
        size: 4
        alignment: 4
      }
      name: "generationNumber"
      access: public_access
      linker_set_key: "false"
    }
    default_arg: false
  }
}
functions {
  basic_abi {
    type_abi {
      name: "android::hardware::Return<void>"
    }
    name: "android::hardware::graphics::bufferqueue::V1_0::BpHwGraphicBufferProducer::_hidl_getConsumerName"
    access: public_access
    linker_set_key: "_ZN7android8hardware8graphics11bufferqueue4V1_025BpHwGraphicBufferProducer21_hidl_getConsumerNameEPNS0_10IInterfaceEPNS0_7details16HidlInstrumentorENSt3__18functionIFvRKNS0_11hidl_stringEEEE"
  }
  mangled_function_name: "_ZN7android8hardware8graphics11bufferqueue4V1_025BpHwGraphicBufferProducer21_hidl_getConsumerNameEPNS0_10IInterfaceEPNS0_7details16HidlInstrumentorENSt3__18functionIFvRKNS0_11hidl_stringEEEE"
  source_file: "/data/aosp/out/soong/.intermediates/hardware/interfaces/graphics/bufferqueue/1.0/android.hardware.graphics.bufferqueue@1.0_genc++_headers/gen/android/hardware/graphics/bufferqueue/1.0/BpHwGraphicBufferProducer.h"
  parameters {
    basic_abi {
      type_abi {
        name: "android::hardware::IInterface *"
        size: 4
        alignment: 4
      }
      name: "_hidl_this"
      access: public_access
      linker_set_key: "false"
    }
    default_arg: false
  }
  parameters {
    basic_abi {
      type_abi {
        name: "android::hardware::details::HidlInstrumentor *"
        size: 4
        alignment: 4
      }
      name: "_hidl_this_instrumentor"
      access: public_access
      linker_set_key: "false"
    }
    default_arg: false
  }
  parameters {
    basic_abi {
      type_abi {
        name: "std::function<void (const hidl_string &)>"
      }
      name: "_hidl_cb"
      access: public_access
      linker_set_key: "false"
    }
    default_arg: false
  }
}
functions {
  basic_abi {
    type_abi {
      name: "android::hardware::Return<int>"
    }
    name: "android::hardware::graphics::bufferqueue::V1_0::BpHwGraphicBufferProducer::_hidl_setSharedBufferMode"
    access: public_access
    linker_set_key: "_ZN7android8hardware8graphics11bufferqueue4V1_025BpHwGraphicBufferProducer25_hidl_setSharedBufferModeEPNS0_10IInterfaceEPNS0_7details16HidlInstrumentorEb"
  }
  mangled_function_name: "_ZN7android8hardware8graphics11bufferqueue4V1_025BpHwGraphicBufferProducer25_hidl_setSharedBufferModeEPNS0_10IInterfaceEPNS0_7details16HidlInstrumentorEb"
  source_file: "/data/aosp/out/soong/.intermediates/hardware/interfaces/graphics/bufferqueue/1.0/android.hardware.graphics.bufferqueue@1.0_genc++_headers/gen/android/hardware/graphics/bufferqueue/1.0/BpHwGraphicBufferProducer.h"
  parameters {
    basic_abi {
      type_abi {
        name: "android::hardware::IInterface *"
        size: 4
        alignment: 4
      }
      name: "_hidl_this"
      access: public_access
      linker_set_key: "false"
    }
    default_arg: false
  }
  parameters {
    basic_abi {
      type_abi {
        name: "android::hardware::details::HidlInstrumentor *"
        size: 4
        alignment: 4
      }
      name: "_hidl_this_instrumentor"
      access: public_access
      linker_set_key: "false"
    }
    default_arg: false
  }
  parameters {
    basic_abi {
      type_abi {
        name: "bool"
        size: 1
        alignment: 1
      }
      name: "sharedBufferMode"
      access: public_access
      linker_set_key: "false"
    }
    default_arg: false
  }
}
functions {
  basic_abi {
    type_abi {
      name: "android::hardware::Return<int>"
    }
    name: "android::hardware::graphics::bufferqueue::V1_0::BpHwGraphicBufferProducer::_hidl_setAutoRefresh"
    access: public_access
    linker_set_key: "_ZN7android8hardware8graphics11bufferqueue4V1_025BpHwGraphicBufferProducer20_hidl_setAutoRefreshEPNS0_10IInterfaceEPNS0_7details16HidlInstrumentorEb"
  }
  mangled_function_name: "_ZN7android8hardware8graphics11bufferqueue4V1_025BpHwGraphicBufferProducer20_hidl_setAutoRefreshEPNS0_10IInterfaceEPNS0_7details16HidlInstrumentorEb"
  source_file: "/data/aosp/out/soong/.intermediates/hardware/interfaces/graphics/bufferqueue/1.0/android.hardware.graphics.bufferqueue@1.0_genc++_headers/gen/android/hardware/graphics/bufferqueue/1.0/BpHwGraphicBufferProducer.h"
  parameters {
    basic_abi {
      type_abi {
        name: "android::hardware::IInterface *"
        size: 4
        alignment: 4
      }
      name: "_hidl_this"
      access: public_access
      linker_set_key: "false"
    }
    default_arg: false
  }
  parameters {
    basic_abi {
      type_abi {
        name: "android::hardware::details::HidlInstrumentor *"
        size: 4
        alignment: 4
      }
      name: "_hidl_this_instrumentor"
      access: public_access
      linker_set_key: "false"
    }
    default_arg: false
  }
  parameters {
    basic_abi {
      type_abi {
        name: "bool"
        size: 1
        alignment: 1
      }
      name: "autoRefresh"
      access: public_access
      linker_set_key: "false"
    }
    default_arg: false
  }
}
functions {
  basic_abi {
    type_abi {
      name: "android::hardware::Return<int>"
    }
    name: "android::hardware::graphics::bufferqueue::V1_0::BpHwGraphicBufferProducer::_hidl_setDequeueTimeout"
    access: public_access
    linker_set_key: "_ZN7android8hardware8graphics11bufferqueue4V1_025BpHwGraphicBufferProducer23_hidl_setDequeueTimeoutEPNS0_10IInterfaceEPNS0_7details16HidlInstrumentorEx"
  }
  mangled_function_name: "_ZN7android8hardware8graphics11bufferqueue4V1_025BpHwGraphicBufferProducer23_hidl_setDequeueTimeoutEPNS0_10IInterfaceEPNS0_7details16HidlInstrumentorEx"
  source_file: "/data/aosp/out/soong/.intermediates/hardware/interfaces/graphics/bufferqueue/1.0/android.hardware.graphics.bufferqueue@1.0_genc++_headers/gen/android/hardware/graphics/bufferqueue/1.0/BpHwGraphicBufferProducer.h"
  parameters {
    basic_abi {
      type_abi {
        name: "android::hardware::IInterface *"
        size: 4
        alignment: 4
      }
      name: "_hidl_this"
      access: public_access
      linker_set_key: "false"
    }
    default_arg: false
  }
  parameters {
    basic_abi {
      type_abi {
        name: "android::hardware::details::HidlInstrumentor *"
        size: 4
        alignment: 4
      }
      name: "_hidl_this_instrumentor"
      access: public_access
      linker_set_key: "false"
    }
    default_arg: false
  }
  parameters {
    basic_abi {
      type_abi {
        name: "long long"
        size: 8
        alignment: 8
      }
      name: "timeoutNs"
      access: public_access
      linker_set_key: "false"
    }
    default_arg: false
  }
}
functions {
  basic_abi {
    type_abi {
      name: "android::hardware::Return<void>"
    }
    name: "android::hardware::graphics::bufferqueue::V1_0::BpHwGraphicBufferProducer::_hidl_getLastQueuedBuffer"
    access: public_access
    linker_set_key: "_ZN7android8hardware8graphics11bufferqueue4V1_025BpHwGraphicBufferProducer25_hidl_getLastQueuedBufferEPNS0_10IInterfaceEPNS0_7details16HidlInstrumentorENSt3__18functionIFviRKNS0_5media4V1_09AnwBufferERKNS0_11hidl_handleERKNS0_10hidl_arrayIfLj16EJEEEEEE"
  }
  mangled_function_name: "_ZN7android8hardware8graphics11bufferqueue4V1_025BpHwGraphicBufferProducer25_hidl_getLastQueuedBufferEPNS0_10IInterfaceEPNS0_7details16HidlInstrumentorENSt3__18functionIFviRKNS0_5media4V1_09AnwBufferERKNS0_11hidl_handleERKNS0_10hidl_arrayIfLj16EJEEEEEE"
  source_file: "/data/aosp/out/soong/.intermediates/hardware/interfaces/graphics/bufferqueue/1.0/android.hardware.graphics.bufferqueue@1.0_genc++_headers/gen/android/hardware/graphics/bufferqueue/1.0/BpHwGraphicBufferProducer.h"
  parameters {
    basic_abi {
      type_abi {
        name: "android::hardware::IInterface *"
        size: 4
        alignment: 4
      }
      name: "_hidl_this"
      access: public_access
      linker_set_key: "false"
    }
    default_arg: false
  }
  parameters {
    basic_abi {
      type_abi {
        name: "android::hardware::details::HidlInstrumentor *"
        size: 4
        alignment: 4
      }
      name: "_hidl_this_instrumentor"
      access: public_access
      linker_set_key: "false"
    }
    default_arg: false
  }
  parameters {
    basic_abi {
      type_abi {
        name: "std::function<void (int, const AnwBuffer &, const hidl_handle &, const hidl_array<float, 16> &)>"
      }
      name: "_hidl_cb"
      access: public_access
      linker_set_key: "false"
    }
    default_arg: false
  }
}
functions {
  basic_abi {
    type_abi {
      name: "android::hardware::Return<void>"
    }
    name: "android::hardware::graphics::bufferqueue::V1_0::BpHwGraphicBufferProducer::_hidl_getFrameTimestamps"
    access: public_access
    linker_set_key: "_ZN7android8hardware8graphics11bufferqueue4V1_025BpHwGraphicBufferProducer24_hidl_getFrameTimestampsEPNS0_10IInterfaceEPNS0_7details16HidlInstrumentorENSt3__18functionIFvRKNS3_22IGraphicBufferProducer22FrameEventHistoryDeltaEEEE"
  }
  mangled_function_name: "_ZN7android8hardware8graphics11bufferqueue4V1_025BpHwGraphicBufferProducer24_hidl_getFrameTimestampsEPNS0_10IInterfaceEPNS0_7details16HidlInstrumentorENSt3__18functionIFvRKNS3_22IGraphicBufferProducer22FrameEventHistoryDeltaEEEE"
  source_file: "/data/aosp/out/soong/.intermediates/hardware/interfaces/graphics/bufferqueue/1.0/android.hardware.graphics.bufferqueue@1.0_genc++_headers/gen/android/hardware/graphics/bufferqueue/1.0/BpHwGraphicBufferProducer.h"
  parameters {
    basic_abi {
      type_abi {
        name: "android::hardware::IInterface *"
        size: 4
        alignment: 4
      }
      name: "_hidl_this"
      access: public_access
      linker_set_key: "false"
    }
    default_arg: false
  }
  parameters {
    basic_abi {
      type_abi {
        name: "android::hardware::details::HidlInstrumentor *"
        size: 4
        alignment: 4
      }
      name: "_hidl_this_instrumentor"
      access: public_access
      linker_set_key: "false"
    }
    default_arg: false
  }
  parameters {
    basic_abi {
      type_abi {
        name: "std::function<void (const FrameEventHistoryDelta &)>"
      }
      name: "_hidl_cb"
      access: public_access
      linker_set_key: "false"
    }
    default_arg: false
  }
}
functions {
  basic_abi {
    type_abi {
      name: "android::hardware::Return<void>"
    }
    name: "android::hardware::graphics::bufferqueue::V1_0::BpHwGraphicBufferProducer::_hidl_getUniqueId"
    access: public_access
    linker_set_key: "_ZN7android8hardware8graphics11bufferqueue4V1_025BpHwGraphicBufferProducer17_hidl_getUniqueIdEPNS0_10IInterfaceEPNS0_7details16HidlInstrumentorENSt3__18functionIFviyEEE"
  }
  mangled_function_name: "_ZN7android8hardware8graphics11bufferqueue4V1_025BpHwGraphicBufferProducer17_hidl_getUniqueIdEPNS0_10IInterfaceEPNS0_7details16HidlInstrumentorENSt3__18functionIFviyEEE"
  source_file: "/data/aosp/out/soong/.intermediates/hardware/interfaces/graphics/bufferqueue/1.0/android.hardware.graphics.bufferqueue@1.0_genc++_headers/gen/android/hardware/graphics/bufferqueue/1.0/BpHwGraphicBufferProducer.h"
  parameters {
    basic_abi {
      type_abi {
        name: "android::hardware::IInterface *"
        size: 4
        alignment: 4
      }
      name: "_hidl_this"
      access: public_access
      linker_set_key: "false"
    }
    default_arg: false
  }
  parameters {
    basic_abi {
      type_abi {
        name: "android::hardware::details::HidlInstrumentor *"
        size: 4
        alignment: 4
      }
      name: "_hidl_this_instrumentor"
      access: public_access
      linker_set_key: "false"
    }
    default_arg: false
  }
  parameters {
    basic_abi {
      type_abi {
        name: "std::function<void (int, unsigned long long)>"
      }
      name: "_hidl_cb"
      access: public_access
      linker_set_key: "false"
    }
    default_arg: false
  }
}
functions {
  basic_abi {
    type_abi {
      name: "android::hardware::Return<void>"
    }
    name: "android::hardware::graphics::bufferqueue::V1_0::BpHwGraphicBufferProducer::requestBuffer"
    access: public_access
    linker_set_key: "_ZN7android8hardware8graphics11bufferqueue4V1_025BpHwGraphicBufferProducer13requestBufferEiNSt3__18functionIFviRKNS0_5media4V1_09AnwBufferEEEE"
  }
  mangled_function_name: "_ZN7android8hardware8graphics11bufferqueue4V1_025BpHwGraphicBufferProducer13requestBufferEiNSt3__18functionIFviRKNS0_5media4V1_09AnwBufferEEEE"
  source_file: "/data/aosp/out/soong/.intermediates/hardware/interfaces/graphics/bufferqueue/1.0/android.hardware.graphics.bufferqueue@1.0_genc++_headers/gen/android/hardware/graphics/bufferqueue/1.0/BpHwGraphicBufferProducer.h"
  parameters {
    basic_abi {
      type_abi {
        name: "int"
        size: 4
        alignment: 4
      }
      name: "slot"
      access: public_access
      linker_set_key: "false"
    }
    default_arg: false
  }
  parameters {
    basic_abi {
      type_abi {
        name: "std::function<void (int, const AnwBuffer &)>"
      }
      name: "_hidl_cb"
      access: public_access
      linker_set_key: "false"
    }
    default_arg: false
  }
}
functions {
  basic_abi {
    type_abi {
      name: "android::hardware::Return<int>"
    }
    name: "android::hardware::graphics::bufferqueue::V1_0::BpHwGraphicBufferProducer::setMaxDequeuedBufferCount"
    access: public_access
    linker_set_key: "_ZN7android8hardware8graphics11bufferqueue4V1_025BpHwGraphicBufferProducer25setMaxDequeuedBufferCountEi"
  }
  mangled_function_name: "_ZN7android8hardware8graphics11bufferqueue4V1_025BpHwGraphicBufferProducer25setMaxDequeuedBufferCountEi"
  source_file: "/data/aosp/out/soong/.intermediates/hardware/interfaces/graphics/bufferqueue/1.0/android.hardware.graphics.bufferqueue@1.0_genc++_headers/gen/android/hardware/graphics/bufferqueue/1.0/BpHwGraphicBufferProducer.h"
  parameters {
    basic_abi {
      type_abi {
        name: "int"
        size: 4
        alignment: 4
      }
      name: "maxDequeuedBuffers"
      access: public_access
      linker_set_key: "false"
    }
    default_arg: false
  }
}
functions {
  basic_abi {
    type_abi {
      name: "android::hardware::Return<int>"
    }
    name: "android::hardware::graphics::bufferqueue::V1_0::BpHwGraphicBufferProducer::setAsyncMode"
    access: public_access
    linker_set_key: "_ZN7android8hardware8graphics11bufferqueue4V1_025BpHwGraphicBufferProducer12setAsyncModeEb"
  }
  mangled_function_name: "_ZN7android8hardware8graphics11bufferqueue4V1_025BpHwGraphicBufferProducer12setAsyncModeEb"
  source_file: "/data/aosp/out/soong/.intermediates/hardware/interfaces/graphics/bufferqueue/1.0/android.hardware.graphics.bufferqueue@1.0_genc++_headers/gen/android/hardware/graphics/bufferqueue/1.0/BpHwGraphicBufferProducer.h"
  parameters {
    basic_abi {
      type_abi {
        name: "bool"
        size: 1
        alignment: 1
      }
      name: "async"
      access: public_access
      linker_set_key: "false"
    }
    default_arg: false
  }
}
functions {
  basic_abi {
    type_abi {
      name: "android::hardware::Return<void>"
    }
    name: "android::hardware::graphics::bufferqueue::V1_0::BpHwGraphicBufferProducer::dequeueBuffer"
    access: public_access
    linker_set_key: "_ZN7android8hardware8graphics11bufferqueue4V1_025BpHwGraphicBufferProducer13dequeueBufferEjjNS1_6common4V1_011PixelFormatEjbNSt3__18functionIFviiRKNS0_11hidl_handleERKNS3_22IGraphicBufferProducer22FrameEventHistoryDeltaEEEE"
  }
  mangled_function_name: "_ZN7android8hardware8graphics11bufferqueue4V1_025BpHwGraphicBufferProducer13dequeueBufferEjjNS1_6common4V1_011PixelFormatEjbNSt3__18functionIFviiRKNS0_11hidl_handleERKNS3_22IGraphicBufferProducer22FrameEventHistoryDeltaEEEE"
  source_file: "/data/aosp/out/soong/.intermediates/hardware/interfaces/graphics/bufferqueue/1.0/android.hardware.graphics.bufferqueue@1.0_genc++_headers/gen/android/hardware/graphics/bufferqueue/1.0/BpHwGraphicBufferProducer.h"
  parameters {
    basic_abi {
      type_abi {
        name: "unsigned int"
        size: 4
        alignment: 4
      }
      name: "width"
      access: public_access
      linker_set_key: "false"
    }
    default_arg: false
  }
  parameters {
    basic_abi {
      type_abi {
        name: "unsigned int"
        size: 4
        alignment: 4
      }
      name: "height"
      access: public_access
      linker_set_key: "false"
    }
    default_arg: false
  }
  parameters {
    basic_abi {
      type_abi {
        name: "android::hardware::graphics::common::V1_0::PixelFormat"
      }
      name: "format"
      access: public_access
      linker_set_key: "false"
    }
    default_arg: false
  }
  parameters {
    basic_abi {
      type_abi {
        name: "unsigned int"
        size: 4
        alignment: 4
      }
      name: "usage"
      access: public_access
      linker_set_key: "false"
    }
    default_arg: false
  }
  parameters {
    basic_abi {
      type_abi {
        name: "bool"
        size: 1
        alignment: 1
      }
      name: "getFrameTimestamps"
      access: public_access
      linker_set_key: "false"
    }
    default_arg: false
  }
  parameters {
    basic_abi {
      type_abi {
        name: "std::function<void (int, int, const hidl_handle &, const FrameEventHistoryDelta &)>"
      }
      name: "_hidl_cb"
      access: public_access
      linker_set_key: "false"
    }
    default_arg: false
  }
}
functions {
  basic_abi {
    type_abi {
      name: "android::hardware::Return<int>"
    }
    name: "android::hardware::graphics::bufferqueue::V1_0::BpHwGraphicBufferProducer::detachBuffer"
    access: public_access
    linker_set_key: "_ZN7android8hardware8graphics11bufferqueue4V1_025BpHwGraphicBufferProducer12detachBufferEi"
  }
  mangled_function_name: "_ZN7android8hardware8graphics11bufferqueue4V1_025BpHwGraphicBufferProducer12detachBufferEi"
  source_file: "/data/aosp/out/soong/.intermediates/hardware/interfaces/graphics/bufferqueue/1.0/android.hardware.graphics.bufferqueue@1.0_genc++_headers/gen/android/hardware/graphics/bufferqueue/1.0/BpHwGraphicBufferProducer.h"
  parameters {
    basic_abi {
      type_abi {
        name: "int"
        size: 4
        alignment: 4
      }
      name: "slot"
      access: public_access
      linker_set_key: "false"
    }
    default_arg: false
  }
}
functions {
  basic_abi {
    type_abi {
      name: "android::hardware::Return<void>"
    }
    name: "android::hardware::graphics::bufferqueue::V1_0::BpHwGraphicBufferProducer::detachNextBuffer"
    access: public_access
    linker_set_key: "_ZN7android8hardware8graphics11bufferqueue4V1_025BpHwGraphicBufferProducer16detachNextBufferENSt3__18functionIFviRKNS0_5media4V1_09AnwBufferERKNS0_11hidl_handleEEEE"
  }
  mangled_function_name: "_ZN7android8hardware8graphics11bufferqueue4V1_025BpHwGraphicBufferProducer16detachNextBufferENSt3__18functionIFviRKNS0_5media4V1_09AnwBufferERKNS0_11hidl_handleEEEE"
  source_file: "/data/aosp/out/soong/.intermediates/hardware/interfaces/graphics/bufferqueue/1.0/android.hardware.graphics.bufferqueue@1.0_genc++_headers/gen/android/hardware/graphics/bufferqueue/1.0/BpHwGraphicBufferProducer.h"
  parameters {
    basic_abi {
      type_abi {
        name: "std::function<void (int, const AnwBuffer &, const hidl_handle &)>"
      }
      name: "_hidl_cb"
      access: public_access
      linker_set_key: "false"
    }
    default_arg: false
  }
}
functions {
  basic_abi {
    type_abi {
      name: "android::hardware::Return<void>"
    }
    name: "android::hardware::graphics::bufferqueue::V1_0::BpHwGraphicBufferProducer::attachBuffer"
    access: public_access
    linker_set_key: "_ZN7android8hardware8graphics11bufferqueue4V1_025BpHwGraphicBufferProducer12attachBufferERKNS0_5media4V1_09AnwBufferENSt3__18functionIFviiEEE"
  }
  mangled_function_name: "_ZN7android8hardware8graphics11bufferqueue4V1_025BpHwGraphicBufferProducer12attachBufferERKNS0_5media4V1_09AnwBufferENSt3__18functionIFviiEEE"
  source_file: "/data/aosp/out/soong/.intermediates/hardware/interfaces/graphics/bufferqueue/1.0/android.hardware.graphics.bufferqueue@1.0_genc++_headers/gen/android/hardware/graphics/bufferqueue/1.0/BpHwGraphicBufferProducer.h"
  parameters {
    basic_abi {
      type_abi {
        name: "const android::hardware::media::V1_0::AnwBuffer &"
      }
      name: "buffer"
      access: public_access
      linker_set_key: "false"
    }
    default_arg: false
  }
  parameters {
    basic_abi {
      type_abi {
        name: "std::function<void (int, int)>"
      }
      name: "_hidl_cb"
      access: public_access
      linker_set_key: "false"
    }
    default_arg: false
  }
}
functions {
  basic_abi {
    type_abi {
      name: "android::hardware::Return<void>"
    }
    name: "android::hardware::graphics::bufferqueue::V1_0::BpHwGraphicBufferProducer::queueBuffer"
    access: public_access
    linker_set_key: "_ZN7android8hardware8graphics11bufferqueue4V1_025BpHwGraphicBufferProducer11queueBufferEiRKNS3_22IGraphicBufferProducer16QueueBufferInputENSt3__18functionIFviRKNS5_17QueueBufferOutputEEEE"
  }
  mangled_function_name: "_ZN7android8hardware8graphics11bufferqueue4V1_025BpHwGraphicBufferProducer11queueBufferEiRKNS3_22IGraphicBufferProducer16QueueBufferInputENSt3__18functionIFviRKNS5_17QueueBufferOutputEEEE"
  source_file: "/data/aosp/out/soong/.intermediates/hardware/interfaces/graphics/bufferqueue/1.0/android.hardware.graphics.bufferqueue@1.0_genc++_headers/gen/android/hardware/graphics/bufferqueue/1.0/BpHwGraphicBufferProducer.h"
  parameters {
    basic_abi {
      type_abi {
        name: "int"
        size: 4
        alignment: 4
      }
      name: "slot"
      access: public_access
      linker_set_key: "false"
    }
    default_arg: false
  }
  parameters {
    basic_abi {
      type_abi {
        name: "const android::hardware::graphics::bufferqueue::V1_0::IGraphicBufferProducer::QueueBufferInput &"
      }
      name: "input"
      access: public_access
      linker_set_key: "false"
    }
    default_arg: false
  }
  parameters {
    basic_abi {
      type_abi {
        name: "std::function<void (int, const QueueBufferOutput &)>"
      }
      name: "_hidl_cb"
      access: public_access
      linker_set_key: "false"
    }
    default_arg: false
  }
}
functions {
  basic_abi {
    type_abi {
      name: "android::hardware::Return<int>"
    }
    name: "android::hardware::graphics::bufferqueue::V1_0::BpHwGraphicBufferProducer::cancelBuffer"
    access: public_access
    linker_set_key: "_ZN7android8hardware8graphics11bufferqueue4V1_025BpHwGraphicBufferProducer12cancelBufferEiRKNS0_11hidl_handleE"
  }
  mangled_function_name: "_ZN7android8hardware8graphics11bufferqueue4V1_025BpHwGraphicBufferProducer12cancelBufferEiRKNS0_11hidl_handleE"
  source_file: "/data/aosp/out/soong/.intermediates/hardware/interfaces/graphics/bufferqueue/1.0/android.hardware.graphics.bufferqueue@1.0_genc++_headers/gen/android/hardware/graphics/bufferqueue/1.0/BpHwGraphicBufferProducer.h"
  parameters {
    basic_abi {
      type_abi {
        name: "int"
        size: 4
        alignment: 4
      }
      name: "slot"
      access: public_access
      linker_set_key: "false"
    }
    default_arg: false
  }
  parameters {
    basic_abi {
      type_abi {
        name: "const android::hardware::hidl_handle &"
      }
      name: "fence"
      access: public_access
      linker_set_key: "false"
    }
    default_arg: false
  }
}
functions {
  basic_abi {
    type_abi {
      name: "android::hardware::Return<void>"
    }
    name: "android::hardware::graphics::bufferqueue::V1_0::BpHwGraphicBufferProducer::query"
    access: public_access
    linker_set_key: "_ZN7android8hardware8graphics11bufferqueue4V1_025BpHwGraphicBufferProducer5queryEiNSt3__18functionIFviiEEE"
  }
  mangled_function_name: "_ZN7android8hardware8graphics11bufferqueue4V1_025BpHwGraphicBufferProducer5queryEiNSt3__18functionIFviiEEE"
  source_file: "/data/aosp/out/soong/.intermediates/hardware/interfaces/graphics/bufferqueue/1.0/android.hardware.graphics.bufferqueue@1.0_genc++_headers/gen/android/hardware/graphics/bufferqueue/1.0/BpHwGraphicBufferProducer.h"
  parameters {
    basic_abi {
      type_abi {
        name: "int"
        size: 4
        alignment: 4
      }
      name: "what"
      access: public_access
      linker_set_key: "false"
    }
    default_arg: false
  }
  parameters {
    basic_abi {
      type_abi {
        name: "std::function<void (int, int)>"
      }
      name: "_hidl_cb"
      access: public_access
      linker_set_key: "false"
    }
    default_arg: false
  }
}
functions {
  basic_abi {
    type_abi {
      name: "android::hardware::Return<void>"
    }
    name: "android::hardware::graphics::bufferqueue::V1_0::BpHwGraphicBufferProducer::connect"
    access: public_access
    linker_set_key: "_ZN7android8hardware8graphics11bufferqueue4V1_025BpHwGraphicBufferProducer7connectERKNS_2spINS3_17IProducerListenerEEEibNSt3__18functionIFviRKNS3_22IGraphicBufferProducer17QueueBufferOutputEEEE"
  }
  mangled_function_name: "_ZN7android8hardware8graphics11bufferqueue4V1_025BpHwGraphicBufferProducer7connectERKNS_2spINS3_17IProducerListenerEEEibNSt3__18functionIFviRKNS3_22IGraphicBufferProducer17QueueBufferOutputEEEE"
  source_file: "/data/aosp/out/soong/.intermediates/hardware/interfaces/graphics/bufferqueue/1.0/android.hardware.graphics.bufferqueue@1.0_genc++_headers/gen/android/hardware/graphics/bufferqueue/1.0/BpHwGraphicBufferProducer.h"
  parameters {
    basic_abi {
      type_abi {
        name: "const android::sp<android::hardware::graphics::bufferqueue::V1_0::IProducerListener> &"
      }
      name: "listener"
      access: public_access
      linker_set_key: "false"
    }
    default_arg: false
  }
  parameters {
    basic_abi {
      type_abi {
        name: "int"
        size: 4
        alignment: 4
      }
      name: "api"
      access: public_access
      linker_set_key: "false"
    }
    default_arg: false
  }
  parameters {
    basic_abi {
      type_abi {
        name: "bool"
        size: 1
        alignment: 1
      }
      name: "producerControlledByApp"
      access: public_access
      linker_set_key: "false"
    }
    default_arg: false
  }
  parameters {
    basic_abi {
      type_abi {
        name: "std::function<void (int, const QueueBufferOutput &)>"
      }
      name: "_hidl_cb"
      access: public_access
      linker_set_key: "false"
    }
    default_arg: false
  }
}
functions {
  basic_abi {
    type_abi {
      name: "android::hardware::Return<int>"
    }
    name: "android::hardware::graphics::bufferqueue::V1_0::BpHwGraphicBufferProducer::disconnect"
    access: public_access
    linker_set_key: "_ZN7android8hardware8graphics11bufferqueue4V1_025BpHwGraphicBufferProducer10disconnectEiNS3_22IGraphicBufferProducer14DisconnectModeE"
  }
  mangled_function_name: "_ZN7android8hardware8graphics11bufferqueue4V1_025BpHwGraphicBufferProducer10disconnectEiNS3_22IGraphicBufferProducer14DisconnectModeE"
  source_file: "/data/aosp/out/soong/.intermediates/hardware/interfaces/graphics/bufferqueue/1.0/android.hardware.graphics.bufferqueue@1.0_genc++_headers/gen/android/hardware/graphics/bufferqueue/1.0/BpHwGraphicBufferProducer.h"
  parameters {
    basic_abi {
      type_abi {
        name: "int"
        size: 4
        alignment: 4
      }
      name: "api"
      access: public_access
      linker_set_key: "false"
    }
    default_arg: false
  }
  parameters {
    basic_abi {
      type_abi {
        name: "android::hardware::graphics::bufferqueue::V1_0::IGraphicBufferProducer::DisconnectMode"
      }
      name: "mode"
      access: public_access
      linker_set_key: "false"
    }
    default_arg: false
  }
}
functions {
  basic_abi {
    type_abi {
      name: "android::hardware::Return<int>"
    }
    name: "android::hardware::graphics::bufferqueue::V1_0::BpHwGraphicBufferProducer::setSidebandStream"
    access: public_access
    linker_set_key: "_ZN7android8hardware8graphics11bufferqueue4V1_025BpHwGraphicBufferProducer17setSidebandStreamERKNS0_11hidl_handleE"
  }
  mangled_function_name: "_ZN7android8hardware8graphics11bufferqueue4V1_025BpHwGraphicBufferProducer17setSidebandStreamERKNS0_11hidl_handleE"
  source_file: "/data/aosp/out/soong/.intermediates/hardware/interfaces/graphics/bufferqueue/1.0/android.hardware.graphics.bufferqueue@1.0_genc++_headers/gen/android/hardware/graphics/bufferqueue/1.0/BpHwGraphicBufferProducer.h"
  parameters {
    basic_abi {
      type_abi {
        name: "const android::hardware::hidl_handle &"
      }
      name: "stream"
      access: public_access
      linker_set_key: "false"
    }
    default_arg: false
  }
}
functions {
  basic_abi {
    type_abi {
      name: "android::hardware::Return<void>"
    }
    name: "android::hardware::graphics::bufferqueue::V1_0::BpHwGraphicBufferProducer::allocateBuffers"
    access: public_access
    linker_set_key: "_ZN7android8hardware8graphics11bufferqueue4V1_025BpHwGraphicBufferProducer15allocateBuffersEjjNS1_6common4V1_011PixelFormatEj"
  }
  mangled_function_name: "_ZN7android8hardware8graphics11bufferqueue4V1_025BpHwGraphicBufferProducer15allocateBuffersEjjNS1_6common4V1_011PixelFormatEj"
  source_file: "/data/aosp/out/soong/.intermediates/hardware/interfaces/graphics/bufferqueue/1.0/android.hardware.graphics.bufferqueue@1.0_genc++_headers/gen/android/hardware/graphics/bufferqueue/1.0/BpHwGraphicBufferProducer.h"
  parameters {
    basic_abi {
      type_abi {
        name: "unsigned int"
        size: 4
        alignment: 4
      }
      name: "width"
      access: public_access
      linker_set_key: "false"
    }
    default_arg: false
  }
  parameters {
    basic_abi {
      type_abi {
        name: "unsigned int"
        size: 4
        alignment: 4
      }
      name: "height"
      access: public_access
      linker_set_key: "false"
    }
    default_arg: false
  }
  parameters {
    basic_abi {
      type_abi {
        name: "android::hardware::graphics::common::V1_0::PixelFormat"
      }
      name: "format"
      access: public_access
      linker_set_key: "false"
    }
    default_arg: false
  }
  parameters {
    basic_abi {
      type_abi {
        name: "unsigned int"
        size: 4
        alignment: 4
      }
      name: "usage"
      access: public_access
      linker_set_key: "false"
    }
    default_arg: false
  }
}
functions {
  basic_abi {
    type_abi {
      name: "android::hardware::Return<int>"
    }
    name: "android::hardware::graphics::bufferqueue::V1_0::BpHwGraphicBufferProducer::allowAllocation"
    access: public_access
    linker_set_key: "_ZN7android8hardware8graphics11bufferqueue4V1_025BpHwGraphicBufferProducer15allowAllocationEb"
  }
  mangled_function_name: "_ZN7android8hardware8graphics11bufferqueue4V1_025BpHwGraphicBufferProducer15allowAllocationEb"
  source_file: "/data/aosp/out/soong/.intermediates/hardware/interfaces/graphics/bufferqueue/1.0/android.hardware.graphics.bufferqueue@1.0_genc++_headers/gen/android/hardware/graphics/bufferqueue/1.0/BpHwGraphicBufferProducer.h"
  parameters {
    basic_abi {
      type_abi {
        name: "bool"
        size: 1
        alignment: 1
      }
      name: "allow"
      access: public_access
      linker_set_key: "false"
    }
    default_arg: false
  }
}
functions {
  basic_abi {
    type_abi {
      name: "android::hardware::Return<int>"
    }
    name: "android::hardware::graphics::bufferqueue::V1_0::BpHwGraphicBufferProducer::setGenerationNumber"
    access: public_access
    linker_set_key: "_ZN7android8hardware8graphics11bufferqueue4V1_025BpHwGraphicBufferProducer19setGenerationNumberEj"
  }
  mangled_function_name: "_ZN7android8hardware8graphics11bufferqueue4V1_025BpHwGraphicBufferProducer19setGenerationNumberEj"
  source_file: "/data/aosp/out/soong/.intermediates/hardware/interfaces/graphics/bufferqueue/1.0/android.hardware.graphics.bufferqueue@1.0_genc++_headers/gen/android/hardware/graphics/bufferqueue/1.0/BpHwGraphicBufferProducer.h"
  parameters {
    basic_abi {
      type_abi {
        name: "unsigned int"
        size: 4
        alignment: 4
      }
      name: "generationNumber"
      access: public_access
      linker_set_key: "false"
    }
    default_arg: false
  }
}
functions {
  basic_abi {
    type_abi {
      name: "android::hardware::Return<void>"
    }
    name: "android::hardware::graphics::bufferqueue::V1_0::BpHwGraphicBufferProducer::getConsumerName"
    access: public_access
    linker_set_key: "_ZN7android8hardware8graphics11bufferqueue4V1_025BpHwGraphicBufferProducer15getConsumerNameENSt3__18functionIFvRKNS0_11hidl_stringEEEE"
  }
  mangled_function_name: "_ZN7android8hardware8graphics11bufferqueue4V1_025BpHwGraphicBufferProducer15getConsumerNameENSt3__18functionIFvRKNS0_11hidl_stringEEEE"
  source_file: "/data/aosp/out/soong/.intermediates/hardware/interfaces/graphics/bufferqueue/1.0/android.hardware.graphics.bufferqueue@1.0_genc++_headers/gen/android/hardware/graphics/bufferqueue/1.0/BpHwGraphicBufferProducer.h"
  parameters {
    basic_abi {
      type_abi {
        name: "std::function<void (const hidl_string &)>"
      }
      name: "_hidl_cb"
      access: public_access
      linker_set_key: "false"
    }
    default_arg: false
  }
}
functions {
  basic_abi {
    type_abi {
      name: "android::hardware::Return<int>"
    }
    name: "android::hardware::graphics::bufferqueue::V1_0::BpHwGraphicBufferProducer::setSharedBufferMode"
    access: public_access
    linker_set_key: "_ZN7android8hardware8graphics11bufferqueue4V1_025BpHwGraphicBufferProducer19setSharedBufferModeEb"
  }
  mangled_function_name: "_ZN7android8hardware8graphics11bufferqueue4V1_025BpHwGraphicBufferProducer19setSharedBufferModeEb"
  source_file: "/data/aosp/out/soong/.intermediates/hardware/interfaces/graphics/bufferqueue/1.0/android.hardware.graphics.bufferqueue@1.0_genc++_headers/gen/android/hardware/graphics/bufferqueue/1.0/BpHwGraphicBufferProducer.h"
  parameters {
    basic_abi {
      type_abi {
        name: "bool"
        size: 1
        alignment: 1
      }
      name: "sharedBufferMode"
      access: public_access
      linker_set_key: "false"
    }
    default_arg: false
  }
}
functions {
  basic_abi {
    type_abi {
      name: "android::hardware::Return<int>"
    }
    name: "android::hardware::graphics::bufferqueue::V1_0::BpHwGraphicBufferProducer::setAutoRefresh"
    access: public_access
    linker_set_key: "_ZN7android8hardware8graphics11bufferqueue4V1_025BpHwGraphicBufferProducer14setAutoRefreshEb"
  }
  mangled_function_name: "_ZN7android8hardware8graphics11bufferqueue4V1_025BpHwGraphicBufferProducer14setAutoRefreshEb"
  source_file: "/data/aosp/out/soong/.intermediates/hardware/interfaces/graphics/bufferqueue/1.0/android.hardware.graphics.bufferqueue@1.0_genc++_headers/gen/android/hardware/graphics/bufferqueue/1.0/BpHwGraphicBufferProducer.h"
  parameters {
    basic_abi {
      type_abi {
        name: "bool"
        size: 1
        alignment: 1
      }
      name: "autoRefresh"
      access: public_access
      linker_set_key: "false"
    }
    default_arg: false
  }
}
functions {
  basic_abi {
    type_abi {
      name: "android::hardware::Return<int>"
    }
    name: "android::hardware::graphics::bufferqueue::V1_0::BpHwGraphicBufferProducer::setDequeueTimeout"
    access: public_access
    linker_set_key: "_ZN7android8hardware8graphics11bufferqueue4V1_025BpHwGraphicBufferProducer17setDequeueTimeoutEx"
  }
  mangled_function_name: "_ZN7android8hardware8graphics11bufferqueue4V1_025BpHwGraphicBufferProducer17setDequeueTimeoutEx"
  source_file: "/data/aosp/out/soong/.intermediates/hardware/interfaces/graphics/bufferqueue/1.0/android.hardware.graphics.bufferqueue@1.0_genc++_headers/gen/android/hardware/graphics/bufferqueue/1.0/BpHwGraphicBufferProducer.h"
  parameters {
    basic_abi {
      type_abi {
        name: "long long"
        size: 8
        alignment: 8
      }
      name: "timeoutNs"
      access: public_access
      linker_set_key: "false"
    }
    default_arg: false
  }
}
functions {
  basic_abi {
    type_abi {
      name: "android::hardware::Return<void>"
    }
    name: "android::hardware::graphics::bufferqueue::V1_0::BpHwGraphicBufferProducer::getLastQueuedBuffer"
    access: public_access
    linker_set_key: "_ZN7android8hardware8graphics11bufferqueue4V1_025BpHwGraphicBufferProducer19getLastQueuedBufferENSt3__18functionIFviRKNS0_5media4V1_09AnwBufferERKNS0_11hidl_handleERKNS0_10hidl_arrayIfLj16EJEEEEEE"
  }
  mangled_function_name: "_ZN7android8hardware8graphics11bufferqueue4V1_025BpHwGraphicBufferProducer19getLastQueuedBufferENSt3__18functionIFviRKNS0_5media4V1_09AnwBufferERKNS0_11hidl_handleERKNS0_10hidl_arrayIfLj16EJEEEEEE"
  source_file: "/data/aosp/out/soong/.intermediates/hardware/interfaces/graphics/bufferqueue/1.0/android.hardware.graphics.bufferqueue@1.0_genc++_headers/gen/android/hardware/graphics/bufferqueue/1.0/BpHwGraphicBufferProducer.h"
  parameters {
    basic_abi {
      type_abi {
        name: "std::function<void (int, const AnwBuffer &, const hidl_handle &, const hidl_array<float, 16> &)>"
      }
      name: "_hidl_cb"
      access: public_access
      linker_set_key: "false"
    }
    default_arg: false
  }
}
functions {
  basic_abi {
    type_abi {
      name: "android::hardware::Return<void>"
    }
    name: "android::hardware::graphics::bufferqueue::V1_0::BpHwGraphicBufferProducer::getFrameTimestamps"
    access: public_access
    linker_set_key: "_ZN7android8hardware8graphics11bufferqueue4V1_025BpHwGraphicBufferProducer18getFrameTimestampsENSt3__18functionIFvRKNS3_22IGraphicBufferProducer22FrameEventHistoryDeltaEEEE"
  }
  mangled_function_name: "_ZN7android8hardware8graphics11bufferqueue4V1_025BpHwGraphicBufferProducer18getFrameTimestampsENSt3__18functionIFvRKNS3_22IGraphicBufferProducer22FrameEventHistoryDeltaEEEE"
  source_file: "/data/aosp/out/soong/.intermediates/hardware/interfaces/graphics/bufferqueue/1.0/android.hardware.graphics.bufferqueue@1.0_genc++_headers/gen/android/hardware/graphics/bufferqueue/1.0/BpHwGraphicBufferProducer.h"
  parameters {
    basic_abi {
      type_abi {
        name: "std::function<void (const FrameEventHistoryDelta &)>"
      }
      name: "_hidl_cb"
      access: public_access
      linker_set_key: "false"
    }
    default_arg: false
  }
}
functions {
  basic_abi {
    type_abi {
      name: "android::hardware::Return<void>"
    }
    name: "android::hardware::graphics::bufferqueue::V1_0::BpHwGraphicBufferProducer::getUniqueId"
    access: public_access
    linker_set_key: "_ZN7android8hardware8graphics11bufferqueue4V1_025BpHwGraphicBufferProducer11getUniqueIdENSt3__18functionIFviyEEE"
  }
  mangled_function_name: "_ZN7android8hardware8graphics11bufferqueue4V1_025BpHwGraphicBufferProducer11getUniqueIdENSt3__18functionIFviyEEE"
  source_file: "/data/aosp/out/soong/.intermediates/hardware/interfaces/graphics/bufferqueue/1.0/android.hardware.graphics.bufferqueue@1.0_genc++_headers/gen/android/hardware/graphics/bufferqueue/1.0/BpHwGraphicBufferProducer.h"
  parameters {
    basic_abi {
      type_abi {
        name: "std::function<void (int, unsigned long long)>"
      }
      name: "_hidl_cb"
      access: public_access
      linker_set_key: "false"
    }
    default_arg: false
  }
}
functions {
  basic_abi {
    type_abi {
      name: "android::hardware::Return<void>"
    }
    name: "android::hardware::graphics::bufferqueue::V1_0::BpHwGraphicBufferProducer::interfaceChain"
    access: public_access
    linker_set_key: "_ZN7android8hardware8graphics11bufferqueue4V1_025BpHwGraphicBufferProducer14interfaceChainENSt3__18functionIFvRKNS0_8hidl_vecINS0_11hidl_stringEEEEEE"
  }
  mangled_function_name: "_ZN7android8hardware8graphics11bufferqueue4V1_025BpHwGraphicBufferProducer14interfaceChainENSt3__18functionIFvRKNS0_8hidl_vecINS0_11hidl_stringEEEEEE"
  source_file: "/data/aosp/out/soong/.intermediates/hardware/interfaces/graphics/bufferqueue/1.0/android.hardware.graphics.bufferqueue@1.0_genc++_headers/gen/android/hardware/graphics/bufferqueue/1.0/BpHwGraphicBufferProducer.h"
  parameters {
    basic_abi {
      type_abi {
        name: "std::function<void (const hidl_vec<hidl_string> &)>"
      }
      name: "_hidl_cb"
      access: public_access
      linker_set_key: "false"
    }
    default_arg: false
  }
}
functions {
  basic_abi {
    type_abi {
      name: "android::hardware::Return<void>"
    }
    name: "android::hardware::graphics::bufferqueue::V1_0::BpHwGraphicBufferProducer::debug"
    access: public_access
    linker_set_key: "_ZN7android8hardware8graphics11bufferqueue4V1_025BpHwGraphicBufferProducer5debugERKNS0_11hidl_handleERKNS0_8hidl_vecINS0_11hidl_stringEEE"
  }
  mangled_function_name: "_ZN7android8hardware8graphics11bufferqueue4V1_025BpHwGraphicBufferProducer5debugERKNS0_11hidl_handleERKNS0_8hidl_vecINS0_11hidl_stringEEE"
  source_file: "/data/aosp/out/soong/.intermediates/hardware/interfaces/graphics/bufferqueue/1.0/android.hardware.graphics.bufferqueue@1.0_genc++_headers/gen/android/hardware/graphics/bufferqueue/1.0/BpHwGraphicBufferProducer.h"
  parameters {
    basic_abi {
      type_abi {
        name: "const android::hardware::hidl_handle &"
      }
      name: "fd"
      access: public_access
      linker_set_key: "false"
    }
    default_arg: false
  }
  parameters {
    basic_abi {
      type_abi {
        name: "const android::hardware::hidl_vec<android::hardware::hidl_string> &"
      }
      name: "options"
      access: public_access
      linker_set_key: "false"
    }
    default_arg: false
  }
}
functions {
  basic_abi {
    type_abi {
      name: "android::hardware::Return<void>"
    }
    name: "android::hardware::graphics::bufferqueue::V1_0::BpHwGraphicBufferProducer::interfaceDescriptor"
    access: public_access
    linker_set_key: "_ZN7android8hardware8graphics11bufferqueue4V1_025BpHwGraphicBufferProducer19interfaceDescriptorENSt3__18functionIFvRKNS0_11hidl_stringEEEE"
  }
  mangled_function_name: "_ZN7android8hardware8graphics11bufferqueue4V1_025BpHwGraphicBufferProducer19interfaceDescriptorENSt3__18functionIFvRKNS0_11hidl_stringEEEE"
  source_file: "/data/aosp/out/soong/.intermediates/hardware/interfaces/graphics/bufferqueue/1.0/android.hardware.graphics.bufferqueue@1.0_genc++_headers/gen/android/hardware/graphics/bufferqueue/1.0/BpHwGraphicBufferProducer.h"
  parameters {
    basic_abi {
      type_abi {
        name: "std::function<void (const hidl_string &)>"
      }
      name: "_hidl_cb"
      access: public_access
      linker_set_key: "false"
    }
    default_arg: false
  }
}
functions {
  basic_abi {
    type_abi {
      name: "android::hardware::Return<void>"
    }
    name: "android::hardware::graphics::bufferqueue::V1_0::BpHwGraphicBufferProducer::getHashChain"
    access: public_access
    linker_set_key: "_ZN7android8hardware8graphics11bufferqueue4V1_025BpHwGraphicBufferProducer12getHashChainENSt3__18functionIFvRKNS0_8hidl_vecINS0_10hidl_arrayIhLj32EJEEEEEEEE"
  }
  mangled_function_name: "_ZN7android8hardware8graphics11bufferqueue4V1_025BpHwGraphicBufferProducer12getHashChainENSt3__18functionIFvRKNS0_8hidl_vecINS0_10hidl_arrayIhLj32EJEEEEEEEE"
  source_file: "/data/aosp/out/soong/.intermediates/hardware/interfaces/graphics/bufferqueue/1.0/android.hardware.graphics.bufferqueue@1.0_genc++_headers/gen/android/hardware/graphics/bufferqueue/1.0/BpHwGraphicBufferProducer.h"
  parameters {
    basic_abi {
      type_abi {
        name: "std::function<void (const hidl_vec<hidl_array<unsigned char, 32> > &)>"
      }
      name: "_hidl_cb"
      access: public_access
      linker_set_key: "false"
    }
    default_arg: false
  }
}
functions {
  basic_abi {
    type_abi {
      name: "android::hardware::Return<void>"
    }
    name: "android::hardware::graphics::bufferqueue::V1_0::BpHwGraphicBufferProducer::setHALInstrumentation"
    access: public_access
    linker_set_key: "_ZN7android8hardware8graphics11bufferqueue4V1_025BpHwGraphicBufferProducer21setHALInstrumentationEv"
  }
  mangled_function_name: "_ZN7android8hardware8graphics11bufferqueue4V1_025BpHwGraphicBufferProducer21setHALInstrumentationEv"
  source_file: "/data/aosp/out/soong/.intermediates/hardware/interfaces/graphics/bufferqueue/1.0/android.hardware.graphics.bufferqueue@1.0_genc++_headers/gen/android/hardware/graphics/bufferqueue/1.0/BpHwGraphicBufferProducer.h"
}
functions {
  basic_abi {
    type_abi {
      name: "android::hardware::Return<bool>"
    }
    name: "android::hardware::graphics::bufferqueue::V1_0::BpHwGraphicBufferProducer::linkToDeath"
    access: public_access
    linker_set_key: "_ZN7android8hardware8graphics11bufferqueue4V1_025BpHwGraphicBufferProducer11linkToDeathERKNS_2spINS0_20hidl_death_recipientEEEy"
  }
  mangled_function_name: "_ZN7android8hardware8graphics11bufferqueue4V1_025BpHwGraphicBufferProducer11linkToDeathERKNS_2spINS0_20hidl_death_recipientEEEy"
  source_file: "/data/aosp/out/soong/.intermediates/hardware/interfaces/graphics/bufferqueue/1.0/android.hardware.graphics.bufferqueue@1.0_genc++_headers/gen/android/hardware/graphics/bufferqueue/1.0/BpHwGraphicBufferProducer.h"
  parameters {
    basic_abi {
      type_abi {
        name: "const android::sp<android::hardware::hidl_death_recipient> &"
      }
      name: "recipient"
      access: public_access
      linker_set_key: "false"
    }
    default_arg: false
  }
  parameters {
    basic_abi {
      type_abi {
        name: "unsigned long long"
        size: 8
        alignment: 8
      }
      name: "cookie"
      access: public_access
      linker_set_key: "false"
    }
    default_arg: false
  }
}
functions {
  basic_abi {
    type_abi {
      name: "android::hardware::Return<void>"
    }
    name: "android::hardware::graphics::bufferqueue::V1_0::BpHwGraphicBufferProducer::ping"
    access: public_access
    linker_set_key: "_ZN7android8hardware8graphics11bufferqueue4V1_025BpHwGraphicBufferProducer4pingEv"
  }
  mangled_function_name: "_ZN7android8hardware8graphics11bufferqueue4V1_025BpHwGraphicBufferProducer4pingEv"
  source_file: "/data/aosp/out/soong/.intermediates/hardware/interfaces/graphics/bufferqueue/1.0/android.hardware.graphics.bufferqueue@1.0_genc++_headers/gen/android/hardware/graphics/bufferqueue/1.0/BpHwGraphicBufferProducer.h"
}
functions {
  basic_abi {
    type_abi {
      name: "android::hardware::Return<void>"
    }
    name: "android::hardware::graphics::bufferqueue::V1_0::BpHwGraphicBufferProducer::getDebugInfo"
    access: public_access
    linker_set_key: "_ZN7android8hardware8graphics11bufferqueue4V1_025BpHwGraphicBufferProducer12getDebugInfoENSt3__18functionIFvRKNS_4hidl4base4V1_09DebugInfoEEEE"
  }
  mangled_function_name: "_ZN7android8hardware8graphics11bufferqueue4V1_025BpHwGraphicBufferProducer12getDebugInfoENSt3__18functionIFvRKNS_4hidl4base4V1_09DebugInfoEEEE"
  source_file: "/data/aosp/out/soong/.intermediates/hardware/interfaces/graphics/bufferqueue/1.0/android.hardware.graphics.bufferqueue@1.0_genc++_headers/gen/android/hardware/graphics/bufferqueue/1.0/BpHwGraphicBufferProducer.h"
  parameters {
    basic_abi {
      type_abi {
        name: "std::function<void (const DebugInfo &)>"
      }
      name: "_hidl_cb"
      access: public_access
      linker_set_key: "false"
    }
    default_arg: false
  }
}
functions {
  basic_abi {
    type_abi {
      name: "android::hardware::Return<void>"
    }
    name: "android::hardware::graphics::bufferqueue::V1_0::BpHwGraphicBufferProducer::notifySyspropsChanged"
    access: public_access
    linker_set_key: "_ZN7android8hardware8graphics11bufferqueue4V1_025BpHwGraphicBufferProducer21notifySyspropsChangedEv"
  }
  mangled_function_name: "_ZN7android8hardware8graphics11bufferqueue4V1_025BpHwGraphicBufferProducer21notifySyspropsChangedEv"
  source_file: "/data/aosp/out/soong/.intermediates/hardware/interfaces/graphics/bufferqueue/1.0/android.hardware.graphics.bufferqueue@1.0_genc++_headers/gen/android/hardware/graphics/bufferqueue/1.0/BpHwGraphicBufferProducer.h"
}
functions {
  basic_abi {
    type_abi {
      name: "android::hardware::Return<bool>"
    }
    name: "android::hardware::graphics::bufferqueue::V1_0::BpHwGraphicBufferProducer::unlinkToDeath"
    access: public_access
    linker_set_key: "_ZN7android8hardware8graphics11bufferqueue4V1_025BpHwGraphicBufferProducer13unlinkToDeathERKNS_2spINS0_20hidl_death_recipientEEE"
  }
  mangled_function_name: "_ZN7android8hardware8graphics11bufferqueue4V1_025BpHwGraphicBufferProducer13unlinkToDeathERKNS_2spINS0_20hidl_death_recipientEEE"
  source_file: "/data/aosp/out/soong/.intermediates/hardware/interfaces/graphics/bufferqueue/1.0/android.hardware.graphics.bufferqueue@1.0_genc++_headers/gen/android/hardware/graphics/bufferqueue/1.0/BpHwGraphicBufferProducer.h"
  parameters {
    basic_abi {
      type_abi {
        name: "const android::sp<android::hardware::hidl_death_recipient> &"
      }
      name: "recipient"
      access: public_access
      linker_set_key: "false"
    }
    default_arg: false
  }
}
functions {
  basic_abi {
    type_abi {
      name: "void"
    }
    name: "android::hardware::graphics::bufferqueue::V1_0::BnHwGraphicBufferProducer::BnHwGraphicBufferProducer"
    access: public_access
    linker_set_key: "_ZN7android8hardware8graphics11bufferqueue4V1_025BnHwGraphicBufferProducerC2ERKNS_2spINS3_22IGraphicBufferProducerEEE"
  }
  mangled_function_name: "_ZN7android8hardware8graphics11bufferqueue4V1_025BnHwGraphicBufferProducerC2ERKNS_2spINS3_22IGraphicBufferProducerEEE"
  source_file: "/data/aosp/out/soong/.intermediates/hardware/interfaces/graphics/bufferqueue/1.0/android.hardware.graphics.bufferqueue@1.0_genc++_headers/gen/android/hardware/graphics/bufferqueue/1.0/BnHwGraphicBufferProducer.h"
  parameters {
    basic_abi {
      type_abi {
        name: "const android::sp<android::hardware::graphics::bufferqueue::V1_0::IGraphicBufferProducer> &"
      }
      name: "_hidl_impl"
      access: public_access
      linker_set_key: "false"
    }
    default_arg: false
  }
}
functions {
  basic_abi {
    type_abi {
      name: "void"
    }
    name: "android::hardware::graphics::bufferqueue::V1_0::BnHwGraphicBufferProducer::BnHwGraphicBufferProducer"
    access: public_access
    linker_set_key: "_ZN7android8hardware8graphics11bufferqueue4V1_025BnHwGraphicBufferProducerC1ERKNS_2spINS3_22IGraphicBufferProducerEEE"
  }
  mangled_function_name: "_ZN7android8hardware8graphics11bufferqueue4V1_025BnHwGraphicBufferProducerC1ERKNS_2spINS3_22IGraphicBufferProducerEEE"
  source_file: "/data/aosp/out/soong/.intermediates/hardware/interfaces/graphics/bufferqueue/1.0/android.hardware.graphics.bufferqueue@1.0_genc++_headers/gen/android/hardware/graphics/bufferqueue/1.0/BnHwGraphicBufferProducer.h"
  parameters {
    basic_abi {
      type_abi {
        name: "const android::sp<android::hardware::graphics::bufferqueue::V1_0::IGraphicBufferProducer> &"
      }
      name: "_hidl_impl"
      access: public_access
      linker_set_key: "false"
    }
    default_arg: false
  }
}
functions {
  basic_abi {
    type_abi {
      name: "void"
    }
    name: "android::hardware::graphics::bufferqueue::V1_0::BnHwGraphicBufferProducer::BnHwGraphicBufferProducer"
    access: public_access
    linker_set_key: "_ZN7android8hardware8graphics11bufferqueue4V1_025BnHwGraphicBufferProducerC2ERKNS_2spINS3_22IGraphicBufferProducerEEERKNSt3__112basic_stringIcNSA_11char_traitsIcEENSA_9allocatorIcEEEESI_"
  }
  mangled_function_name: "_ZN7android8hardware8graphics11bufferqueue4V1_025BnHwGraphicBufferProducerC2ERKNS_2spINS3_22IGraphicBufferProducerEEERKNSt3__112basic_stringIcNSA_11char_traitsIcEENSA_9allocatorIcEEEESI_"
  source_file: "/data/aosp/out/soong/.intermediates/hardware/interfaces/graphics/bufferqueue/1.0/android.hardware.graphics.bufferqueue@1.0_genc++_headers/gen/android/hardware/graphics/bufferqueue/1.0/BnHwGraphicBufferProducer.h"
  parameters {
    basic_abi {
      type_abi {
        name: "const android::sp<android::hardware::graphics::bufferqueue::V1_0::IGraphicBufferProducer> &"
      }
      name: "_hidl_impl"
      access: public_access
      linker_set_key: "false"
    }
    default_arg: false
  }
  parameters {
    basic_abi {
      type_abi {
        name: "const std::basic_string<char, std::char_traits<char>, std::allocator<char> > &"
      }
      name: "HidlInstrumentor_package"
      access: public_access
      linker_set_key: "false"
    }
    default_arg: false
  }
  parameters {
    basic_abi {
      type_abi {
        name: "const std::basic_string<char, std::char_traits<char>, std::allocator<char> > &"
      }
      name: "HidlInstrumentor_interface"
      access: public_access
      linker_set_key: "false"
    }
    default_arg: false
  }
}
functions {
  basic_abi {
    type_abi {
      name: "void"
    }
    name: "android::hardware::graphics::bufferqueue::V1_0::BnHwGraphicBufferProducer::BnHwGraphicBufferProducer"
    access: public_access
    linker_set_key: "_ZN7android8hardware8graphics11bufferqueue4V1_025BnHwGraphicBufferProducerC1ERKNS_2spINS3_22IGraphicBufferProducerEEERKNSt3__112basic_stringIcNSA_11char_traitsIcEENSA_9allocatorIcEEEESI_"
  }
  mangled_function_name: "_ZN7android8hardware8graphics11bufferqueue4V1_025BnHwGraphicBufferProducerC1ERKNS_2spINS3_22IGraphicBufferProducerEEERKNSt3__112basic_stringIcNSA_11char_traitsIcEENSA_9allocatorIcEEEESI_"
  source_file: "/data/aosp/out/soong/.intermediates/hardware/interfaces/graphics/bufferqueue/1.0/android.hardware.graphics.bufferqueue@1.0_genc++_headers/gen/android/hardware/graphics/bufferqueue/1.0/BnHwGraphicBufferProducer.h"
  parameters {
    basic_abi {
      type_abi {
        name: "const android::sp<android::hardware::graphics::bufferqueue::V1_0::IGraphicBufferProducer> &"
      }
      name: "_hidl_impl"
      access: public_access
      linker_set_key: "false"
    }
    default_arg: false
  }
  parameters {
    basic_abi {
      type_abi {
        name: "const std::basic_string<char, std::char_traits<char>, std::allocator<char> > &"
      }
      name: "HidlInstrumentor_package"
      access: public_access
      linker_set_key: "false"
    }
    default_arg: false
  }
  parameters {
    basic_abi {
      type_abi {
        name: "const std::basic_string<char, std::char_traits<char>, std::allocator<char> > &"
      }
      name: "HidlInstrumentor_interface"
      access: public_access
      linker_set_key: "false"
    }
    default_arg: false
  }
}
functions {
  basic_abi {
    type_abi {
      name: "void"
    }
    name: "android::hardware::graphics::bufferqueue::V1_0::BnHwGraphicBufferProducer::~BnHwGraphicBufferProducer"
    access: public_access
    linker_set_key: "_ZN7android8hardware8graphics11bufferqueue4V1_025BnHwGraphicBufferProducerD2Ev"
  }
  mangled_function_name: "_ZN7android8hardware8graphics11bufferqueue4V1_025BnHwGraphicBufferProducerD2Ev"
  source_file: "/data/aosp/out/soong/.intermediates/hardware/interfaces/graphics/bufferqueue/1.0/android.hardware.graphics.bufferqueue@1.0_genc++_headers/gen/android/hardware/graphics/bufferqueue/1.0/BnHwGraphicBufferProducer.h"
}
functions {
  basic_abi {
    type_abi {
      name: "void"
    }
    name: "android::hardware::graphics::bufferqueue::V1_0::BnHwGraphicBufferProducer::~BnHwGraphicBufferProducer"
    access: public_access
    linker_set_key: "_ZN7android8hardware8graphics11bufferqueue4V1_025BnHwGraphicBufferProducerD1Ev"
  }
  mangled_function_name: "_ZN7android8hardware8graphics11bufferqueue4V1_025BnHwGraphicBufferProducerD1Ev"
  source_file: "/data/aosp/out/soong/.intermediates/hardware/interfaces/graphics/bufferqueue/1.0/android.hardware.graphics.bufferqueue@1.0_genc++_headers/gen/android/hardware/graphics/bufferqueue/1.0/BnHwGraphicBufferProducer.h"
}
functions {
  basic_abi {
    type_abi {
      name: "void"
    }
    name: "android::hardware::graphics::bufferqueue::V1_0::BnHwGraphicBufferProducer::~BnHwGraphicBufferProducer"
    access: public_access
    linker_set_key: "_ZN7android8hardware8graphics11bufferqueue4V1_025BnHwGraphicBufferProducerD0Ev"
  }
  mangled_function_name: "_ZN7android8hardware8graphics11bufferqueue4V1_025BnHwGraphicBufferProducerD0Ev"
  source_file: "/data/aosp/out/soong/.intermediates/hardware/interfaces/graphics/bufferqueue/1.0/android.hardware.graphics.bufferqueue@1.0_genc++_headers/gen/android/hardware/graphics/bufferqueue/1.0/BnHwGraphicBufferProducer.h"
}
functions {
  basic_abi {
    type_abi {
      name: "int"
      size: 4
      alignment: 4
    }
    name: "android::hardware::graphics::bufferqueue::V1_0::BnHwGraphicBufferProducer::onTransact"
    access: public_access
    linker_set_key: "_ZN7android8hardware8graphics11bufferqueue4V1_025BnHwGraphicBufferProducer10onTransactEjRKNS0_6ParcelEPS5_jNSt3__18functionIFvRS5_EEE"
  }
  mangled_function_name: "_ZN7android8hardware8graphics11bufferqueue4V1_025BnHwGraphicBufferProducer10onTransactEjRKNS0_6ParcelEPS5_jNSt3__18functionIFvRS5_EEE"
  source_file: "/data/aosp/out/soong/.intermediates/hardware/interfaces/graphics/bufferqueue/1.0/android.hardware.graphics.bufferqueue@1.0_genc++_headers/gen/android/hardware/graphics/bufferqueue/1.0/BnHwGraphicBufferProducer.h"
  parameters {
    basic_abi {
      type_abi {
        name: "unsigned int"
        size: 4
        alignment: 4
      }
      name: "_hidl_code"
      access: public_access
      linker_set_key: "false"
    }
    default_arg: false
  }
  parameters {
    basic_abi {
      type_abi {
        name: "const android::hardware::Parcel &"
      }
      name: "_hidl_data"
      access: public_access
      linker_set_key: "false"
    }
    default_arg: false
  }
  parameters {
    basic_abi {
      type_abi {
        name: "android::hardware::Parcel *"
        size: 4
        alignment: 4
      }
      name: "_hidl_reply"
      access: public_access
      linker_set_key: "false"
    }
    default_arg: false
  }
  parameters {
    basic_abi {
      type_abi {
        name: "unsigned int"
        size: 4
        alignment: 4
      }
      name: "_hidl_flags"
      access: public_access
      linker_set_key: "true"
    }
    default_arg: true
  }
  parameters {
    basic_abi {
      type_abi {
        name: "std::function<void (Parcel &)>"
      }
      name: "_hidl_cb"
      access: public_access
      linker_set_key: "true"
    }
    default_arg: true
  }
}
functions {
  basic_abi {
    type_abi {
      name: "android::sp<android::hardware::graphics::bufferqueue::V1_0::IGraphicBufferProducer>"
    }
    name: "android::hardware::graphics::bufferqueue::V1_0::BnHwGraphicBufferProducer::getImpl"
    access: public_access
    linker_set_key: "_ZN7android8hardware8graphics11bufferqueue4V1_025BnHwGraphicBufferProducer7getImplEv"
  }
  mangled_function_name: "_ZN7android8hardware8graphics11bufferqueue4V1_025BnHwGraphicBufferProducer7getImplEv"
  source_file: "/data/aosp/out/soong/.intermediates/hardware/interfaces/graphics/bufferqueue/1.0/android.hardware.graphics.bufferqueue@1.0_genc++_headers/gen/android/hardware/graphics/bufferqueue/1.0/BnHwGraphicBufferProducer.h"
}
functions {
  basic_abi {
    type_abi {
      name: "int"
      size: 4
      alignment: 4
    }
    name: "android::hardware::graphics::bufferqueue::V1_0::BnHwGraphicBufferProducer::_hidl_requestBuffer"
    access: public_access
    linker_set_key: "_ZN7android8hardware8graphics11bufferqueue4V1_025BnHwGraphicBufferProducer19_hidl_requestBufferEPNS_4hidl4base4V1_08BnHwBaseERKNS0_6ParcelEPSA_NSt3__18functionIFvRSA_EEE"
  }
  mangled_function_name: "_ZN7android8hardware8graphics11bufferqueue4V1_025BnHwGraphicBufferProducer19_hidl_requestBufferEPNS_4hidl4base4V1_08BnHwBaseERKNS0_6ParcelEPSA_NSt3__18functionIFvRSA_EEE"
  source_file: "/data/aosp/out/soong/.intermediates/hardware/interfaces/graphics/bufferqueue/1.0/android.hardware.graphics.bufferqueue@1.0_genc++_headers/gen/android/hardware/graphics/bufferqueue/1.0/BnHwGraphicBufferProducer.h"
  parameters {
    basic_abi {
      type_abi {
        name: "android::hidl::base::V1_0::BnHwBase *"
        size: 4
        alignment: 4
      }
      name: "_hidl_this"
      access: public_access
      linker_set_key: "false"
    }
    default_arg: false
  }
  parameters {
    basic_abi {
      type_abi {
        name: "const android::hardware::Parcel &"
      }
      name: "_hidl_data"
      access: public_access
      linker_set_key: "false"
    }
    default_arg: false
  }
  parameters {
    basic_abi {
      type_abi {
        name: "android::hardware::Parcel *"
        size: 4
        alignment: 4
      }
      name: "_hidl_reply"
      access: public_access
      linker_set_key: "false"
    }
    default_arg: false
  }
  parameters {
    basic_abi {
      type_abi {
        name: "std::function<void (Parcel &)>"
      }
      name: "_hidl_cb"
      access: public_access
      linker_set_key: "false"
    }
    default_arg: false
  }
}
functions {
  basic_abi {
    type_abi {
      name: "int"
      size: 4
      alignment: 4
    }
    name: "android::hardware::graphics::bufferqueue::V1_0::BnHwGraphicBufferProducer::_hidl_setMaxDequeuedBufferCount"
    access: public_access
    linker_set_key: "_ZN7android8hardware8graphics11bufferqueue4V1_025BnHwGraphicBufferProducer31_hidl_setMaxDequeuedBufferCountEPNS_4hidl4base4V1_08BnHwBaseERKNS0_6ParcelEPSA_NSt3__18functionIFvRSA_EEE"
  }
  mangled_function_name: "_ZN7android8hardware8graphics11bufferqueue4V1_025BnHwGraphicBufferProducer31_hidl_setMaxDequeuedBufferCountEPNS_4hidl4base4V1_08BnHwBaseERKNS0_6ParcelEPSA_NSt3__18functionIFvRSA_EEE"
  source_file: "/data/aosp/out/soong/.intermediates/hardware/interfaces/graphics/bufferqueue/1.0/android.hardware.graphics.bufferqueue@1.0_genc++_headers/gen/android/hardware/graphics/bufferqueue/1.0/BnHwGraphicBufferProducer.h"
  parameters {
    basic_abi {
      type_abi {
        name: "android::hidl::base::V1_0::BnHwBase *"
        size: 4
        alignment: 4
      }
      name: "_hidl_this"
      access: public_access
      linker_set_key: "false"
    }
    default_arg: false
  }
  parameters {
    basic_abi {
      type_abi {
        name: "const android::hardware::Parcel &"
      }
      name: "_hidl_data"
      access: public_access
      linker_set_key: "false"
    }
    default_arg: false
  }
  parameters {
    basic_abi {
      type_abi {
        name: "android::hardware::Parcel *"
        size: 4
        alignment: 4
      }
      name: "_hidl_reply"
      access: public_access
      linker_set_key: "false"
    }
    default_arg: false
  }
  parameters {
    basic_abi {
      type_abi {
        name: "std::function<void (Parcel &)>"
      }
      name: "_hidl_cb"
      access: public_access
      linker_set_key: "false"
    }
    default_arg: false
  }
}
functions {
  basic_abi {
    type_abi {
      name: "int"
      size: 4
      alignment: 4
    }
    name: "android::hardware::graphics::bufferqueue::V1_0::BnHwGraphicBufferProducer::_hidl_setAsyncMode"
    access: public_access
    linker_set_key: "_ZN7android8hardware8graphics11bufferqueue4V1_025BnHwGraphicBufferProducer18_hidl_setAsyncModeEPNS_4hidl4base4V1_08BnHwBaseERKNS0_6ParcelEPSA_NSt3__18functionIFvRSA_EEE"
  }
  mangled_function_name: "_ZN7android8hardware8graphics11bufferqueue4V1_025BnHwGraphicBufferProducer18_hidl_setAsyncModeEPNS_4hidl4base4V1_08BnHwBaseERKNS0_6ParcelEPSA_NSt3__18functionIFvRSA_EEE"
  source_file: "/data/aosp/out/soong/.intermediates/hardware/interfaces/graphics/bufferqueue/1.0/android.hardware.graphics.bufferqueue@1.0_genc++_headers/gen/android/hardware/graphics/bufferqueue/1.0/BnHwGraphicBufferProducer.h"
  parameters {
    basic_abi {
      type_abi {
        name: "android::hidl::base::V1_0::BnHwBase *"
        size: 4
        alignment: 4
      }
      name: "_hidl_this"
      access: public_access
      linker_set_key: "false"
    }
    default_arg: false
  }
  parameters {
    basic_abi {
      type_abi {
        name: "const android::hardware::Parcel &"
      }
      name: "_hidl_data"
      access: public_access
      linker_set_key: "false"
    }
    default_arg: false
  }
  parameters {
    basic_abi {
      type_abi {
        name: "android::hardware::Parcel *"
        size: 4
        alignment: 4
      }
      name: "_hidl_reply"
      access: public_access
      linker_set_key: "false"
    }
    default_arg: false
  }
  parameters {
    basic_abi {
      type_abi {
        name: "std::function<void (Parcel &)>"
      }
      name: "_hidl_cb"
      access: public_access
      linker_set_key: "false"
    }
    default_arg: false
  }
}
functions {
  basic_abi {
    type_abi {
      name: "int"
      size: 4
      alignment: 4
    }
    name: "android::hardware::graphics::bufferqueue::V1_0::BnHwGraphicBufferProducer::_hidl_dequeueBuffer"
    access: public_access
    linker_set_key: "_ZN7android8hardware8graphics11bufferqueue4V1_025BnHwGraphicBufferProducer19_hidl_dequeueBufferEPNS_4hidl4base4V1_08BnHwBaseERKNS0_6ParcelEPSA_NSt3__18functionIFvRSA_EEE"
  }
  mangled_function_name: "_ZN7android8hardware8graphics11bufferqueue4V1_025BnHwGraphicBufferProducer19_hidl_dequeueBufferEPNS_4hidl4base4V1_08BnHwBaseERKNS0_6ParcelEPSA_NSt3__18functionIFvRSA_EEE"
  source_file: "/data/aosp/out/soong/.intermediates/hardware/interfaces/graphics/bufferqueue/1.0/android.hardware.graphics.bufferqueue@1.0_genc++_headers/gen/android/hardware/graphics/bufferqueue/1.0/BnHwGraphicBufferProducer.h"
  parameters {
    basic_abi {
      type_abi {
        name: "android::hidl::base::V1_0::BnHwBase *"
        size: 4
        alignment: 4
      }
      name: "_hidl_this"
      access: public_access
      linker_set_key: "false"
    }
    default_arg: false
  }
  parameters {
    basic_abi {
      type_abi {
        name: "const android::hardware::Parcel &"
      }
      name: "_hidl_data"
      access: public_access
      linker_set_key: "false"
    }
    default_arg: false
  }
  parameters {
    basic_abi {
      type_abi {
        name: "android::hardware::Parcel *"
        size: 4
        alignment: 4
      }
      name: "_hidl_reply"
      access: public_access
      linker_set_key: "false"
    }
    default_arg: false
  }
  parameters {
    basic_abi {
      type_abi {
        name: "std::function<void (Parcel &)>"
      }
      name: "_hidl_cb"
      access: public_access
      linker_set_key: "false"
    }
    default_arg: false
  }
}
functions {
  basic_abi {
    type_abi {
      name: "int"
      size: 4
      alignment: 4
    }
    name: "android::hardware::graphics::bufferqueue::V1_0::BnHwGraphicBufferProducer::_hidl_detachBuffer"
    access: public_access
    linker_set_key: "_ZN7android8hardware8graphics11bufferqueue4V1_025BnHwGraphicBufferProducer18_hidl_detachBufferEPNS_4hidl4base4V1_08BnHwBaseERKNS0_6ParcelEPSA_NSt3__18functionIFvRSA_EEE"
  }
  mangled_function_name: "_ZN7android8hardware8graphics11bufferqueue4V1_025BnHwGraphicBufferProducer18_hidl_detachBufferEPNS_4hidl4base4V1_08BnHwBaseERKNS0_6ParcelEPSA_NSt3__18functionIFvRSA_EEE"
  source_file: "/data/aosp/out/soong/.intermediates/hardware/interfaces/graphics/bufferqueue/1.0/android.hardware.graphics.bufferqueue@1.0_genc++_headers/gen/android/hardware/graphics/bufferqueue/1.0/BnHwGraphicBufferProducer.h"
  parameters {
    basic_abi {
      type_abi {
        name: "android::hidl::base::V1_0::BnHwBase *"
        size: 4
        alignment: 4
      }
      name: "_hidl_this"
      access: public_access
      linker_set_key: "false"
    }
    default_arg: false
  }
  parameters {
    basic_abi {
      type_abi {
        name: "const android::hardware::Parcel &"
      }
      name: "_hidl_data"
      access: public_access
      linker_set_key: "false"
    }
    default_arg: false
  }
  parameters {
    basic_abi {
      type_abi {
        name: "android::hardware::Parcel *"
        size: 4
        alignment: 4
      }
      name: "_hidl_reply"
      access: public_access
      linker_set_key: "false"
    }
    default_arg: false
  }
  parameters {
    basic_abi {
      type_abi {
        name: "std::function<void (Parcel &)>"
      }
      name: "_hidl_cb"
      access: public_access
      linker_set_key: "false"
    }
    default_arg: false
  }
}
functions {
  basic_abi {
    type_abi {
      name: "int"
      size: 4
      alignment: 4
    }
    name: "android::hardware::graphics::bufferqueue::V1_0::BnHwGraphicBufferProducer::_hidl_detachNextBuffer"
    access: public_access
    linker_set_key: "_ZN7android8hardware8graphics11bufferqueue4V1_025BnHwGraphicBufferProducer22_hidl_detachNextBufferEPNS_4hidl4base4V1_08BnHwBaseERKNS0_6ParcelEPSA_NSt3__18functionIFvRSA_EEE"
  }
  mangled_function_name: "_ZN7android8hardware8graphics11bufferqueue4V1_025BnHwGraphicBufferProducer22_hidl_detachNextBufferEPNS_4hidl4base4V1_08BnHwBaseERKNS0_6ParcelEPSA_NSt3__18functionIFvRSA_EEE"
  source_file: "/data/aosp/out/soong/.intermediates/hardware/interfaces/graphics/bufferqueue/1.0/android.hardware.graphics.bufferqueue@1.0_genc++_headers/gen/android/hardware/graphics/bufferqueue/1.0/BnHwGraphicBufferProducer.h"
  parameters {
    basic_abi {
      type_abi {
        name: "android::hidl::base::V1_0::BnHwBase *"
        size: 4
        alignment: 4
      }
      name: "_hidl_this"
      access: public_access
      linker_set_key: "false"
    }
    default_arg: false
  }
  parameters {
    basic_abi {
      type_abi {
        name: "const android::hardware::Parcel &"
      }
      name: "_hidl_data"
      access: public_access
      linker_set_key: "false"
    }
    default_arg: false
  }
  parameters {
    basic_abi {
      type_abi {
        name: "android::hardware::Parcel *"
        size: 4
        alignment: 4
      }
      name: "_hidl_reply"
      access: public_access
      linker_set_key: "false"
    }
    default_arg: false
  }
  parameters {
    basic_abi {
      type_abi {
        name: "std::function<void (Parcel &)>"
      }
      name: "_hidl_cb"
      access: public_access
      linker_set_key: "false"
    }
    default_arg: false
  }
}
functions {
  basic_abi {
    type_abi {
      name: "int"
      size: 4
      alignment: 4
    }
    name: "android::hardware::graphics::bufferqueue::V1_0::BnHwGraphicBufferProducer::_hidl_attachBuffer"
    access: public_access
    linker_set_key: "_ZN7android8hardware8graphics11bufferqueue4V1_025BnHwGraphicBufferProducer18_hidl_attachBufferEPNS_4hidl4base4V1_08BnHwBaseERKNS0_6ParcelEPSA_NSt3__18functionIFvRSA_EEE"
  }
  mangled_function_name: "_ZN7android8hardware8graphics11bufferqueue4V1_025BnHwGraphicBufferProducer18_hidl_attachBufferEPNS_4hidl4base4V1_08BnHwBaseERKNS0_6ParcelEPSA_NSt3__18functionIFvRSA_EEE"
  source_file: "/data/aosp/out/soong/.intermediates/hardware/interfaces/graphics/bufferqueue/1.0/android.hardware.graphics.bufferqueue@1.0_genc++_headers/gen/android/hardware/graphics/bufferqueue/1.0/BnHwGraphicBufferProducer.h"
  parameters {
    basic_abi {
      type_abi {
        name: "android::hidl::base::V1_0::BnHwBase *"
        size: 4
        alignment: 4
      }
      name: "_hidl_this"
      access: public_access
      linker_set_key: "false"
    }
    default_arg: false
  }
  parameters {
    basic_abi {
      type_abi {
        name: "const android::hardware::Parcel &"
      }
      name: "_hidl_data"
      access: public_access
      linker_set_key: "false"
    }
    default_arg: false
  }
  parameters {
    basic_abi {
      type_abi {
        name: "android::hardware::Parcel *"
        size: 4
        alignment: 4
      }
      name: "_hidl_reply"
      access: public_access
      linker_set_key: "false"
    }
    default_arg: false
  }
  parameters {
    basic_abi {
      type_abi {
        name: "std::function<void (Parcel &)>"
      }
      name: "_hidl_cb"
      access: public_access
      linker_set_key: "false"
    }
    default_arg: false
  }
}
functions {
  basic_abi {
    type_abi {
      name: "int"
      size: 4
      alignment: 4
    }
    name: "android::hardware::graphics::bufferqueue::V1_0::BnHwGraphicBufferProducer::_hidl_queueBuffer"
    access: public_access
    linker_set_key: "_ZN7android8hardware8graphics11bufferqueue4V1_025BnHwGraphicBufferProducer17_hidl_queueBufferEPNS_4hidl4base4V1_08BnHwBaseERKNS0_6ParcelEPSA_NSt3__18functionIFvRSA_EEE"
  }
  mangled_function_name: "_ZN7android8hardware8graphics11bufferqueue4V1_025BnHwGraphicBufferProducer17_hidl_queueBufferEPNS_4hidl4base4V1_08BnHwBaseERKNS0_6ParcelEPSA_NSt3__18functionIFvRSA_EEE"
  source_file: "/data/aosp/out/soong/.intermediates/hardware/interfaces/graphics/bufferqueue/1.0/android.hardware.graphics.bufferqueue@1.0_genc++_headers/gen/android/hardware/graphics/bufferqueue/1.0/BnHwGraphicBufferProducer.h"
  parameters {
    basic_abi {
      type_abi {
        name: "android::hidl::base::V1_0::BnHwBase *"
        size: 4
        alignment: 4
      }
      name: "_hidl_this"
      access: public_access
      linker_set_key: "false"
    }
    default_arg: false
  }
  parameters {
    basic_abi {
      type_abi {
        name: "const android::hardware::Parcel &"
      }
      name: "_hidl_data"
      access: public_access
      linker_set_key: "false"
    }
    default_arg: false
  }
  parameters {
    basic_abi {
      type_abi {
        name: "android::hardware::Parcel *"
        size: 4
        alignment: 4
      }
      name: "_hidl_reply"
      access: public_access
      linker_set_key: "false"
    }
    default_arg: false
  }
  parameters {
    basic_abi {
      type_abi {
        name: "std::function<void (Parcel &)>"
      }
      name: "_hidl_cb"
      access: public_access
      linker_set_key: "false"
    }
    default_arg: false
  }
}
functions {
  basic_abi {
    type_abi {
      name: "int"
      size: 4
      alignment: 4
    }
    name: "android::hardware::graphics::bufferqueue::V1_0::BnHwGraphicBufferProducer::_hidl_cancelBuffer"
    access: public_access
    linker_set_key: "_ZN7android8hardware8graphics11bufferqueue4V1_025BnHwGraphicBufferProducer18_hidl_cancelBufferEPNS_4hidl4base4V1_08BnHwBaseERKNS0_6ParcelEPSA_NSt3__18functionIFvRSA_EEE"
  }
  mangled_function_name: "_ZN7android8hardware8graphics11bufferqueue4V1_025BnHwGraphicBufferProducer18_hidl_cancelBufferEPNS_4hidl4base4V1_08BnHwBaseERKNS0_6ParcelEPSA_NSt3__18functionIFvRSA_EEE"
  source_file: "/data/aosp/out/soong/.intermediates/hardware/interfaces/graphics/bufferqueue/1.0/android.hardware.graphics.bufferqueue@1.0_genc++_headers/gen/android/hardware/graphics/bufferqueue/1.0/BnHwGraphicBufferProducer.h"
  parameters {
    basic_abi {
      type_abi {
        name: "android::hidl::base::V1_0::BnHwBase *"
        size: 4
        alignment: 4
      }
      name: "_hidl_this"
      access: public_access
      linker_set_key: "false"
    }
    default_arg: false
  }
  parameters {
    basic_abi {
      type_abi {
        name: "const android::hardware::Parcel &"
      }
      name: "_hidl_data"
      access: public_access
      linker_set_key: "false"
    }
    default_arg: false
  }
  parameters {
    basic_abi {
      type_abi {
        name: "android::hardware::Parcel *"
        size: 4
        alignment: 4
      }
      name: "_hidl_reply"
      access: public_access
      linker_set_key: "false"
    }
    default_arg: false
  }
  parameters {
    basic_abi {
      type_abi {
        name: "std::function<void (Parcel &)>"
      }
      name: "_hidl_cb"
      access: public_access
      linker_set_key: "false"
    }
    default_arg: false
  }
}
functions {
  basic_abi {
    type_abi {
      name: "int"
      size: 4
      alignment: 4
    }
    name: "android::hardware::graphics::bufferqueue::V1_0::BnHwGraphicBufferProducer::_hidl_query"
    access: public_access
    linker_set_key: "_ZN7android8hardware8graphics11bufferqueue4V1_025BnHwGraphicBufferProducer11_hidl_queryEPNS_4hidl4base4V1_08BnHwBaseERKNS0_6ParcelEPSA_NSt3__18functionIFvRSA_EEE"
  }
  mangled_function_name: "_ZN7android8hardware8graphics11bufferqueue4V1_025BnHwGraphicBufferProducer11_hidl_queryEPNS_4hidl4base4V1_08BnHwBaseERKNS0_6ParcelEPSA_NSt3__18functionIFvRSA_EEE"
  source_file: "/data/aosp/out/soong/.intermediates/hardware/interfaces/graphics/bufferqueue/1.0/android.hardware.graphics.bufferqueue@1.0_genc++_headers/gen/android/hardware/graphics/bufferqueue/1.0/BnHwGraphicBufferProducer.h"
  parameters {
    basic_abi {
      type_abi {
        name: "android::hidl::base::V1_0::BnHwBase *"
        size: 4
        alignment: 4
      }
      name: "_hidl_this"
      access: public_access
      linker_set_key: "false"
    }
    default_arg: false
  }
  parameters {
    basic_abi {
      type_abi {
        name: "const android::hardware::Parcel &"
      }
      name: "_hidl_data"
      access: public_access
      linker_set_key: "false"
    }
    default_arg: false
  }
  parameters {
    basic_abi {
      type_abi {
        name: "android::hardware::Parcel *"
        size: 4
        alignment: 4
      }
      name: "_hidl_reply"
      access: public_access
      linker_set_key: "false"
    }
    default_arg: false
  }
  parameters {
    basic_abi {
      type_abi {
        name: "std::function<void (Parcel &)>"
      }
      name: "_hidl_cb"
      access: public_access
      linker_set_key: "false"
    }
    default_arg: false
  }
}
functions {
  basic_abi {
    type_abi {
      name: "int"
      size: 4
      alignment: 4
    }
    name: "android::hardware::graphics::bufferqueue::V1_0::BnHwGraphicBufferProducer::_hidl_connect"
    access: public_access
    linker_set_key: "_ZN7android8hardware8graphics11bufferqueue4V1_025BnHwGraphicBufferProducer13_hidl_connectEPNS_4hidl4base4V1_08BnHwBaseERKNS0_6ParcelEPSA_NSt3__18functionIFvRSA_EEE"
  }
  mangled_function_name: "_ZN7android8hardware8graphics11bufferqueue4V1_025BnHwGraphicBufferProducer13_hidl_connectEPNS_4hidl4base4V1_08BnHwBaseERKNS0_6ParcelEPSA_NSt3__18functionIFvRSA_EEE"
  source_file: "/data/aosp/out/soong/.intermediates/hardware/interfaces/graphics/bufferqueue/1.0/android.hardware.graphics.bufferqueue@1.0_genc++_headers/gen/android/hardware/graphics/bufferqueue/1.0/BnHwGraphicBufferProducer.h"
  parameters {
    basic_abi {
      type_abi {
        name: "android::hidl::base::V1_0::BnHwBase *"
        size: 4
        alignment: 4
      }
      name: "_hidl_this"
      access: public_access
      linker_set_key: "false"
    }
    default_arg: false
  }
  parameters {
    basic_abi {
      type_abi {
        name: "const android::hardware::Parcel &"
      }
      name: "_hidl_data"
      access: public_access
      linker_set_key: "false"
    }
    default_arg: false
  }
  parameters {
    basic_abi {
      type_abi {
        name: "android::hardware::Parcel *"
        size: 4
        alignment: 4
      }
      name: "_hidl_reply"
      access: public_access
      linker_set_key: "false"
    }
    default_arg: false
  }
  parameters {
    basic_abi {
      type_abi {
        name: "std::function<void (Parcel &)>"
      }
      name: "_hidl_cb"
      access: public_access
      linker_set_key: "false"
    }
    default_arg: false
  }
}
functions {
  basic_abi {
    type_abi {
      name: "int"
      size: 4
      alignment: 4
    }
    name: "android::hardware::graphics::bufferqueue::V1_0::BnHwGraphicBufferProducer::_hidl_disconnect"
    access: public_access
    linker_set_key: "_ZN7android8hardware8graphics11bufferqueue4V1_025BnHwGraphicBufferProducer16_hidl_disconnectEPNS_4hidl4base4V1_08BnHwBaseERKNS0_6ParcelEPSA_NSt3__18functionIFvRSA_EEE"
  }
  mangled_function_name: "_ZN7android8hardware8graphics11bufferqueue4V1_025BnHwGraphicBufferProducer16_hidl_disconnectEPNS_4hidl4base4V1_08BnHwBaseERKNS0_6ParcelEPSA_NSt3__18functionIFvRSA_EEE"
  source_file: "/data/aosp/out/soong/.intermediates/hardware/interfaces/graphics/bufferqueue/1.0/android.hardware.graphics.bufferqueue@1.0_genc++_headers/gen/android/hardware/graphics/bufferqueue/1.0/BnHwGraphicBufferProducer.h"
  parameters {
    basic_abi {
      type_abi {
        name: "android::hidl::base::V1_0::BnHwBase *"
        size: 4
        alignment: 4
      }
      name: "_hidl_this"
      access: public_access
      linker_set_key: "false"
    }
    default_arg: false
  }
  parameters {
    basic_abi {
      type_abi {
        name: "const android::hardware::Parcel &"
      }
      name: "_hidl_data"
      access: public_access
      linker_set_key: "false"
    }
    default_arg: false
  }
  parameters {
    basic_abi {
      type_abi {
        name: "android::hardware::Parcel *"
        size: 4
        alignment: 4
      }
      name: "_hidl_reply"
      access: public_access
      linker_set_key: "false"
    }
    default_arg: false
  }
  parameters {
    basic_abi {
      type_abi {
        name: "std::function<void (Parcel &)>"
      }
      name: "_hidl_cb"
      access: public_access
      linker_set_key: "false"
    }
    default_arg: false
  }
}
functions {
  basic_abi {
    type_abi {
      name: "int"
      size: 4
      alignment: 4
    }
    name: "android::hardware::graphics::bufferqueue::V1_0::BnHwGraphicBufferProducer::_hidl_setSidebandStream"
    access: public_access
    linker_set_key: "_ZN7android8hardware8graphics11bufferqueue4V1_025BnHwGraphicBufferProducer23_hidl_setSidebandStreamEPNS_4hidl4base4V1_08BnHwBaseERKNS0_6ParcelEPSA_NSt3__18functionIFvRSA_EEE"
  }
  mangled_function_name: "_ZN7android8hardware8graphics11bufferqueue4V1_025BnHwGraphicBufferProducer23_hidl_setSidebandStreamEPNS_4hidl4base4V1_08BnHwBaseERKNS0_6ParcelEPSA_NSt3__18functionIFvRSA_EEE"
  source_file: "/data/aosp/out/soong/.intermediates/hardware/interfaces/graphics/bufferqueue/1.0/android.hardware.graphics.bufferqueue@1.0_genc++_headers/gen/android/hardware/graphics/bufferqueue/1.0/BnHwGraphicBufferProducer.h"
  parameters {
    basic_abi {
      type_abi {
        name: "android::hidl::base::V1_0::BnHwBase *"
        size: 4
        alignment: 4
      }
      name: "_hidl_this"
      access: public_access
      linker_set_key: "false"
    }
    default_arg: false
  }
  parameters {
    basic_abi {
      type_abi {
        name: "const android::hardware::Parcel &"
      }
      name: "_hidl_data"
      access: public_access
      linker_set_key: "false"
    }
    default_arg: false
  }
  parameters {
    basic_abi {
      type_abi {
        name: "android::hardware::Parcel *"
        size: 4
        alignment: 4
      }
      name: "_hidl_reply"
      access: public_access
      linker_set_key: "false"
    }
    default_arg: false
  }
  parameters {
    basic_abi {
      type_abi {
        name: "std::function<void (Parcel &)>"
      }
      name: "_hidl_cb"
      access: public_access
      linker_set_key: "false"
    }
    default_arg: false
  }
}
functions {
  basic_abi {
    type_abi {
      name: "int"
      size: 4
      alignment: 4
    }
    name: "android::hardware::graphics::bufferqueue::V1_0::BnHwGraphicBufferProducer::_hidl_allocateBuffers"
    access: public_access
    linker_set_key: "_ZN7android8hardware8graphics11bufferqueue4V1_025BnHwGraphicBufferProducer21_hidl_allocateBuffersEPNS_4hidl4base4V1_08BnHwBaseERKNS0_6ParcelEPSA_NSt3__18functionIFvRSA_EEE"
  }
  mangled_function_name: "_ZN7android8hardware8graphics11bufferqueue4V1_025BnHwGraphicBufferProducer21_hidl_allocateBuffersEPNS_4hidl4base4V1_08BnHwBaseERKNS0_6ParcelEPSA_NSt3__18functionIFvRSA_EEE"
  source_file: "/data/aosp/out/soong/.intermediates/hardware/interfaces/graphics/bufferqueue/1.0/android.hardware.graphics.bufferqueue@1.0_genc++_headers/gen/android/hardware/graphics/bufferqueue/1.0/BnHwGraphicBufferProducer.h"
  parameters {
    basic_abi {
      type_abi {
        name: "android::hidl::base::V1_0::BnHwBase *"
        size: 4
        alignment: 4
      }
      name: "_hidl_this"
      access: public_access
      linker_set_key: "false"
    }
    default_arg: false
  }
  parameters {
    basic_abi {
      type_abi {
        name: "const android::hardware::Parcel &"
      }
      name: "_hidl_data"
      access: public_access
      linker_set_key: "false"
    }
    default_arg: false
  }
  parameters {
    basic_abi {
      type_abi {
        name: "android::hardware::Parcel *"
        size: 4
        alignment: 4
      }
      name: "_hidl_reply"
      access: public_access
      linker_set_key: "false"
    }
    default_arg: false
  }
  parameters {
    basic_abi {
      type_abi {
        name: "std::function<void (Parcel &)>"
      }
      name: "_hidl_cb"
      access: public_access
      linker_set_key: "false"
    }
    default_arg: false
  }
}
functions {
  basic_abi {
    type_abi {
      name: "int"
      size: 4
      alignment: 4
    }
    name: "android::hardware::graphics::bufferqueue::V1_0::BnHwGraphicBufferProducer::_hidl_allowAllocation"
    access: public_access
    linker_set_key: "_ZN7android8hardware8graphics11bufferqueue4V1_025BnHwGraphicBufferProducer21_hidl_allowAllocationEPNS_4hidl4base4V1_08BnHwBaseERKNS0_6ParcelEPSA_NSt3__18functionIFvRSA_EEE"
  }
  mangled_function_name: "_ZN7android8hardware8graphics11bufferqueue4V1_025BnHwGraphicBufferProducer21_hidl_allowAllocationEPNS_4hidl4base4V1_08BnHwBaseERKNS0_6ParcelEPSA_NSt3__18functionIFvRSA_EEE"
  source_file: "/data/aosp/out/soong/.intermediates/hardware/interfaces/graphics/bufferqueue/1.0/android.hardware.graphics.bufferqueue@1.0_genc++_headers/gen/android/hardware/graphics/bufferqueue/1.0/BnHwGraphicBufferProducer.h"
  parameters {
    basic_abi {
      type_abi {
        name: "android::hidl::base::V1_0::BnHwBase *"
        size: 4
        alignment: 4
      }
      name: "_hidl_this"
      access: public_access
      linker_set_key: "false"
    }
    default_arg: false
  }
  parameters {
    basic_abi {
      type_abi {
        name: "const android::hardware::Parcel &"
      }
      name: "_hidl_data"
      access: public_access
      linker_set_key: "false"
    }
    default_arg: false
  }
  parameters {
    basic_abi {
      type_abi {
        name: "android::hardware::Parcel *"
        size: 4
        alignment: 4
      }
      name: "_hidl_reply"
      access: public_access
      linker_set_key: "false"
    }
    default_arg: false
  }
  parameters {
    basic_abi {
      type_abi {
        name: "std::function<void (Parcel &)>"
      }
      name: "_hidl_cb"
      access: public_access
      linker_set_key: "false"
    }
    default_arg: false
  }
}
functions {
  basic_abi {
    type_abi {
      name: "int"
      size: 4
      alignment: 4
    }
    name: "android::hardware::graphics::bufferqueue::V1_0::BnHwGraphicBufferProducer::_hidl_setGenerationNumber"
    access: public_access
    linker_set_key: "_ZN7android8hardware8graphics11bufferqueue4V1_025BnHwGraphicBufferProducer25_hidl_setGenerationNumberEPNS_4hidl4base4V1_08BnHwBaseERKNS0_6ParcelEPSA_NSt3__18functionIFvRSA_EEE"
  }
  mangled_function_name: "_ZN7android8hardware8graphics11bufferqueue4V1_025BnHwGraphicBufferProducer25_hidl_setGenerationNumberEPNS_4hidl4base4V1_08BnHwBaseERKNS0_6ParcelEPSA_NSt3__18functionIFvRSA_EEE"
  source_file: "/data/aosp/out/soong/.intermediates/hardware/interfaces/graphics/bufferqueue/1.0/android.hardware.graphics.bufferqueue@1.0_genc++_headers/gen/android/hardware/graphics/bufferqueue/1.0/BnHwGraphicBufferProducer.h"
  parameters {
    basic_abi {
      type_abi {
        name: "android::hidl::base::V1_0::BnHwBase *"
        size: 4
        alignment: 4
      }
      name: "_hidl_this"
      access: public_access
      linker_set_key: "false"
    }
    default_arg: false
  }
  parameters {
    basic_abi {
      type_abi {
        name: "const android::hardware::Parcel &"
      }
      name: "_hidl_data"
      access: public_access
      linker_set_key: "false"
    }
    default_arg: false
  }
  parameters {
    basic_abi {
      type_abi {
        name: "android::hardware::Parcel *"
        size: 4
        alignment: 4
      }
      name: "_hidl_reply"
      access: public_access
      linker_set_key: "false"
    }
    default_arg: false
  }
  parameters {
    basic_abi {
      type_abi {
        name: "std::function<void (Parcel &)>"
      }
      name: "_hidl_cb"
      access: public_access
      linker_set_key: "false"
    }
    default_arg: false
  }
}
functions {
  basic_abi {
    type_abi {
      name: "int"
      size: 4
      alignment: 4
    }
    name: "android::hardware::graphics::bufferqueue::V1_0::BnHwGraphicBufferProducer::_hidl_getConsumerName"
    access: public_access
    linker_set_key: "_ZN7android8hardware8graphics11bufferqueue4V1_025BnHwGraphicBufferProducer21_hidl_getConsumerNameEPNS_4hidl4base4V1_08BnHwBaseERKNS0_6ParcelEPSA_NSt3__18functionIFvRSA_EEE"
  }
  mangled_function_name: "_ZN7android8hardware8graphics11bufferqueue4V1_025BnHwGraphicBufferProducer21_hidl_getConsumerNameEPNS_4hidl4base4V1_08BnHwBaseERKNS0_6ParcelEPSA_NSt3__18functionIFvRSA_EEE"
  source_file: "/data/aosp/out/soong/.intermediates/hardware/interfaces/graphics/bufferqueue/1.0/android.hardware.graphics.bufferqueue@1.0_genc++_headers/gen/android/hardware/graphics/bufferqueue/1.0/BnHwGraphicBufferProducer.h"
  parameters {
    basic_abi {
      type_abi {
        name: "android::hidl::base::V1_0::BnHwBase *"
        size: 4
        alignment: 4
      }
      name: "_hidl_this"
      access: public_access
      linker_set_key: "false"
    }
    default_arg: false
  }
  parameters {
    basic_abi {
      type_abi {
        name: "const android::hardware::Parcel &"
      }
      name: "_hidl_data"
      access: public_access
      linker_set_key: "false"
    }
    default_arg: false
  }
  parameters {
    basic_abi {
      type_abi {
        name: "android::hardware::Parcel *"
        size: 4
        alignment: 4
      }
      name: "_hidl_reply"
      access: public_access
      linker_set_key: "false"
    }
    default_arg: false
  }
  parameters {
    basic_abi {
      type_abi {
        name: "std::function<void (Parcel &)>"
      }
      name: "_hidl_cb"
      access: public_access
      linker_set_key: "false"
    }
    default_arg: false
  }
}
functions {
  basic_abi {
    type_abi {
      name: "int"
      size: 4
      alignment: 4
    }
    name: "android::hardware::graphics::bufferqueue::V1_0::BnHwGraphicBufferProducer::_hidl_setSharedBufferMode"
    access: public_access
    linker_set_key: "_ZN7android8hardware8graphics11bufferqueue4V1_025BnHwGraphicBufferProducer25_hidl_setSharedBufferModeEPNS_4hidl4base4V1_08BnHwBaseERKNS0_6ParcelEPSA_NSt3__18functionIFvRSA_EEE"
  }
  mangled_function_name: "_ZN7android8hardware8graphics11bufferqueue4V1_025BnHwGraphicBufferProducer25_hidl_setSharedBufferModeEPNS_4hidl4base4V1_08BnHwBaseERKNS0_6ParcelEPSA_NSt3__18functionIFvRSA_EEE"
  source_file: "/data/aosp/out/soong/.intermediates/hardware/interfaces/graphics/bufferqueue/1.0/android.hardware.graphics.bufferqueue@1.0_genc++_headers/gen/android/hardware/graphics/bufferqueue/1.0/BnHwGraphicBufferProducer.h"
  parameters {
    basic_abi {
      type_abi {
        name: "android::hidl::base::V1_0::BnHwBase *"
        size: 4
        alignment: 4
      }
      name: "_hidl_this"
      access: public_access
      linker_set_key: "false"
    }
    default_arg: false
  }
  parameters {
    basic_abi {
      type_abi {
        name: "const android::hardware::Parcel &"
      }
      name: "_hidl_data"
      access: public_access
      linker_set_key: "false"
    }
    default_arg: false
  }
  parameters {
    basic_abi {
      type_abi {
        name: "android::hardware::Parcel *"
        size: 4
        alignment: 4
      }
      name: "_hidl_reply"
      access: public_access
      linker_set_key: "false"
    }
    default_arg: false
  }
  parameters {
    basic_abi {
      type_abi {
        name: "std::function<void (Parcel &)>"
      }
      name: "_hidl_cb"
      access: public_access
      linker_set_key: "false"
    }
    default_arg: false
  }
}
functions {
  basic_abi {
    type_abi {
      name: "int"
      size: 4
      alignment: 4
    }
    name: "android::hardware::graphics::bufferqueue::V1_0::BnHwGraphicBufferProducer::_hidl_setAutoRefresh"
    access: public_access
    linker_set_key: "_ZN7android8hardware8graphics11bufferqueue4V1_025BnHwGraphicBufferProducer20_hidl_setAutoRefreshEPNS_4hidl4base4V1_08BnHwBaseERKNS0_6ParcelEPSA_NSt3__18functionIFvRSA_EEE"
  }
  mangled_function_name: "_ZN7android8hardware8graphics11bufferqueue4V1_025BnHwGraphicBufferProducer20_hidl_setAutoRefreshEPNS_4hidl4base4V1_08BnHwBaseERKNS0_6ParcelEPSA_NSt3__18functionIFvRSA_EEE"
  source_file: "/data/aosp/out/soong/.intermediates/hardware/interfaces/graphics/bufferqueue/1.0/android.hardware.graphics.bufferqueue@1.0_genc++_headers/gen/android/hardware/graphics/bufferqueue/1.0/BnHwGraphicBufferProducer.h"
  parameters {
    basic_abi {
      type_abi {
        name: "android::hidl::base::V1_0::BnHwBase *"
        size: 4
        alignment: 4
      }
      name: "_hidl_this"
      access: public_access
      linker_set_key: "false"
    }
    default_arg: false
  }
  parameters {
    basic_abi {
      type_abi {
        name: "const android::hardware::Parcel &"
      }
      name: "_hidl_data"
      access: public_access
      linker_set_key: "false"
    }
    default_arg: false
  }
  parameters {
    basic_abi {
      type_abi {
        name: "android::hardware::Parcel *"
        size: 4
        alignment: 4
      }
      name: "_hidl_reply"
      access: public_access
      linker_set_key: "false"
    }
    default_arg: false
  }
  parameters {
    basic_abi {
      type_abi {
        name: "std::function<void (Parcel &)>"
      }
      name: "_hidl_cb"
      access: public_access
      linker_set_key: "false"
    }
    default_arg: false
  }
}
functions {
  basic_abi {
    type_abi {
      name: "int"
      size: 4
      alignment: 4
    }
    name: "android::hardware::graphics::bufferqueue::V1_0::BnHwGraphicBufferProducer::_hidl_setDequeueTimeout"
    access: public_access
    linker_set_key: "_ZN7android8hardware8graphics11bufferqueue4V1_025BnHwGraphicBufferProducer23_hidl_setDequeueTimeoutEPNS_4hidl4base4V1_08BnHwBaseERKNS0_6ParcelEPSA_NSt3__18functionIFvRSA_EEE"
  }
  mangled_function_name: "_ZN7android8hardware8graphics11bufferqueue4V1_025BnHwGraphicBufferProducer23_hidl_setDequeueTimeoutEPNS_4hidl4base4V1_08BnHwBaseERKNS0_6ParcelEPSA_NSt3__18functionIFvRSA_EEE"
  source_file: "/data/aosp/out/soong/.intermediates/hardware/interfaces/graphics/bufferqueue/1.0/android.hardware.graphics.bufferqueue@1.0_genc++_headers/gen/android/hardware/graphics/bufferqueue/1.0/BnHwGraphicBufferProducer.h"
  parameters {
    basic_abi {
      type_abi {
        name: "android::hidl::base::V1_0::BnHwBase *"
        size: 4
        alignment: 4
      }
      name: "_hidl_this"
      access: public_access
      linker_set_key: "false"
    }
    default_arg: false
  }
  parameters {
    basic_abi {
      type_abi {
        name: "const android::hardware::Parcel &"
      }
      name: "_hidl_data"
      access: public_access
      linker_set_key: "false"
    }
    default_arg: false
  }
  parameters {
    basic_abi {
      type_abi {
        name: "android::hardware::Parcel *"
        size: 4
        alignment: 4
      }
      name: "_hidl_reply"
      access: public_access
      linker_set_key: "false"
    }
    default_arg: false
  }
  parameters {
    basic_abi {
      type_abi {
        name: "std::function<void (Parcel &)>"
      }
      name: "_hidl_cb"
      access: public_access
      linker_set_key: "false"
    }
    default_arg: false
  }
}
functions {
  basic_abi {
    type_abi {
      name: "int"
      size: 4
      alignment: 4
    }
    name: "android::hardware::graphics::bufferqueue::V1_0::BnHwGraphicBufferProducer::_hidl_getLastQueuedBuffer"
    access: public_access
    linker_set_key: "_ZN7android8hardware8graphics11bufferqueue4V1_025BnHwGraphicBufferProducer25_hidl_getLastQueuedBufferEPNS_4hidl4base4V1_08BnHwBaseERKNS0_6ParcelEPSA_NSt3__18functionIFvRSA_EEE"
  }
  mangled_function_name: "_ZN7android8hardware8graphics11bufferqueue4V1_025BnHwGraphicBufferProducer25_hidl_getLastQueuedBufferEPNS_4hidl4base4V1_08BnHwBaseERKNS0_6ParcelEPSA_NSt3__18functionIFvRSA_EEE"
  source_file: "/data/aosp/out/soong/.intermediates/hardware/interfaces/graphics/bufferqueue/1.0/android.hardware.graphics.bufferqueue@1.0_genc++_headers/gen/android/hardware/graphics/bufferqueue/1.0/BnHwGraphicBufferProducer.h"
  parameters {
    basic_abi {
      type_abi {
        name: "android::hidl::base::V1_0::BnHwBase *"
        size: 4
        alignment: 4
      }
      name: "_hidl_this"
      access: public_access
      linker_set_key: "false"
    }
    default_arg: false
  }
  parameters {
    basic_abi {
      type_abi {
        name: "const android::hardware::Parcel &"
      }
      name: "_hidl_data"
      access: public_access
      linker_set_key: "false"
    }
    default_arg: false
  }
  parameters {
    basic_abi {
      type_abi {
        name: "android::hardware::Parcel *"
        size: 4
        alignment: 4
      }
      name: "_hidl_reply"
      access: public_access
      linker_set_key: "false"
    }
    default_arg: false
  }
  parameters {
    basic_abi {
      type_abi {
        name: "std::function<void (Parcel &)>"
      }
      name: "_hidl_cb"
      access: public_access
      linker_set_key: "false"
    }
    default_arg: false
  }
}
functions {
  basic_abi {
    type_abi {
      name: "int"
      size: 4
      alignment: 4
    }
    name: "android::hardware::graphics::bufferqueue::V1_0::BnHwGraphicBufferProducer::_hidl_getFrameTimestamps"
    access: public_access
    linker_set_key: "_ZN7android8hardware8graphics11bufferqueue4V1_025BnHwGraphicBufferProducer24_hidl_getFrameTimestampsEPNS_4hidl4base4V1_08BnHwBaseERKNS0_6ParcelEPSA_NSt3__18functionIFvRSA_EEE"
  }
  mangled_function_name: "_ZN7android8hardware8graphics11bufferqueue4V1_025BnHwGraphicBufferProducer24_hidl_getFrameTimestampsEPNS_4hidl4base4V1_08BnHwBaseERKNS0_6ParcelEPSA_NSt3__18functionIFvRSA_EEE"
  source_file: "/data/aosp/out/soong/.intermediates/hardware/interfaces/graphics/bufferqueue/1.0/android.hardware.graphics.bufferqueue@1.0_genc++_headers/gen/android/hardware/graphics/bufferqueue/1.0/BnHwGraphicBufferProducer.h"
  parameters {
    basic_abi {
      type_abi {
        name: "android::hidl::base::V1_0::BnHwBase *"
        size: 4
        alignment: 4
      }
      name: "_hidl_this"
      access: public_access
      linker_set_key: "false"
    }
    default_arg: false
  }
  parameters {
    basic_abi {
      type_abi {
        name: "const android::hardware::Parcel &"
      }
      name: "_hidl_data"
      access: public_access
      linker_set_key: "false"
    }
    default_arg: false
  }
  parameters {
    basic_abi {
      type_abi {
        name: "android::hardware::Parcel *"
        size: 4
        alignment: 4
      }
      name: "_hidl_reply"
      access: public_access
      linker_set_key: "false"
    }
    default_arg: false
  }
  parameters {
    basic_abi {
      type_abi {
        name: "std::function<void (Parcel &)>"
      }
      name: "_hidl_cb"
      access: public_access
      linker_set_key: "false"
    }
    default_arg: false
  }
}
functions {
  basic_abi {
    type_abi {
      name: "int"
      size: 4
      alignment: 4
    }
    name: "android::hardware::graphics::bufferqueue::V1_0::BnHwGraphicBufferProducer::_hidl_getUniqueId"
    access: public_access
    linker_set_key: "_ZN7android8hardware8graphics11bufferqueue4V1_025BnHwGraphicBufferProducer17_hidl_getUniqueIdEPNS_4hidl4base4V1_08BnHwBaseERKNS0_6ParcelEPSA_NSt3__18functionIFvRSA_EEE"
  }
  mangled_function_name: "_ZN7android8hardware8graphics11bufferqueue4V1_025BnHwGraphicBufferProducer17_hidl_getUniqueIdEPNS_4hidl4base4V1_08BnHwBaseERKNS0_6ParcelEPSA_NSt3__18functionIFvRSA_EEE"
  source_file: "/data/aosp/out/soong/.intermediates/hardware/interfaces/graphics/bufferqueue/1.0/android.hardware.graphics.bufferqueue@1.0_genc++_headers/gen/android/hardware/graphics/bufferqueue/1.0/BnHwGraphicBufferProducer.h"
  parameters {
    basic_abi {
      type_abi {
        name: "android::hidl::base::V1_0::BnHwBase *"
        size: 4
        alignment: 4
      }
      name: "_hidl_this"
      access: public_access
      linker_set_key: "false"
    }
    default_arg: false
  }
  parameters {
    basic_abi {
      type_abi {
        name: "const android::hardware::Parcel &"
      }
      name: "_hidl_data"
      access: public_access
      linker_set_key: "false"
    }
    default_arg: false
  }
  parameters {
    basic_abi {
      type_abi {
        name: "android::hardware::Parcel *"
        size: 4
        alignment: 4
      }
      name: "_hidl_reply"
      access: public_access
      linker_set_key: "false"
    }
    default_arg: false
  }
  parameters {
    basic_abi {
      type_abi {
        name: "std::function<void (Parcel &)>"
      }
      name: "_hidl_cb"
      access: public_access
      linker_set_key: "false"
    }
    default_arg: false
  }
}
functions {
  basic_abi {
    type_abi {
      name: "android::hardware::Return<void>"
    }
    name: "android::hardware::graphics::bufferqueue::V1_0::BnHwGraphicBufferProducer::ping"
    access: private_access
    linker_set_key: "_ZN7android8hardware8graphics11bufferqueue4V1_025BnHwGraphicBufferProducer4pingEv"
  }
  mangled_function_name: "_ZN7android8hardware8graphics11bufferqueue4V1_025BnHwGraphicBufferProducer4pingEv"
  source_file: "/data/aosp/out/soong/.intermediates/hardware/interfaces/graphics/bufferqueue/1.0/android.hardware.graphics.bufferqueue@1.0_genc++_headers/gen/android/hardware/graphics/bufferqueue/1.0/BnHwGraphicBufferProducer.h"
}
functions {
  basic_abi {
    type_abi {
      name: "android::hardware::Return<void>"
    }
    name: "android::hardware::graphics::bufferqueue::V1_0::BnHwGraphicBufferProducer::getDebugInfo"
    access: private_access
    linker_set_key: "_ZN7android8hardware8graphics11bufferqueue4V1_025BnHwGraphicBufferProducer12getDebugInfoENSt3__18functionIFvRKNS_4hidl4base4V1_09DebugInfoEEEE"
  }
  mangled_function_name: "_ZN7android8hardware8graphics11bufferqueue4V1_025BnHwGraphicBufferProducer12getDebugInfoENSt3__18functionIFvRKNS_4hidl4base4V1_09DebugInfoEEEE"
  source_file: "/data/aosp/out/soong/.intermediates/hardware/interfaces/graphics/bufferqueue/1.0/android.hardware.graphics.bufferqueue@1.0_genc++_headers/gen/android/hardware/graphics/bufferqueue/1.0/BnHwGraphicBufferProducer.h"
  parameters {
    basic_abi {
      type_abi {
        name: "std::function<void (const DebugInfo &)>"
      }
      name: "_hidl_cb"
      access: public_access
      linker_set_key: "false"
    }
    default_arg: false
  }
}
functions {
  basic_abi {
    type_abi {
      name: "void"
    }
    name: "android::hardware::graphics::bufferqueue::V1_0::BsGraphicBufferProducer::BsGraphicBufferProducer"
    access: public_access
    linker_set_key: "_ZN7android8hardware8graphics11bufferqueue4V1_023BsGraphicBufferProducerC2ENS_2spINS3_22IGraphicBufferProducerEEE"
  }
  mangled_function_name: "_ZN7android8hardware8graphics11bufferqueue4V1_023BsGraphicBufferProducerC2ENS_2spINS3_22IGraphicBufferProducerEEE"
  source_file: "/data/aosp/out/soong/.intermediates/hardware/interfaces/graphics/bufferqueue/1.0/android.hardware.graphics.bufferqueue@1.0_genc++_headers/gen/android/hardware/graphics/bufferqueue/1.0/BsGraphicBufferProducer.h"
  parameters {
    basic_abi {
      type_abi {
        name: "const android::sp<android::hardware::graphics::bufferqueue::V1_0::IGraphicBufferProducer>"
      }
      name: "impl"
      access: public_access
      linker_set_key: "false"
    }
    default_arg: false
  }
}
functions {
  basic_abi {
    type_abi {
      name: "void"
    }
    name: "android::hardware::graphics::bufferqueue::V1_0::BsGraphicBufferProducer::BsGraphicBufferProducer"
    access: public_access
    linker_set_key: "_ZN7android8hardware8graphics11bufferqueue4V1_023BsGraphicBufferProducerC1ENS_2spINS3_22IGraphicBufferProducerEEE"
  }
  mangled_function_name: "_ZN7android8hardware8graphics11bufferqueue4V1_023BsGraphicBufferProducerC1ENS_2spINS3_22IGraphicBufferProducerEEE"
  source_file: "/data/aosp/out/soong/.intermediates/hardware/interfaces/graphics/bufferqueue/1.0/android.hardware.graphics.bufferqueue@1.0_genc++_headers/gen/android/hardware/graphics/bufferqueue/1.0/BsGraphicBufferProducer.h"
  parameters {
    basic_abi {
      type_abi {
        name: "const android::sp<android::hardware::graphics::bufferqueue::V1_0::IGraphicBufferProducer>"
      }
      name: "impl"
      access: public_access
      linker_set_key: "false"
    }
    default_arg: false
  }
}
functions {
  basic_abi {
    type_abi {
      name: "android::hardware::Return<void>"
    }
    name: "android::hardware::graphics::bufferqueue::V1_0::BsGraphicBufferProducer::requestBuffer"
    access: public_access
    linker_set_key: "_ZN7android8hardware8graphics11bufferqueue4V1_023BsGraphicBufferProducer13requestBufferEiNSt3__18functionIFviRKNS0_5media4V1_09AnwBufferEEEE"
  }
  mangled_function_name: "_ZN7android8hardware8graphics11bufferqueue4V1_023BsGraphicBufferProducer13requestBufferEiNSt3__18functionIFviRKNS0_5media4V1_09AnwBufferEEEE"
  source_file: "/data/aosp/out/soong/.intermediates/hardware/interfaces/graphics/bufferqueue/1.0/android.hardware.graphics.bufferqueue@1.0_genc++_headers/gen/android/hardware/graphics/bufferqueue/1.0/BsGraphicBufferProducer.h"
  parameters {
    basic_abi {
      type_abi {
        name: "int"
        size: 4
        alignment: 4
      }
      name: "slot"
      access: public_access
      linker_set_key: "false"
    }
    default_arg: false
  }
  parameters {
    basic_abi {
      type_abi {
        name: "std::function<void (int, const AnwBuffer &)>"
      }
      name: "_hidl_cb"
      access: public_access
      linker_set_key: "false"
    }
    default_arg: false
  }
}
functions {
  basic_abi {
    type_abi {
      name: "android::hardware::Return<int>"
    }
    name: "android::hardware::graphics::bufferqueue::V1_0::BsGraphicBufferProducer::setMaxDequeuedBufferCount"
    access: public_access
    linker_set_key: "_ZN7android8hardware8graphics11bufferqueue4V1_023BsGraphicBufferProducer25setMaxDequeuedBufferCountEi"
  }
  mangled_function_name: "_ZN7android8hardware8graphics11bufferqueue4V1_023BsGraphicBufferProducer25setMaxDequeuedBufferCountEi"
  source_file: "/data/aosp/out/soong/.intermediates/hardware/interfaces/graphics/bufferqueue/1.0/android.hardware.graphics.bufferqueue@1.0_genc++_headers/gen/android/hardware/graphics/bufferqueue/1.0/BsGraphicBufferProducer.h"
  parameters {
    basic_abi {
      type_abi {
        name: "int"
        size: 4
        alignment: 4
      }
      name: "maxDequeuedBuffers"
      access: public_access
      linker_set_key: "false"
    }
    default_arg: false
  }
}
functions {
  basic_abi {
    type_abi {
      name: "android::hardware::Return<int>"
    }
    name: "android::hardware::graphics::bufferqueue::V1_0::BsGraphicBufferProducer::setAsyncMode"
    access: public_access
    linker_set_key: "_ZN7android8hardware8graphics11bufferqueue4V1_023BsGraphicBufferProducer12setAsyncModeEb"
  }
  mangled_function_name: "_ZN7android8hardware8graphics11bufferqueue4V1_023BsGraphicBufferProducer12setAsyncModeEb"
  source_file: "/data/aosp/out/soong/.intermediates/hardware/interfaces/graphics/bufferqueue/1.0/android.hardware.graphics.bufferqueue@1.0_genc++_headers/gen/android/hardware/graphics/bufferqueue/1.0/BsGraphicBufferProducer.h"
  parameters {
    basic_abi {
      type_abi {
        name: "bool"
        size: 1
        alignment: 1
      }
      name: "async"
      access: public_access
      linker_set_key: "false"
    }
    default_arg: false
  }
}
functions {
  basic_abi {
    type_abi {
      name: "android::hardware::Return<void>"
    }
    name: "android::hardware::graphics::bufferqueue::V1_0::BsGraphicBufferProducer::dequeueBuffer"
    access: public_access
    linker_set_key: "_ZN7android8hardware8graphics11bufferqueue4V1_023BsGraphicBufferProducer13dequeueBufferEjjNS1_6common4V1_011PixelFormatEjbNSt3__18functionIFviiRKNS0_11hidl_handleERKNS3_22IGraphicBufferProducer22FrameEventHistoryDeltaEEEE"
  }
  mangled_function_name: "_ZN7android8hardware8graphics11bufferqueue4V1_023BsGraphicBufferProducer13dequeueBufferEjjNS1_6common4V1_011PixelFormatEjbNSt3__18functionIFviiRKNS0_11hidl_handleERKNS3_22IGraphicBufferProducer22FrameEventHistoryDeltaEEEE"
  source_file: "/data/aosp/out/soong/.intermediates/hardware/interfaces/graphics/bufferqueue/1.0/android.hardware.graphics.bufferqueue@1.0_genc++_headers/gen/android/hardware/graphics/bufferqueue/1.0/BsGraphicBufferProducer.h"
  parameters {
    basic_abi {
      type_abi {
        name: "unsigned int"
        size: 4
        alignment: 4
      }
      name: "width"
      access: public_access
      linker_set_key: "false"
    }
    default_arg: false
  }
  parameters {
    basic_abi {
      type_abi {
        name: "unsigned int"
        size: 4
        alignment: 4
      }
      name: "height"
      access: public_access
      linker_set_key: "false"
    }
    default_arg: false
  }
  parameters {
    basic_abi {
      type_abi {
        name: "android::hardware::graphics::common::V1_0::PixelFormat"
      }
      name: "format"
      access: public_access
      linker_set_key: "false"
    }
    default_arg: false
  }
  parameters {
    basic_abi {
      type_abi {
        name: "unsigned int"
        size: 4
        alignment: 4
      }
      name: "usage"
      access: public_access
      linker_set_key: "false"
    }
    default_arg: false
  }
  parameters {
    basic_abi {
      type_abi {
        name: "bool"
        size: 1
        alignment: 1
      }
      name: "getFrameTimestamps"
      access: public_access
      linker_set_key: "false"
    }
    default_arg: false
  }
  parameters {
    basic_abi {
      type_abi {
        name: "std::function<void (int, int, const hidl_handle &, const FrameEventHistoryDelta &)>"
      }
      name: "_hidl_cb"
      access: public_access
      linker_set_key: "false"
    }
    default_arg: false
  }
}
functions {
  basic_abi {
    type_abi {
      name: "android::hardware::Return<int>"
    }
    name: "android::hardware::graphics::bufferqueue::V1_0::BsGraphicBufferProducer::detachBuffer"
    access: public_access
    linker_set_key: "_ZN7android8hardware8graphics11bufferqueue4V1_023BsGraphicBufferProducer12detachBufferEi"
  }
  mangled_function_name: "_ZN7android8hardware8graphics11bufferqueue4V1_023BsGraphicBufferProducer12detachBufferEi"
  source_file: "/data/aosp/out/soong/.intermediates/hardware/interfaces/graphics/bufferqueue/1.0/android.hardware.graphics.bufferqueue@1.0_genc++_headers/gen/android/hardware/graphics/bufferqueue/1.0/BsGraphicBufferProducer.h"
  parameters {
    basic_abi {
      type_abi {
        name: "int"
        size: 4
        alignment: 4
      }
      name: "slot"
      access: public_access
      linker_set_key: "false"
    }
    default_arg: false
  }
}
functions {
  basic_abi {
    type_abi {
      name: "android::hardware::Return<void>"
    }
    name: "android::hardware::graphics::bufferqueue::V1_0::BsGraphicBufferProducer::detachNextBuffer"
    access: public_access
    linker_set_key: "_ZN7android8hardware8graphics11bufferqueue4V1_023BsGraphicBufferProducer16detachNextBufferENSt3__18functionIFviRKNS0_5media4V1_09AnwBufferERKNS0_11hidl_handleEEEE"
  }
  mangled_function_name: "_ZN7android8hardware8graphics11bufferqueue4V1_023BsGraphicBufferProducer16detachNextBufferENSt3__18functionIFviRKNS0_5media4V1_09AnwBufferERKNS0_11hidl_handleEEEE"
  source_file: "/data/aosp/out/soong/.intermediates/hardware/interfaces/graphics/bufferqueue/1.0/android.hardware.graphics.bufferqueue@1.0_genc++_headers/gen/android/hardware/graphics/bufferqueue/1.0/BsGraphicBufferProducer.h"
  parameters {
    basic_abi {
      type_abi {
        name: "std::function<void (int, const AnwBuffer &, const hidl_handle &)>"
      }
      name: "_hidl_cb"
      access: public_access
      linker_set_key: "false"
    }
    default_arg: false
  }
}
functions {
  basic_abi {
    type_abi {
      name: "android::hardware::Return<void>"
    }
    name: "android::hardware::graphics::bufferqueue::V1_0::BsGraphicBufferProducer::attachBuffer"
    access: public_access
    linker_set_key: "_ZN7android8hardware8graphics11bufferqueue4V1_023BsGraphicBufferProducer12attachBufferERKNS0_5media4V1_09AnwBufferENSt3__18functionIFviiEEE"
  }
  mangled_function_name: "_ZN7android8hardware8graphics11bufferqueue4V1_023BsGraphicBufferProducer12attachBufferERKNS0_5media4V1_09AnwBufferENSt3__18functionIFviiEEE"
  source_file: "/data/aosp/out/soong/.intermediates/hardware/interfaces/graphics/bufferqueue/1.0/android.hardware.graphics.bufferqueue@1.0_genc++_headers/gen/android/hardware/graphics/bufferqueue/1.0/BsGraphicBufferProducer.h"
  parameters {
    basic_abi {
      type_abi {
        name: "const android::hardware::media::V1_0::AnwBuffer &"
      }
      name: "buffer"
      access: public_access
      linker_set_key: "false"
    }
    default_arg: false
  }
  parameters {
    basic_abi {
      type_abi {
        name: "std::function<void (int, int)>"
      }
      name: "_hidl_cb"
      access: public_access
      linker_set_key: "false"
    }
    default_arg: false
  }
}
functions {
  basic_abi {
    type_abi {
      name: "android::hardware::Return<void>"
    }
    name: "android::hardware::graphics::bufferqueue::V1_0::BsGraphicBufferProducer::queueBuffer"
    access: public_access
    linker_set_key: "_ZN7android8hardware8graphics11bufferqueue4V1_023BsGraphicBufferProducer11queueBufferEiRKNS3_22IGraphicBufferProducer16QueueBufferInputENSt3__18functionIFviRKNS5_17QueueBufferOutputEEEE"
  }
  mangled_function_name: "_ZN7android8hardware8graphics11bufferqueue4V1_023BsGraphicBufferProducer11queueBufferEiRKNS3_22IGraphicBufferProducer16QueueBufferInputENSt3__18functionIFviRKNS5_17QueueBufferOutputEEEE"
  source_file: "/data/aosp/out/soong/.intermediates/hardware/interfaces/graphics/bufferqueue/1.0/android.hardware.graphics.bufferqueue@1.0_genc++_headers/gen/android/hardware/graphics/bufferqueue/1.0/BsGraphicBufferProducer.h"
  parameters {
    basic_abi {
      type_abi {
        name: "int"
        size: 4
        alignment: 4
      }
      name: "slot"
      access: public_access
      linker_set_key: "false"
    }
    default_arg: false
  }
  parameters {
    basic_abi {
      type_abi {
        name: "const android::hardware::graphics::bufferqueue::V1_0::IGraphicBufferProducer::QueueBufferInput &"
      }
      name: "input"
      access: public_access
      linker_set_key: "false"
    }
    default_arg: false
  }
  parameters {
    basic_abi {
      type_abi {
        name: "std::function<void (int, const QueueBufferOutput &)>"
      }
      name: "_hidl_cb"
      access: public_access
      linker_set_key: "false"
    }
    default_arg: false
  }
}
functions {
  basic_abi {
    type_abi {
      name: "android::hardware::Return<int>"
    }
    name: "android::hardware::graphics::bufferqueue::V1_0::BsGraphicBufferProducer::cancelBuffer"
    access: public_access
    linker_set_key: "_ZN7android8hardware8graphics11bufferqueue4V1_023BsGraphicBufferProducer12cancelBufferEiRKNS0_11hidl_handleE"
  }
  mangled_function_name: "_ZN7android8hardware8graphics11bufferqueue4V1_023BsGraphicBufferProducer12cancelBufferEiRKNS0_11hidl_handleE"
  source_file: "/data/aosp/out/soong/.intermediates/hardware/interfaces/graphics/bufferqueue/1.0/android.hardware.graphics.bufferqueue@1.0_genc++_headers/gen/android/hardware/graphics/bufferqueue/1.0/BsGraphicBufferProducer.h"
  parameters {
    basic_abi {
      type_abi {
        name: "int"
        size: 4
        alignment: 4
      }
      name: "slot"
      access: public_access
      linker_set_key: "false"
    }
    default_arg: false
  }
  parameters {
    basic_abi {
      type_abi {
        name: "const android::hardware::hidl_handle &"
      }
      name: "fence"
      access: public_access
      linker_set_key: "false"
    }
    default_arg: false
  }
}
functions {
  basic_abi {
    type_abi {
      name: "android::hardware::Return<void>"
    }
    name: "android::hardware::graphics::bufferqueue::V1_0::BsGraphicBufferProducer::query"
    access: public_access
    linker_set_key: "_ZN7android8hardware8graphics11bufferqueue4V1_023BsGraphicBufferProducer5queryEiNSt3__18functionIFviiEEE"
  }
  mangled_function_name: "_ZN7android8hardware8graphics11bufferqueue4V1_023BsGraphicBufferProducer5queryEiNSt3__18functionIFviiEEE"
  source_file: "/data/aosp/out/soong/.intermediates/hardware/interfaces/graphics/bufferqueue/1.0/android.hardware.graphics.bufferqueue@1.0_genc++_headers/gen/android/hardware/graphics/bufferqueue/1.0/BsGraphicBufferProducer.h"
  parameters {
    basic_abi {
      type_abi {
        name: "int"
        size: 4
        alignment: 4
      }
      name: "what"
      access: public_access
      linker_set_key: "false"
    }
    default_arg: false
  }
  parameters {
    basic_abi {
      type_abi {
        name: "std::function<void (int, int)>"
      }
      name: "_hidl_cb"
      access: public_access
      linker_set_key: "false"
    }
    default_arg: false
  }
}
functions {
  basic_abi {
    type_abi {
      name: "android::hardware::Return<void>"
    }
    name: "android::hardware::graphics::bufferqueue::V1_0::BsGraphicBufferProducer::connect"
    access: public_access
    linker_set_key: "_ZN7android8hardware8graphics11bufferqueue4V1_023BsGraphicBufferProducer7connectERKNS_2spINS3_17IProducerListenerEEEibNSt3__18functionIFviRKNS3_22IGraphicBufferProducer17QueueBufferOutputEEEE"
  }
  mangled_function_name: "_ZN7android8hardware8graphics11bufferqueue4V1_023BsGraphicBufferProducer7connectERKNS_2spINS3_17IProducerListenerEEEibNSt3__18functionIFviRKNS3_22IGraphicBufferProducer17QueueBufferOutputEEEE"
  source_file: "/data/aosp/out/soong/.intermediates/hardware/interfaces/graphics/bufferqueue/1.0/android.hardware.graphics.bufferqueue@1.0_genc++_headers/gen/android/hardware/graphics/bufferqueue/1.0/BsGraphicBufferProducer.h"
  parameters {
    basic_abi {
      type_abi {
        name: "const android::sp<android::hardware::graphics::bufferqueue::V1_0::IProducerListener> &"
      }
      name: "listener"
      access: public_access
      linker_set_key: "false"
    }
    default_arg: false
  }
  parameters {
    basic_abi {
      type_abi {
        name: "int"
        size: 4
        alignment: 4
      }
      name: "api"
      access: public_access
      linker_set_key: "false"
    }
    default_arg: false
  }
  parameters {
    basic_abi {
      type_abi {
        name: "bool"
        size: 1
        alignment: 1
      }
      name: "producerControlledByApp"
      access: public_access
      linker_set_key: "false"
    }
    default_arg: false
  }
  parameters {
    basic_abi {
      type_abi {
        name: "std::function<void (int, const QueueBufferOutput &)>"
      }
      name: "_hidl_cb"
      access: public_access
      linker_set_key: "false"
    }
    default_arg: false
  }
}
functions {
  basic_abi {
    type_abi {
      name: "android::hardware::Return<int>"
    }
    name: "android::hardware::graphics::bufferqueue::V1_0::BsGraphicBufferProducer::disconnect"
    access: public_access
    linker_set_key: "_ZN7android8hardware8graphics11bufferqueue4V1_023BsGraphicBufferProducer10disconnectEiNS3_22IGraphicBufferProducer14DisconnectModeE"
  }
  mangled_function_name: "_ZN7android8hardware8graphics11bufferqueue4V1_023BsGraphicBufferProducer10disconnectEiNS3_22IGraphicBufferProducer14DisconnectModeE"
  source_file: "/data/aosp/out/soong/.intermediates/hardware/interfaces/graphics/bufferqueue/1.0/android.hardware.graphics.bufferqueue@1.0_genc++_headers/gen/android/hardware/graphics/bufferqueue/1.0/BsGraphicBufferProducer.h"
  parameters {
    basic_abi {
      type_abi {
        name: "int"
        size: 4
        alignment: 4
      }
      name: "api"
      access: public_access
      linker_set_key: "false"
    }
    default_arg: false
  }
  parameters {
    basic_abi {
      type_abi {
        name: "android::hardware::graphics::bufferqueue::V1_0::IGraphicBufferProducer::DisconnectMode"
      }
      name: "mode"
      access: public_access
      linker_set_key: "false"
    }
    default_arg: false
  }
}
functions {
  basic_abi {
    type_abi {
      name: "android::hardware::Return<int>"
    }
    name: "android::hardware::graphics::bufferqueue::V1_0::BsGraphicBufferProducer::setSidebandStream"
    access: public_access
    linker_set_key: "_ZN7android8hardware8graphics11bufferqueue4V1_023BsGraphicBufferProducer17setSidebandStreamERKNS0_11hidl_handleE"
  }
  mangled_function_name: "_ZN7android8hardware8graphics11bufferqueue4V1_023BsGraphicBufferProducer17setSidebandStreamERKNS0_11hidl_handleE"
  source_file: "/data/aosp/out/soong/.intermediates/hardware/interfaces/graphics/bufferqueue/1.0/android.hardware.graphics.bufferqueue@1.0_genc++_headers/gen/android/hardware/graphics/bufferqueue/1.0/BsGraphicBufferProducer.h"
  parameters {
    basic_abi {
      type_abi {
        name: "const android::hardware::hidl_handle &"
      }
      name: "stream"
      access: public_access
      linker_set_key: "false"
    }
    default_arg: false
  }
}
functions {
  basic_abi {
    type_abi {
      name: "android::hardware::Return<void>"
    }
    name: "android::hardware::graphics::bufferqueue::V1_0::BsGraphicBufferProducer::allocateBuffers"
    access: public_access
    linker_set_key: "_ZN7android8hardware8graphics11bufferqueue4V1_023BsGraphicBufferProducer15allocateBuffersEjjNS1_6common4V1_011PixelFormatEj"
  }
  mangled_function_name: "_ZN7android8hardware8graphics11bufferqueue4V1_023BsGraphicBufferProducer15allocateBuffersEjjNS1_6common4V1_011PixelFormatEj"
  source_file: "/data/aosp/out/soong/.intermediates/hardware/interfaces/graphics/bufferqueue/1.0/android.hardware.graphics.bufferqueue@1.0_genc++_headers/gen/android/hardware/graphics/bufferqueue/1.0/BsGraphicBufferProducer.h"
  parameters {
    basic_abi {
      type_abi {
        name: "unsigned int"
        size: 4
        alignment: 4
      }
      name: "width"
      access: public_access
      linker_set_key: "false"
    }
    default_arg: false
  }
  parameters {
    basic_abi {
      type_abi {
        name: "unsigned int"
        size: 4
        alignment: 4
      }
      name: "height"
      access: public_access
      linker_set_key: "false"
    }
    default_arg: false
  }
  parameters {
    basic_abi {
      type_abi {
        name: "android::hardware::graphics::common::V1_0::PixelFormat"
      }
      name: "format"
      access: public_access
      linker_set_key: "false"
    }
    default_arg: false
  }
  parameters {
    basic_abi {
      type_abi {
        name: "unsigned int"
        size: 4
        alignment: 4
      }
      name: "usage"
      access: public_access
      linker_set_key: "false"
    }
    default_arg: false
  }
}
functions {
  basic_abi {
    type_abi {
      name: "android::hardware::Return<int>"
    }
    name: "android::hardware::graphics::bufferqueue::V1_0::BsGraphicBufferProducer::allowAllocation"
    access: public_access
    linker_set_key: "_ZN7android8hardware8graphics11bufferqueue4V1_023BsGraphicBufferProducer15allowAllocationEb"
  }
  mangled_function_name: "_ZN7android8hardware8graphics11bufferqueue4V1_023BsGraphicBufferProducer15allowAllocationEb"
  source_file: "/data/aosp/out/soong/.intermediates/hardware/interfaces/graphics/bufferqueue/1.0/android.hardware.graphics.bufferqueue@1.0_genc++_headers/gen/android/hardware/graphics/bufferqueue/1.0/BsGraphicBufferProducer.h"
  parameters {
    basic_abi {
      type_abi {
        name: "bool"
        size: 1
        alignment: 1
      }
      name: "allow"
      access: public_access
      linker_set_key: "false"
    }
    default_arg: false
  }
}
functions {
  basic_abi {
    type_abi {
      name: "android::hardware::Return<int>"
    }
    name: "android::hardware::graphics::bufferqueue::V1_0::BsGraphicBufferProducer::setGenerationNumber"
    access: public_access
    linker_set_key: "_ZN7android8hardware8graphics11bufferqueue4V1_023BsGraphicBufferProducer19setGenerationNumberEj"
  }
  mangled_function_name: "_ZN7android8hardware8graphics11bufferqueue4V1_023BsGraphicBufferProducer19setGenerationNumberEj"
  source_file: "/data/aosp/out/soong/.intermediates/hardware/interfaces/graphics/bufferqueue/1.0/android.hardware.graphics.bufferqueue@1.0_genc++_headers/gen/android/hardware/graphics/bufferqueue/1.0/BsGraphicBufferProducer.h"
  parameters {
    basic_abi {
      type_abi {
        name: "unsigned int"
        size: 4
        alignment: 4
      }
      name: "generationNumber"
      access: public_access
      linker_set_key: "false"
    }
    default_arg: false
  }
}
functions {
  basic_abi {
    type_abi {
      name: "android::hardware::Return<void>"
    }
    name: "android::hardware::graphics::bufferqueue::V1_0::BsGraphicBufferProducer::getConsumerName"
    access: public_access
    linker_set_key: "_ZN7android8hardware8graphics11bufferqueue4V1_023BsGraphicBufferProducer15getConsumerNameENSt3__18functionIFvRKNS0_11hidl_stringEEEE"
  }
  mangled_function_name: "_ZN7android8hardware8graphics11bufferqueue4V1_023BsGraphicBufferProducer15getConsumerNameENSt3__18functionIFvRKNS0_11hidl_stringEEEE"
  source_file: "/data/aosp/out/soong/.intermediates/hardware/interfaces/graphics/bufferqueue/1.0/android.hardware.graphics.bufferqueue@1.0_genc++_headers/gen/android/hardware/graphics/bufferqueue/1.0/BsGraphicBufferProducer.h"
  parameters {
    basic_abi {
      type_abi {
        name: "std::function<void (const hidl_string &)>"
      }
      name: "_hidl_cb"
      access: public_access
      linker_set_key: "false"
    }
    default_arg: false
  }
}
functions {
  basic_abi {
    type_abi {
      name: "android::hardware::Return<int>"
    }
    name: "android::hardware::graphics::bufferqueue::V1_0::BsGraphicBufferProducer::setSharedBufferMode"
    access: public_access
    linker_set_key: "_ZN7android8hardware8graphics11bufferqueue4V1_023BsGraphicBufferProducer19setSharedBufferModeEb"
  }
  mangled_function_name: "_ZN7android8hardware8graphics11bufferqueue4V1_023BsGraphicBufferProducer19setSharedBufferModeEb"
  source_file: "/data/aosp/out/soong/.intermediates/hardware/interfaces/graphics/bufferqueue/1.0/android.hardware.graphics.bufferqueue@1.0_genc++_headers/gen/android/hardware/graphics/bufferqueue/1.0/BsGraphicBufferProducer.h"
  parameters {
    basic_abi {
      type_abi {
        name: "bool"
        size: 1
        alignment: 1
      }
      name: "sharedBufferMode"
      access: public_access
      linker_set_key: "false"
    }
    default_arg: false
  }
}
functions {
  basic_abi {
    type_abi {
      name: "android::hardware::Return<int>"
    }
    name: "android::hardware::graphics::bufferqueue::V1_0::BsGraphicBufferProducer::setAutoRefresh"
    access: public_access
    linker_set_key: "_ZN7android8hardware8graphics11bufferqueue4V1_023BsGraphicBufferProducer14setAutoRefreshEb"
  }
  mangled_function_name: "_ZN7android8hardware8graphics11bufferqueue4V1_023BsGraphicBufferProducer14setAutoRefreshEb"
  source_file: "/data/aosp/out/soong/.intermediates/hardware/interfaces/graphics/bufferqueue/1.0/android.hardware.graphics.bufferqueue@1.0_genc++_headers/gen/android/hardware/graphics/bufferqueue/1.0/BsGraphicBufferProducer.h"
  parameters {
    basic_abi {
      type_abi {
        name: "bool"
        size: 1
        alignment: 1
      }
      name: "autoRefresh"
      access: public_access
      linker_set_key: "false"
    }
    default_arg: false
  }
}
functions {
  basic_abi {
    type_abi {
      name: "android::hardware::Return<int>"
    }
    name: "android::hardware::graphics::bufferqueue::V1_0::BsGraphicBufferProducer::setDequeueTimeout"
    access: public_access
    linker_set_key: "_ZN7android8hardware8graphics11bufferqueue4V1_023BsGraphicBufferProducer17setDequeueTimeoutEx"
  }
  mangled_function_name: "_ZN7android8hardware8graphics11bufferqueue4V1_023BsGraphicBufferProducer17setDequeueTimeoutEx"
  source_file: "/data/aosp/out/soong/.intermediates/hardware/interfaces/graphics/bufferqueue/1.0/android.hardware.graphics.bufferqueue@1.0_genc++_headers/gen/android/hardware/graphics/bufferqueue/1.0/BsGraphicBufferProducer.h"
  parameters {
    basic_abi {
      type_abi {
        name: "long long"
        size: 8
        alignment: 8
      }
      name: "timeoutNs"
      access: public_access
      linker_set_key: "false"
    }
    default_arg: false
  }
}
functions {
  basic_abi {
    type_abi {
      name: "android::hardware::Return<void>"
    }
    name: "android::hardware::graphics::bufferqueue::V1_0::BsGraphicBufferProducer::getLastQueuedBuffer"
    access: public_access
    linker_set_key: "_ZN7android8hardware8graphics11bufferqueue4V1_023BsGraphicBufferProducer19getLastQueuedBufferENSt3__18functionIFviRKNS0_5media4V1_09AnwBufferERKNS0_11hidl_handleERKNS0_10hidl_arrayIfLj16EJEEEEEE"
  }
  mangled_function_name: "_ZN7android8hardware8graphics11bufferqueue4V1_023BsGraphicBufferProducer19getLastQueuedBufferENSt3__18functionIFviRKNS0_5media4V1_09AnwBufferERKNS0_11hidl_handleERKNS0_10hidl_arrayIfLj16EJEEEEEE"
  source_file: "/data/aosp/out/soong/.intermediates/hardware/interfaces/graphics/bufferqueue/1.0/android.hardware.graphics.bufferqueue@1.0_genc++_headers/gen/android/hardware/graphics/bufferqueue/1.0/BsGraphicBufferProducer.h"
  parameters {
    basic_abi {
      type_abi {
        name: "std::function<void (int, const AnwBuffer &, const hidl_handle &, const hidl_array<float, 16> &)>"
      }
      name: "_hidl_cb"
      access: public_access
      linker_set_key: "false"
    }
    default_arg: false
  }
}
functions {
  basic_abi {
    type_abi {
      name: "android::hardware::Return<void>"
    }
    name: "android::hardware::graphics::bufferqueue::V1_0::BsGraphicBufferProducer::getFrameTimestamps"
    access: public_access
    linker_set_key: "_ZN7android8hardware8graphics11bufferqueue4V1_023BsGraphicBufferProducer18getFrameTimestampsENSt3__18functionIFvRKNS3_22IGraphicBufferProducer22FrameEventHistoryDeltaEEEE"
  }
  mangled_function_name: "_ZN7android8hardware8graphics11bufferqueue4V1_023BsGraphicBufferProducer18getFrameTimestampsENSt3__18functionIFvRKNS3_22IGraphicBufferProducer22FrameEventHistoryDeltaEEEE"
  source_file: "/data/aosp/out/soong/.intermediates/hardware/interfaces/graphics/bufferqueue/1.0/android.hardware.graphics.bufferqueue@1.0_genc++_headers/gen/android/hardware/graphics/bufferqueue/1.0/BsGraphicBufferProducer.h"
  parameters {
    basic_abi {
      type_abi {
        name: "std::function<void (const FrameEventHistoryDelta &)>"
      }
      name: "_hidl_cb"
      access: public_access
      linker_set_key: "false"
    }
    default_arg: false
  }
}
functions {
  basic_abi {
    type_abi {
      name: "android::hardware::Return<void>"
    }
    name: "android::hardware::graphics::bufferqueue::V1_0::BsGraphicBufferProducer::getUniqueId"
    access: public_access
    linker_set_key: "_ZN7android8hardware8graphics11bufferqueue4V1_023BsGraphicBufferProducer11getUniqueIdENSt3__18functionIFviyEEE"
  }
  mangled_function_name: "_ZN7android8hardware8graphics11bufferqueue4V1_023BsGraphicBufferProducer11getUniqueIdENSt3__18functionIFviyEEE"
  source_file: "/data/aosp/out/soong/.intermediates/hardware/interfaces/graphics/bufferqueue/1.0/android.hardware.graphics.bufferqueue@1.0_genc++_headers/gen/android/hardware/graphics/bufferqueue/1.0/BsGraphicBufferProducer.h"
  parameters {
    basic_abi {
      type_abi {
        name: "std::function<void (int, unsigned long long)>"
      }
      name: "_hidl_cb"
      access: public_access
      linker_set_key: "false"
    }
    default_arg: false
  }
}
functions {
  basic_abi {
    type_abi {
      name: "android::hardware::Return<void>"
    }
    name: "android::hardware::graphics::bufferqueue::V1_0::BsGraphicBufferProducer::interfaceChain"
    access: public_access
    linker_set_key: "_ZN7android8hardware8graphics11bufferqueue4V1_023BsGraphicBufferProducer14interfaceChainENSt3__18functionIFvRKNS0_8hidl_vecINS0_11hidl_stringEEEEEE"
  }
  mangled_function_name: "_ZN7android8hardware8graphics11bufferqueue4V1_023BsGraphicBufferProducer14interfaceChainENSt3__18functionIFvRKNS0_8hidl_vecINS0_11hidl_stringEEEEEE"
  source_file: "/data/aosp/out/soong/.intermediates/hardware/interfaces/graphics/bufferqueue/1.0/android.hardware.graphics.bufferqueue@1.0_genc++_headers/gen/android/hardware/graphics/bufferqueue/1.0/BsGraphicBufferProducer.h"
  parameters {
    basic_abi {
      type_abi {
        name: "std::function<void (const hidl_vec<hidl_string> &)>"
      }
      name: "_hidl_cb"
      access: public_access
      linker_set_key: "false"
    }
    default_arg: false
  }
}
functions {
  basic_abi {
    type_abi {
      name: "android::hardware::Return<void>"
    }
    name: "android::hardware::graphics::bufferqueue::V1_0::BsGraphicBufferProducer::debug"
    access: public_access
    linker_set_key: "_ZN7android8hardware8graphics11bufferqueue4V1_023BsGraphicBufferProducer5debugERKNS0_11hidl_handleERKNS0_8hidl_vecINS0_11hidl_stringEEE"
  }
  mangled_function_name: "_ZN7android8hardware8graphics11bufferqueue4V1_023BsGraphicBufferProducer5debugERKNS0_11hidl_handleERKNS0_8hidl_vecINS0_11hidl_stringEEE"
  source_file: "/data/aosp/out/soong/.intermediates/hardware/interfaces/graphics/bufferqueue/1.0/android.hardware.graphics.bufferqueue@1.0_genc++_headers/gen/android/hardware/graphics/bufferqueue/1.0/BsGraphicBufferProducer.h"
  parameters {
    basic_abi {
      type_abi {
        name: "const android::hardware::hidl_handle &"
      }
      name: "fd"
      access: public_access
      linker_set_key: "false"
    }
    default_arg: false
  }
  parameters {
    basic_abi {
      type_abi {
        name: "const android::hardware::hidl_vec<android::hardware::hidl_string> &"
      }
      name: "options"
      access: public_access
      linker_set_key: "false"
    }
    default_arg: false
  }
}
functions {
  basic_abi {
    type_abi {
      name: "android::hardware::Return<void>"
    }
    name: "android::hardware::graphics::bufferqueue::V1_0::BsGraphicBufferProducer::interfaceDescriptor"
    access: public_access
    linker_set_key: "_ZN7android8hardware8graphics11bufferqueue4V1_023BsGraphicBufferProducer19interfaceDescriptorENSt3__18functionIFvRKNS0_11hidl_stringEEEE"
  }
  mangled_function_name: "_ZN7android8hardware8graphics11bufferqueue4V1_023BsGraphicBufferProducer19interfaceDescriptorENSt3__18functionIFvRKNS0_11hidl_stringEEEE"
  source_file: "/data/aosp/out/soong/.intermediates/hardware/interfaces/graphics/bufferqueue/1.0/android.hardware.graphics.bufferqueue@1.0_genc++_headers/gen/android/hardware/graphics/bufferqueue/1.0/BsGraphicBufferProducer.h"
  parameters {
    basic_abi {
      type_abi {
        name: "std::function<void (const hidl_string &)>"
      }
      name: "_hidl_cb"
      access: public_access
      linker_set_key: "false"
    }
    default_arg: false
  }
}
functions {
  basic_abi {
    type_abi {
      name: "android::hardware::Return<void>"
    }
    name: "android::hardware::graphics::bufferqueue::V1_0::BsGraphicBufferProducer::getHashChain"
    access: public_access
    linker_set_key: "_ZN7android8hardware8graphics11bufferqueue4V1_023BsGraphicBufferProducer12getHashChainENSt3__18functionIFvRKNS0_8hidl_vecINS0_10hidl_arrayIhLj32EJEEEEEEEE"
  }
  mangled_function_name: "_ZN7android8hardware8graphics11bufferqueue4V1_023BsGraphicBufferProducer12getHashChainENSt3__18functionIFvRKNS0_8hidl_vecINS0_10hidl_arrayIhLj32EJEEEEEEEE"
  source_file: "/data/aosp/out/soong/.intermediates/hardware/interfaces/graphics/bufferqueue/1.0/android.hardware.graphics.bufferqueue@1.0_genc++_headers/gen/android/hardware/graphics/bufferqueue/1.0/BsGraphicBufferProducer.h"
  parameters {
    basic_abi {
      type_abi {
        name: "std::function<void (const hidl_vec<hidl_array<unsigned char, 32> > &)>"
      }
      name: "_hidl_cb"
      access: public_access
      linker_set_key: "false"
    }
    default_arg: false
  }
}
functions {
  basic_abi {
    type_abi {
      name: "android::hardware::Return<void>"
    }
    name: "android::hardware::graphics::bufferqueue::V1_0::BsGraphicBufferProducer::setHALInstrumentation"
    access: public_access
    linker_set_key: "_ZN7android8hardware8graphics11bufferqueue4V1_023BsGraphicBufferProducer21setHALInstrumentationEv"
  }
  mangled_function_name: "_ZN7android8hardware8graphics11bufferqueue4V1_023BsGraphicBufferProducer21setHALInstrumentationEv"
  source_file: "/data/aosp/out/soong/.intermediates/hardware/interfaces/graphics/bufferqueue/1.0/android.hardware.graphics.bufferqueue@1.0_genc++_headers/gen/android/hardware/graphics/bufferqueue/1.0/BsGraphicBufferProducer.h"
}
functions {
  basic_abi {
    type_abi {
      name: "android::hardware::Return<bool>"
    }
    name: "android::hardware::graphics::bufferqueue::V1_0::BsGraphicBufferProducer::linkToDeath"
    access: public_access
    linker_set_key: "_ZN7android8hardware8graphics11bufferqueue4V1_023BsGraphicBufferProducer11linkToDeathERKNS_2spINS0_20hidl_death_recipientEEEy"
  }
  mangled_function_name: "_ZN7android8hardware8graphics11bufferqueue4V1_023BsGraphicBufferProducer11linkToDeathERKNS_2spINS0_20hidl_death_recipientEEEy"
  source_file: "/data/aosp/out/soong/.intermediates/hardware/interfaces/graphics/bufferqueue/1.0/android.hardware.graphics.bufferqueue@1.0_genc++_headers/gen/android/hardware/graphics/bufferqueue/1.0/BsGraphicBufferProducer.h"
  parameters {
    basic_abi {
      type_abi {
        name: "const android::sp<android::hardware::hidl_death_recipient> &"
      }
      name: "recipient"
      access: public_access
      linker_set_key: "false"
    }
    default_arg: false
  }
  parameters {
    basic_abi {
      type_abi {
        name: "unsigned long long"
        size: 8
        alignment: 8
      }
      name: "cookie"
      access: public_access
      linker_set_key: "false"
    }
    default_arg: false
  }
}
functions {
  basic_abi {
    type_abi {
      name: "android::hardware::Return<void>"
    }
    name: "android::hardware::graphics::bufferqueue::V1_0::BsGraphicBufferProducer::ping"
    access: public_access
    linker_set_key: "_ZN7android8hardware8graphics11bufferqueue4V1_023BsGraphicBufferProducer4pingEv"
  }
  mangled_function_name: "_ZN7android8hardware8graphics11bufferqueue4V1_023BsGraphicBufferProducer4pingEv"
  source_file: "/data/aosp/out/soong/.intermediates/hardware/interfaces/graphics/bufferqueue/1.0/android.hardware.graphics.bufferqueue@1.0_genc++_headers/gen/android/hardware/graphics/bufferqueue/1.0/BsGraphicBufferProducer.h"
}
functions {
  basic_abi {
    type_abi {
      name: "android::hardware::Return<void>"
    }
    name: "android::hardware::graphics::bufferqueue::V1_0::BsGraphicBufferProducer::getDebugInfo"
    access: public_access
    linker_set_key: "_ZN7android8hardware8graphics11bufferqueue4V1_023BsGraphicBufferProducer12getDebugInfoENSt3__18functionIFvRKNS_4hidl4base4V1_09DebugInfoEEEE"
  }
  mangled_function_name: "_ZN7android8hardware8graphics11bufferqueue4V1_023BsGraphicBufferProducer12getDebugInfoENSt3__18functionIFvRKNS_4hidl4base4V1_09DebugInfoEEEE"
  source_file: "/data/aosp/out/soong/.intermediates/hardware/interfaces/graphics/bufferqueue/1.0/android.hardware.graphics.bufferqueue@1.0_genc++_headers/gen/android/hardware/graphics/bufferqueue/1.0/BsGraphicBufferProducer.h"
  parameters {
    basic_abi {
      type_abi {
        name: "std::function<void (const DebugInfo &)>"
      }
      name: "_hidl_cb"
      access: public_access
      linker_set_key: "false"
    }
    default_arg: false
  }
}
functions {
  basic_abi {
    type_abi {
      name: "android::hardware::Return<void>"
    }
    name: "android::hardware::graphics::bufferqueue::V1_0::BsGraphicBufferProducer::notifySyspropsChanged"
    access: public_access
    linker_set_key: "_ZN7android8hardware8graphics11bufferqueue4V1_023BsGraphicBufferProducer21notifySyspropsChangedEv"
  }
  mangled_function_name: "_ZN7android8hardware8graphics11bufferqueue4V1_023BsGraphicBufferProducer21notifySyspropsChangedEv"
  source_file: "/data/aosp/out/soong/.intermediates/hardware/interfaces/graphics/bufferqueue/1.0/android.hardware.graphics.bufferqueue@1.0_genc++_headers/gen/android/hardware/graphics/bufferqueue/1.0/BsGraphicBufferProducer.h"
}
functions {
  basic_abi {
    type_abi {
      name: "android::hardware::Return<bool>"
    }
    name: "android::hardware::graphics::bufferqueue::V1_0::BsGraphicBufferProducer::unlinkToDeath"
    access: public_access
    linker_set_key: "_ZN7android8hardware8graphics11bufferqueue4V1_023BsGraphicBufferProducer13unlinkToDeathERKNS_2spINS0_20hidl_death_recipientEEE"
  }
  mangled_function_name: "_ZN7android8hardware8graphics11bufferqueue4V1_023BsGraphicBufferProducer13unlinkToDeathERKNS_2spINS0_20hidl_death_recipientEEE"
  source_file: "/data/aosp/out/soong/.intermediates/hardware/interfaces/graphics/bufferqueue/1.0/android.hardware.graphics.bufferqueue@1.0_genc++_headers/gen/android/hardware/graphics/bufferqueue/1.0/BsGraphicBufferProducer.h"
  parameters {
    basic_abi {
      type_abi {
        name: "const android::sp<android::hardware::hidl_death_recipient> &"
      }
      name: "recipient"
      access: public_access
      linker_set_key: "false"
    }
    default_arg: false
  }
}
functions {
  basic_abi {
    type_abi {
      name: "android::hardware::Return<void>"
    }
    name: "android::hardware::graphics::bufferqueue::V1_0::BsGraphicBufferProducer::addOnewayTask"
    access: private_access
    linker_set_key: "_ZN7android8hardware8graphics11bufferqueue4V1_023BsGraphicBufferProducer13addOnewayTaskENSt3__18functionIFvvEEE"
  }
  mangled_function_name: "_ZN7android8hardware8graphics11bufferqueue4V1_023BsGraphicBufferProducer13addOnewayTaskENSt3__18functionIFvvEEE"
  source_file: "/data/aosp/out/soong/.intermediates/hardware/interfaces/graphics/bufferqueue/1.0/android.hardware.graphics.bufferqueue@1.0_genc++_headers/gen/android/hardware/graphics/bufferqueue/1.0/BsGraphicBufferProducer.h"
  parameters {
    basic_abi {
      type_abi {
        name: "std::function<void ()>"
      }
      name: ""
      access: public_access
      linker_set_key: "false"
    }
    default_arg: false
  }
}
enums {
  basic_abi {
    type_abi {
      name: "int"
      size: 4
      alignment: 4
    }
    name: "android::hardware::graphics::bufferqueue::V1_0::IGraphicBufferProducer::FenceTimeSnapshot::State"
    access: public_access
    linker_set_key: "android::hardware::graphics::bufferqueue::V1_0::IGraphicBufferProducer::FenceTimeSnapshot::State"
  }
  enum_fields {
    basic_abi {
      type_abi {
        name: "android::hardware::graphics::bufferqueue::V1_0::IGraphicBufferProducer::FenceTimeSnapshot::State"
        size: 4
        alignment: 4
      }
      name: "android::hardware::graphics::bufferqueue::V1_0::IGraphicBufferProducer::FenceTimeSnapshot::State::EMPTY"
      access: public_access
      linker_set_key: "0"
    }
    enum_field_value: 0
  }
  enum_fields {
    basic_abi {
      type_abi {
        name: "android::hardware::graphics::bufferqueue::V1_0::IGraphicBufferProducer::FenceTimeSnapshot::State"
        size: 4
        alignment: 4
      }
      name: "android::hardware::graphics::bufferqueue::V1_0::IGraphicBufferProducer::FenceTimeSnapshot::State::FENCE"
      access: public_access
      linker_set_key: "1"
    }
    enum_field_value: 1
  }
  enum_fields {
    basic_abi {
      type_abi {
        name: "android::hardware::graphics::bufferqueue::V1_0::IGraphicBufferProducer::FenceTimeSnapshot::State"
        size: 4
        alignment: 4
      }
      name: "android::hardware::graphics::bufferqueue::V1_0::IGraphicBufferProducer::FenceTimeSnapshot::State::SIGNAL_TIME"
      access: public_access
      linker_set_key: "2"
    }
    enum_field_value: 2
  }
  source_file: "/data/aosp/out/soong/.intermediates/hardware/interfaces/graphics/bufferqueue/1.0/android.hardware.graphics.bufferqueue@1.0_genc++_headers/gen/android/hardware/graphics/bufferqueue/1.0/IGraphicBufferProducer.h"
}
enums {
  basic_abi {
    type_abi {
      name: "int"
      size: 4
      alignment: 4
    }
    name: "android::hardware::graphics::bufferqueue::V1_0::IGraphicBufferProducer::DisconnectMode"
    access: public_access
    linker_set_key: "android::hardware::graphics::bufferqueue::V1_0::IGraphicBufferProducer::DisconnectMode"
  }
  enum_fields {
    basic_abi {
      type_abi {
        name: "android::hardware::graphics::bufferqueue::V1_0::IGraphicBufferProducer::DisconnectMode"
        size: 4
        alignment: 4
      }
      name: "android::hardware::graphics::bufferqueue::V1_0::IGraphicBufferProducer::DisconnectMode::API"
      access: public_access
      linker_set_key: "0"
    }
    enum_field_value: 0
  }
  enum_fields {
    basic_abi {
      type_abi {
        name: "android::hardware::graphics::bufferqueue::V1_0::IGraphicBufferProducer::DisconnectMode"
        size: 4
        alignment: 4
      }
      name: "android::hardware::graphics::bufferqueue::V1_0::IGraphicBufferProducer::DisconnectMode::ALL_LOCAL"
      access: public_access
      linker_set_key: "1"
    }
    enum_field_value: 1
  }
  source_file: "/data/aosp/out/soong/.intermediates/hardware/interfaces/graphics/bufferqueue/1.0/android.hardware.graphics.bufferqueue@1.0_genc++_headers/gen/android/hardware/graphics/bufferqueue/1.0/IGraphicBufferProducer.h"
}
global_vars {
  basic_abi {
    type_abi {
      name: "const char *"
      size: 4
      alignment: 4
    }
    name: "android::hardware::graphics::bufferqueue::V1_0::IProducerListener::descriptor"
    access: public_access
    linker_set_key: "_ZN7android8hardware8graphics11bufferqueue4V1_017IProducerListener10descriptorE"
  }
  source_file: "/data/aosp/out/soong/.intermediates/hardware/interfaces/graphics/bufferqueue/1.0/android.hardware.graphics.bufferqueue@1.0_genc++_headers/gen/android/hardware/graphics/bufferqueue/1.0/IProducerListener.h"
}
global_vars {
  basic_abi {
    type_abi {
      name: "const char *"
      size: 4
      alignment: 4
    }
    name: "android::hardware::graphics::bufferqueue::V1_0::IGraphicBufferProducer::descriptor"
    access: public_access
    linker_set_key: "_ZN7android8hardware8graphics11bufferqueue4V1_022IGraphicBufferProducer10descriptorE"
  }
  source_file: "/data/aosp/out/soong/.intermediates/hardware/interfaces/graphics/bufferqueue/1.0/android.hardware.graphics.bufferqueue@1.0_genc++_headers/gen/android/hardware/graphics/bufferqueue/1.0/IGraphicBufferProducer.h"
}
