records {
  basic_abi {
    type_abi {
      name: "android::hardware::graphics::bufferqueue::V1_0::IProducerListener"
      size: 12
      alignment: 4
    }
    name: "android::hardware::graphics::bufferqueue::V1_0::IProducerListener"
    access: public_access
    linker_set_key: "android::hardware::graphics::bufferqueue::V1_0::IProducerListener"
  }
  base_specifiers {
    basic_abi {
      type_abi {
        name: "android::hidl::base::V1_0::IBase"
      }
      name: ""
      access: public_access
    }
    is_virtual: false
  }
  source_file: "/data/aosp/out/soong/.intermediates/hardware/interfaces/graphics/bufferqueue/1.0/android.hardware.graphics.bufferqueue@1.0_genc++_headers/gen/android/hardware/graphics/bufferqueue/1.0/IProducerListener.h"
  mangled_record_name: "android::hardware::graphics::bufferqueue::V1_0::IProducerListener"
  vtable_layout {
    vtable_components {
      kind: VBaseOffset
      mangled_component_name: ""
      component_value: 4
    }
    vtable_components {
      kind: OffsetToTop
      mangled_component_name: ""
      component_value: 0
    }
    vtable_components {
      kind: RTTI
      mangled_component_name: "android::hardware::graphics::bufferqueue::V1_0::IProducerListener"
      component_value: 0
    }
    vtable_components {
      kind: FunctionPointer
      mangled_component_name: "_ZNK7android8hardware8graphics11bufferqueue4V1_017IProducerListener8isRemoteEv"
      component_value: 0
    }
    vtable_components {
      kind: FunctionPointer
      mangled_component_name: "_ZN7android8hardware8graphics11bufferqueue4V1_017IProducerListener14interfaceChainENSt3__18functionIFvRKNS0_8hidl_vecINS0_11hidl_stringEEEEEE"
      component_value: 0
    }
    vtable_components {
      kind: FunctionPointer
      mangled_component_name: "_ZN7android8hardware8graphics11bufferqueue4V1_017IProducerListener5debugERKNS0_11hidl_handleERKNS0_8hidl_vecINS0_11hidl_stringEEE"
      component_value: 0
    }
    vtable_components {
      kind: FunctionPointer
      mangled_component_name: "_ZN7android8hardware8graphics11bufferqueue4V1_017IProducerListener19interfaceDescriptorENSt3__18functionIFvRKNS0_11hidl_stringEEEE"
      component_value: 0
    }
    vtable_components {
      kind: FunctionPointer
      mangled_component_name: "_ZN7android8hardware8graphics11bufferqueue4V1_017IProducerListener12getHashChainENSt3__18functionIFvRKNS0_8hidl_vecINS0_10hidl_arrayIhLj32EJEEEEEEEE"
      component_value: 0
    }
    vtable_components {
      kind: FunctionPointer
      mangled_component_name: "_ZN7android8hardware8graphics11bufferqueue4V1_017IProducerListener21setHALInstrumentationEv"
      component_value: 0
    }
    vtable_components {
      kind: FunctionPointer
      mangled_component_name: "_ZN7android8hardware8graphics11bufferqueue4V1_017IProducerListener11linkToDeathERKNS_2spINS0_20hidl_death_recipientEEEy"
      component_value: 0
    }
    vtable_components {
      kind: FunctionPointer
      mangled_component_name: "_ZN7android8hardware8graphics11bufferqueue4V1_017IProducerListener4pingEv"
      component_value: 0
    }
    vtable_components {
      kind: FunctionPointer
      mangled_component_name: "_ZN7android8hardware8graphics11bufferqueue4V1_017IProducerListener12getDebugInfoENSt3__18functionIFvRKNS_4hidl4base4V1_09DebugInfoEEEE"
      component_value: 0
    }
    vtable_components {
      kind: FunctionPointer
      mangled_component_name: "_ZN7android8hardware8graphics11bufferqueue4V1_017IProducerListener21notifySyspropsChangedEv"
      component_value: 0
    }
    vtable_components {
      kind: FunctionPointer
      mangled_component_name: "_ZN7android8hardware8graphics11bufferqueue4V1_017IProducerListener13unlinkToDeathERKNS_2spINS0_20hidl_death_recipientEEE"
      component_value: 0
    }
    vtable_components {
      kind: CompleteDtorPointer
      mangled_component_name: "_ZN7android8hardware8graphics11bufferqueue4V1_017IProducerListenerD1Ev"
      component_value: 0
    }
    vtable_components {
      kind: DeletingDtorPointer
      mangled_component_name: "_ZN7android8hardware8graphics11bufferqueue4V1_017IProducerListenerD0Ev"
      component_value: 0
    }
    vtable_components {
      kind: FunctionPointer
      mangled_component_name: "_ZN7android8hardware8graphics11bufferqueue4V1_017IProducerListener16onBufferReleasedEv"
      component_value: 0
    }
    vtable_components {
      kind: FunctionPointer
      mangled_component_name: "_ZN7android8hardware8graphics11bufferqueue4V1_017IProducerListener18needsReleaseNotifyEv"
      component_value: 0
    }
    vtable_components {
      kind: VCallOffset
      mangled_component_name: ""
      component_value: 0
    }
    vtable_components {
      kind: VCallOffset
      mangled_component_name: ""
      component_value: 0
    }
    vtable_components {
      kind: VCallOffset
      mangled_component_name: ""
      component_value: 0
    }
    vtable_components {
      kind: VCallOffset
      mangled_component_name: ""
      component_value: 0
    }
    vtable_components {
      kind: VCallOffset
      mangled_component_name: ""
      component_value: -4
    }
    vtable_components {
      kind: OffsetToTop
      mangled_component_name: ""
      component_value: -4
    }
    vtable_components {
      kind: RTTI
      mangled_component_name: "android::hardware::graphics::bufferqueue::V1_0::IProducerListener"
      component_value: 0
    }
    vtable_components {
      kind: CompleteDtorPointer
      mangled_component_name: "_ZN7android8hardware8graphics11bufferqueue4V1_017IProducerListenerD1Ev"
      component_value: 0
    }
    vtable_components {
      kind: DeletingDtorPointer
      mangled_component_name: "_ZN7android8hardware8graphics11bufferqueue4V1_017IProducerListenerD0Ev"
      component_value: 0
    }
    vtable_components {
      kind: FunctionPointer
      mangled_component_name: "_ZN7android7RefBase10onFirstRefEv"
      component_value: 0
    }
    vtable_components {
      kind: FunctionPointer
      mangled_component_name: "_ZN7android7RefBase15onLastStrongRefEPKv"
      component_value: 0
    }
    vtable_components {
      kind: FunctionPointer
      mangled_component_name: "_ZN7android7RefBase20onIncStrongAttemptedEjPKv"
      component_value: 0
    }
    vtable_components {
      kind: FunctionPointer
      mangled_component_name: "_ZN7android7RefBase13onLastWeakRefEPKv"
      component_value: 0
    }
  }
}
records {
  basic_abi {
    type_abi {
      name: "android::hardware::graphics::bufferqueue::V1_0::BpHwProducerListener"
      size: 92
      alignment: 4
    }
    name: "android::hardware::graphics::bufferqueue::V1_0::BpHwProducerListener"
    access: public_access
    linker_set_key: "android::hardware::graphics::bufferqueue::V1_0::BpHwProducerListener"
  }
  fields {
    basic_abi {
      type_abi {
        name: "std::mutex"
        size: 4
        alignment: 4
      }
      name: "_hidl_mMutex"
      access: private_access
    }
  }
  fields {
    basic_abi {
      type_abi {
        name: "std::vector<android::sp<android::hardware::hidl_binder_death_recipient>, std::allocator<android::sp<android::hardware::hidl_binder_death_recipient> > >"
        size: 12
        alignment: 4
      }
      name: "_hidl_mDeathRecipients"
      access: private_access
    }
  }
  base_specifiers {
    basic_abi {
      type_abi {
        name: "android::hardware::BpInterface<android::hardware::graphics::bufferqueue::V1_0::IProducerListener>"
      }
      name: ""
      access: public_access
    }
    is_virtual: false
  }
  base_specifiers {
    basic_abi {
      type_abi {
        name: "android::hardware::details::HidlInstrumentor"
      }
      name: ""
      access: public_access
    }
    is_virtual: false
  }
  source_file: "/data/aosp/out/soong/.intermediates/hardware/interfaces/graphics/bufferqueue/1.0/android.hardware.graphics.bufferqueue@1.0_genc++_headers/gen/android/hardware/graphics/bufferqueue/1.0/BpHwProducerListener.h"
  mangled_record_name: "android::hardware::graphics::bufferqueue::V1_0::BpHwProducerListener"
  vtable_layout {
    vtable_components {
      kind: VBaseOffset
      mangled_component_name: ""
      component_value: 84
    }
    vtable_components {
      kind: OffsetToTop
      mangled_component_name: ""
      component_value: 0
    }
    vtable_components {
      kind: RTTI
      mangled_component_name: "android::hardware::graphics::bufferqueue::V1_0::BpHwProducerListener"
      component_value: 0
    }
    vtable_components {
      kind: FunctionPointer
      mangled_component_name: "_ZNK7android8hardware8graphics11bufferqueue4V1_020BpHwProducerListener8isRemoteEv"
      component_value: 0
    }
    vtable_components {
      kind: FunctionPointer
      mangled_component_name: "_ZN7android8hardware8graphics11bufferqueue4V1_020BpHwProducerListener14interfaceChainENSt3__18functionIFvRKNS0_8hidl_vecINS0_11hidl_stringEEEEEE"
      component_value: 0
    }
    vtable_components {
      kind: FunctionPointer
      mangled_component_name: "_ZN7android8hardware8graphics11bufferqueue4V1_020BpHwProducerListener5debugERKNS0_11hidl_handleERKNS0_8hidl_vecINS0_11hidl_stringEEE"
      component_value: 0
    }
    vtable_components {
      kind: FunctionPointer
      mangled_component_name: "_ZN7android8hardware8graphics11bufferqueue4V1_020BpHwProducerListener19interfaceDescriptorENSt3__18functionIFvRKNS0_11hidl_stringEEEE"
      component_value: 0
    }
    vtable_components {
      kind: FunctionPointer
      mangled_component_name: "_ZN7android8hardware8graphics11bufferqueue4V1_020BpHwProducerListener12getHashChainENSt3__18functionIFvRKNS0_8hidl_vecINS0_10hidl_arrayIhLj32EJEEEEEEEE"
      component_value: 0
    }
    vtable_components {
      kind: FunctionPointer
      mangled_component_name: "_ZN7android8hardware8graphics11bufferqueue4V1_020BpHwProducerListener21setHALInstrumentationEv"
      component_value: 0
    }
    vtable_components {
      kind: FunctionPointer
      mangled_component_name: "_ZN7android8hardware8graphics11bufferqueue4V1_020BpHwProducerListener11linkToDeathERKNS_2spINS0_20hidl_death_recipientEEEy"
      component_value: 0
    }
    vtable_components {
      kind: FunctionPointer
      mangled_component_name: "_ZN7android8hardware8graphics11bufferqueue4V1_020BpHwProducerListener4pingEv"
      component_value: 0
    }
    vtable_components {
      kind: FunctionPointer
      mangled_component_name: "_ZN7android8hardware8graphics11bufferqueue4V1_020BpHwProducerListener12getDebugInfoENSt3__18functionIFvRKNS_4hidl4base4V1_09DebugInfoEEEE"
      component_value: 0
    }
    vtable_components {
      kind: FunctionPointer
      mangled_component_name: "_ZN7android8hardware8graphics11bufferqueue4V1_020BpHwProducerListener21notifySyspropsChangedEv"
      component_value: 0
    }
    vtable_components {
      kind: FunctionPointer
      mangled_component_name: "_ZN7android8hardware8graphics11bufferqueue4V1_020BpHwProducerListener13unlinkToDeathERKNS_2spINS0_20hidl_death_recipientEEE"
      component_value: 0
    }
    vtable_components {
      kind: CompleteDtorPointer
      mangled_component_name: "_ZN7android8hardware8graphics11bufferqueue4V1_020BpHwProducerListenerD1Ev"
      component_value: 0
    }
    vtable_components {
      kind: DeletingDtorPointer
      mangled_component_name: "_ZN7android8hardware8graphics11bufferqueue4V1_020BpHwProducerListenerD0Ev"
      component_value: 0
    }
    vtable_components {
      kind: FunctionPointer
      mangled_component_name: "_ZN7android8hardware8graphics11bufferqueue4V1_020BpHwProducerListener16onBufferReleasedEv"
      component_value: 0
    }
    vtable_components {
      kind: FunctionPointer
      mangled_component_name: "_ZN7android8hardware8graphics11bufferqueue4V1_020BpHwProducerListener18needsReleaseNotifyEv"
      component_value: 0
    }
    vtable_components {
      kind: FunctionPointer
      mangled_component_name: "_ZN7android8hardware11BpInterfaceINS0_8graphics11bufferqueue4V1_017IProducerListenerEE10onAsBinderEv"
      component_value: 0
    }
    vtable_components {
      kind: VBaseOffset
      mangled_component_name: ""
      component_value: 80
    }
    vtable_components {
      kind: OffsetToTop
      mangled_component_name: ""
      component_value: -4
    }
    vtable_components {
      kind: RTTI
      mangled_component_name: "android::hardware::graphics::bufferqueue::V1_0::BpHwProducerListener"
      component_value: 0
    }
    vtable_components {
      kind: CompleteDtorPointer
      mangled_component_name: "_ZN7android8hardware8graphics11bufferqueue4V1_020BpHwProducerListenerD1Ev"
      component_value: 0
    }
    vtable_components {
      kind: DeletingDtorPointer
      mangled_component_name: "_ZN7android8hardware8graphics11bufferqueue4V1_020BpHwProducerListenerD0Ev"
      component_value: 0
    }
    vtable_components {
      kind: FunctionPointer
      mangled_component_name: "_ZN7android8hardware11BpInterfaceINS0_8graphics11bufferqueue4V1_017IProducerListenerEE10onAsBinderEv"
      component_value: 0
    }
    vtable_components {
      kind: VBaseOffset
      mangled_component_name: ""
      component_value: 76
    }
    vtable_components {
      kind: OffsetToTop
      mangled_component_name: ""
      component_value: -8
    }
    vtable_components {
      kind: RTTI
      mangled_component_name: "android::hardware::graphics::bufferqueue::V1_0::BpHwProducerListener"
      component_value: 0
    }
    vtable_components {
      kind: CompleteDtorPointer
      mangled_component_name: "_ZN7android8hardware8graphics11bufferqueue4V1_020BpHwProducerListenerD1Ev"
      component_value: 0
    }
    vtable_components {
      kind: DeletingDtorPointer
      mangled_component_name: "_ZN7android8hardware8graphics11bufferqueue4V1_020BpHwProducerListenerD0Ev"
      component_value: 0
    }
    vtable_components {
      kind: FunctionPointer
      mangled_component_name: "_ZN7android8hardware11BpHwRefBase10onFirstRefEv"
      component_value: 0
    }
    vtable_components {
      kind: FunctionPointer
      mangled_component_name: "_ZN7android8hardware11BpHwRefBase15onLastStrongRefEPKv"
      component_value: 0
    }
    vtable_components {
      kind: FunctionPointer
      mangled_component_name: "_ZN7android8hardware11BpHwRefBase20onIncStrongAttemptedEjPKv"
      component_value: 0
    }
    vtable_components {
      kind: OffsetToTop
      mangled_component_name: ""
      component_value: -24
    }
    vtable_components {
      kind: RTTI
      mangled_component_name: "android::hardware::graphics::bufferqueue::V1_0::BpHwProducerListener"
      component_value: 0
    }
    vtable_components {
      kind: CompleteDtorPointer
      mangled_component_name: "_ZN7android8hardware8graphics11bufferqueue4V1_020BpHwProducerListenerD1Ev"
      component_value: 0
    }
    vtable_components {
      kind: DeletingDtorPointer
      mangled_component_name: "_ZN7android8hardware8graphics11bufferqueue4V1_020BpHwProducerListenerD0Ev"
      component_value: 0
    }
    vtable_components {
      kind: VCallOffset
      mangled_component_name: ""
      component_value: 0
    }
    vtable_components {
      kind: VCallOffset
      mangled_component_name: ""
      component_value: -76
    }
    vtable_components {
      kind: VCallOffset
      mangled_component_name: ""
      component_value: -76
    }
    vtable_components {
      kind: VCallOffset
      mangled_component_name: ""
      component_value: -76
    }
    vtable_components {
      kind: VCallOffset
      mangled_component_name: ""
      component_value: -84
    }
    vtable_components {
      kind: OffsetToTop
      mangled_component_name: ""
      component_value: -84
    }
    vtable_components {
      kind: RTTI
      mangled_component_name: "android::hardware::graphics::bufferqueue::V1_0::BpHwProducerListener"
      component_value: 0
    }
    vtable_components {
      kind: CompleteDtorPointer
      mangled_component_name: "_ZN7android8hardware8graphics11bufferqueue4V1_020BpHwProducerListenerD1Ev"
      component_value: 0
    }
    vtable_components {
      kind: DeletingDtorPointer
      mangled_component_name: "_ZN7android8hardware8graphics11bufferqueue4V1_020BpHwProducerListenerD0Ev"
      component_value: 0
    }
    vtable_components {
      kind: FunctionPointer
      mangled_component_name: "_ZN7android8hardware11BpHwRefBase10onFirstRefEv"
      component_value: 0
    }
    vtable_components {
      kind: FunctionPointer
      mangled_component_name: "_ZN7android8hardware11BpHwRefBase15onLastStrongRefEPKv"
      component_value: 0
    }
    vtable_components {
      kind: FunctionPointer
      mangled_component_name: "_ZN7android8hardware11BpHwRefBase20onIncStrongAttemptedEjPKv"
      component_value: 0
    }
    vtable_components {
      kind: FunctionPointer
      mangled_component_name: "_ZN7android7RefBase13onLastWeakRefEPKv"
      component_value: 0
    }
  }
}
records {
  basic_abi {
    type_abi {
      name: "android::hardware::graphics::bufferqueue::V1_0::BnHwProducerListener"
      size: 80
      alignment: 4
    }
    name: "android::hardware::graphics::bufferqueue::V1_0::BnHwProducerListener"
    access: public_access
    linker_set_key: "android::hardware::graphics::bufferqueue::V1_0::BnHwProducerListener"
  }
  fields {
    basic_abi {
      type_abi {
        name: "android::sp<android::hardware::graphics::bufferqueue::V1_0::IProducerListener>"
        size: 4
        alignment: 4
      }
      name: "_hidl_mImpl"
      access: private_access
    }
  }
  base_specifiers {
    basic_abi {
      type_abi {
        name: "android::hidl::base::V1_0::BnHwBase"
      }
      name: ""
      access: public_access
    }
    is_virtual: false
  }
  source_file: "/data/aosp/out/soong/.intermediates/hardware/interfaces/graphics/bufferqueue/1.0/android.hardware.graphics.bufferqueue@1.0_genc++_headers/gen/android/hardware/graphics/bufferqueue/1.0/BnHwProducerListener.h"
  mangled_record_name: "android::hardware::graphics::bufferqueue::V1_0::BnHwProducerListener"
  vtable_layout {
    vtable_components {
      kind: VBaseOffset
      mangled_component_name: ""
      component_value: 72
    }
    vtable_components {
      kind: OffsetToTop
      mangled_component_name: ""
      component_value: 0
    }
    vtable_components {
      kind: RTTI
      mangled_component_name: "android::hardware::graphics::bufferqueue::V1_0::BnHwProducerListener"
      component_value: 0
    }
    vtable_components {
      kind: FunctionPointer
      mangled_component_name: "_ZN7android8hardware9BHwBinder8transactEjRKNS0_6ParcelEPS2_jNSt3__18functionIFvRS2_EEE"
      component_value: 0
    }
    vtable_components {
      kind: FunctionPointer
      mangled_component_name: "_ZN7android8hardware9BHwBinder11linkToDeathERKNS_2spINS0_7IBinder14DeathRecipientEEEPvj"
      component_value: 0
    }
    vtable_components {
      kind: FunctionPointer
      mangled_component_name: "_ZN7android8hardware9BHwBinder13unlinkToDeathERKNS_2wpINS0_7IBinder14DeathRecipientEEEPvjPS5_"
      component_value: 0
    }
    vtable_components {
      kind: FunctionPointer
      mangled_component_name: "_ZNK7android8hardware7IBinder13checkSubclassEPKv"
      component_value: 0
    }
    vtable_components {
      kind: FunctionPointer
      mangled_component_name: "_ZN7android8hardware9BHwBinder12attachObjectEPKvPvS4_PFvS3_S4_S4_E"
      component_value: 0
    }
    vtable_components {
      kind: FunctionPointer
      mangled_component_name: "_ZNK7android8hardware9BHwBinder10findObjectEPKv"
      component_value: 0
    }
    vtable_components {
      kind: FunctionPointer
      mangled_component_name: "_ZN7android8hardware9BHwBinder12detachObjectEPKv"
      component_value: 0
    }
    vtable_components {
      kind: FunctionPointer
      mangled_component_name: "_ZN7android8hardware9BHwBinder11localBinderEv"
      component_value: 0
    }
    vtable_components {
      kind: FunctionPointer
      mangled_component_name: "_ZN7android8hardware7IBinder12remoteBinderEv"
      component_value: 0
    }
    vtable_components {
      kind: CompleteDtorPointer
      mangled_component_name: "_ZN7android8hardware8graphics11bufferqueue4V1_020BnHwProducerListenerD1Ev"
      component_value: 0
    }
    vtable_components {
      kind: DeletingDtorPointer
      mangled_component_name: "_ZN7android8hardware8graphics11bufferqueue4V1_020BnHwProducerListenerD0Ev"
      component_value: 0
    }
    vtable_components {
      kind: FunctionPointer
      mangled_component_name: "_ZN7android8hardware8graphics11bufferqueue4V1_020BnHwProducerListener10onTransactEjRKNS0_6ParcelEPS5_jNSt3__18functionIFvRS5_EEE"
      component_value: 0
    }
    vtable_components {
      kind: OffsetToTop
      mangled_component_name: ""
      component_value: -20
    }
    vtable_components {
      kind: RTTI
      mangled_component_name: "android::hardware::graphics::bufferqueue::V1_0::BnHwProducerListener"
      component_value: 0
    }
    vtable_components {
      kind: CompleteDtorPointer
      mangled_component_name: "_ZN7android8hardware8graphics11bufferqueue4V1_020BnHwProducerListenerD1Ev"
      component_value: 0
    }
    vtable_components {
      kind: DeletingDtorPointer
      mangled_component_name: "_ZN7android8hardware8graphics11bufferqueue4V1_020BnHwProducerListenerD0Ev"
      component_value: 0
    }
    vtable_components {
      kind: VCallOffset
      mangled_component_name: ""
      component_value: 0
    }
    vtable_components {
      kind: VCallOffset
      mangled_component_name: ""
      component_value: 0
    }
    vtable_components {
      kind: VCallOffset
      mangled_component_name: ""
      component_value: 0
    }
    vtable_components {
      kind: VCallOffset
      mangled_component_name: ""
      component_value: 0
    }
    vtable_components {
      kind: VCallOffset
      mangled_component_name: ""
      component_value: -72
    }
    vtable_components {
      kind: OffsetToTop
      mangled_component_name: ""
      component_value: -72
    }
    vtable_components {
      kind: RTTI
      mangled_component_name: "android::hardware::graphics::bufferqueue::V1_0::BnHwProducerListener"
      component_value: 0
    }
    vtable_components {
      kind: CompleteDtorPointer
      mangled_component_name: "_ZN7android8hardware8graphics11bufferqueue4V1_020BnHwProducerListenerD1Ev"
      component_value: 0
    }
    vtable_components {
      kind: DeletingDtorPointer
      mangled_component_name: "_ZN7android8hardware8graphics11bufferqueue4V1_020BnHwProducerListenerD0Ev"
      component_value: 0
    }
    vtable_components {
      kind: FunctionPointer
      mangled_component_name: "_ZN7android7RefBase10onFirstRefEv"
      component_value: 0
    }
    vtable_components {
      kind: FunctionPointer
      mangled_component_name: "_ZN7android7RefBase15onLastStrongRefEPKv"
      component_value: 0
    }
    vtable_components {
      kind: FunctionPointer
      mangled_component_name: "_ZN7android7RefBase20onIncStrongAttemptedEjPKv"
      component_value: 0
    }
    vtable_components {
      kind: FunctionPointer
      mangled_component_name: "_ZN7android7RefBase13onLastWeakRefEPKv"
      component_value: 0
    }
  }
}
records {
  basic_abi {
    type_abi {
      name: "android::hardware::graphics::bufferqueue::V1_0::BsProducerListener"
      size: 68
      alignment: 4
    }
    name: "android::hardware::graphics::bufferqueue::V1_0::BsProducerListener"
    access: public_access
    linker_set_key: "android::hardware::graphics::bufferqueue::V1_0::BsProducerListener"
  }
  fields {
    basic_abi {
      type_abi {
        name: "const android::sp<android::hardware::graphics::bufferqueue::V1_0::IProducerListener>"
        size: 4
        alignment: 4
      }
      name: "mImpl"
      access: private_access
    }
  }
  fields {
    basic_abi {
      type_abi {
        name: "android::hardware::details::TaskRunner"
        size: 8
        alignment: 4
      }
      name: "mOnewayQueue"
      access: private_access
    }
  }
  base_specifiers {
    basic_abi {
      type_abi {
        name: "android::hardware::graphics::bufferqueue::V1_0::IProducerListener"
      }
      name: ""
      access: public_access
    }
    is_virtual: false
  }
  base_specifiers {
    basic_abi {
      type_abi {
        name: "android::hardware::details::HidlInstrumentor"
      }
      name: ""
      access: public_access
    }
    is_virtual: false
  }
  source_file: "/data/aosp/out/soong/.intermediates/hardware/interfaces/graphics/bufferqueue/1.0/android.hardware.graphics.bufferqueue@1.0_genc++_headers/gen/android/hardware/graphics/bufferqueue/1.0/BsProducerListener.h"
  mangled_record_name: "android::hardware::graphics::bufferqueue::V1_0::BsProducerListener"
  vtable_layout {
    vtable_components {
      kind: VBaseOffset
      mangled_component_name: ""
      component_value: 60
    }
    vtable_components {
      kind: OffsetToTop
      mangled_component_name: ""
      component_value: 0
    }
    vtable_components {
      kind: RTTI
      mangled_component_name: "android::hardware::graphics::bufferqueue::V1_0::BsProducerListener"
      component_value: 0
    }
    vtable_components {
      kind: FunctionPointer
      mangled_component_name: "_ZNK7android8hardware8graphics11bufferqueue4V1_017IProducerListener8isRemoteEv"
      component_value: 0
    }
    vtable_components {
      kind: FunctionPointer
      mangled_component_name: "_ZN7android8hardware8graphics11bufferqueue4V1_018BsProducerListener14interfaceChainENSt3__18functionIFvRKNS0_8hidl_vecINS0_11hidl_stringEEEEEE"
      component_value: 0
    }
    vtable_components {
      kind: FunctionPointer
      mangled_component_name: "_ZN7android8hardware8graphics11bufferqueue4V1_018BsProducerListener5debugERKNS0_11hidl_handleERKNS0_8hidl_vecINS0_11hidl_stringEEE"
      component_value: 0
    }
    vtable_components {
      kind: FunctionPointer
      mangled_component_name: "_ZN7android8hardware8graphics11bufferqueue4V1_018BsProducerListener19interfaceDescriptorENSt3__18functionIFvRKNS0_11hidl_stringEEEE"
      component_value: 0
    }
    vtable_components {
      kind: FunctionPointer
      mangled_component_name: "_ZN7android8hardware8graphics11bufferqueue4V1_018BsProducerListener12getHashChainENSt3__18functionIFvRKNS0_8hidl_vecINS0_10hidl_arrayIhLj32EJEEEEEEEE"
      component_value: 0
    }
    vtable_components {
      kind: FunctionPointer
      mangled_component_name: "_ZN7android8hardware8graphics11bufferqueue4V1_018BsProducerListener21setHALInstrumentationEv"
      component_value: 0
    }
    vtable_components {
      kind: FunctionPointer
      mangled_component_name: "_ZN7android8hardware8graphics11bufferqueue4V1_018BsProducerListener11linkToDeathERKNS_2spINS0_20hidl_death_recipientEEEy"
      component_value: 0
    }
    vtable_components {
      kind: FunctionPointer
      mangled_component_name: "_ZN7android8hardware8graphics11bufferqueue4V1_018BsProducerListener4pingEv"
      component_value: 0
    }
    vtable_components {
      kind: FunctionPointer
      mangled_component_name: "_ZN7android8hardware8graphics11bufferqueue4V1_018BsProducerListener12getDebugInfoENSt3__18functionIFvRKNS_4hidl4base4V1_09DebugInfoEEEE"
      component_value: 0
    }
    vtable_components {
      kind: FunctionPointer
      mangled_component_name: "_ZN7android8hardware8graphics11bufferqueue4V1_018BsProducerListener21notifySyspropsChangedEv"
      component_value: 0
    }
    vtable_components {
      kind: FunctionPointer
      mangled_component_name: "_ZN7android8hardware8graphics11bufferqueue4V1_018BsProducerListener13unlinkToDeathERKNS_2spINS0_20hidl_death_recipientEEE"
      component_value: 0
    }
    vtable_components {
      kind: CompleteDtorPointer
      mangled_component_name: "_ZN7android8hardware8graphics11bufferqueue4V1_018BsProducerListenerD1Ev"
      component_value: 0
    }
    vtable_components {
      kind: DeletingDtorPointer
      mangled_component_name: "_ZN7android8hardware8graphics11bufferqueue4V1_018BsProducerListenerD0Ev"
      component_value: 0
    }
    vtable_components {
      kind: FunctionPointer
      mangled_component_name: "_ZN7android8hardware8graphics11bufferqueue4V1_018BsProducerListener16onBufferReleasedEv"
      component_value: 0
    }
    vtable_components {
      kind: FunctionPointer
      mangled_component_name: "_ZN7android8hardware8graphics11bufferqueue4V1_018BsProducerListener18needsReleaseNotifyEv"
      component_value: 0
    }
    vtable_components {
      kind: OffsetToTop
      mangled_component_name: ""
      component_value: -4
    }
    vtable_components {
      kind: RTTI
      mangled_component_name: "android::hardware::graphics::bufferqueue::V1_0::BsProducerListener"
      component_value: 0
    }
    vtable_components {
      kind: CompleteDtorPointer
      mangled_component_name: "_ZN7android8hardware8graphics11bufferqueue4V1_018BsProducerListenerD1Ev"
      component_value: 0
    }
    vtable_components {
      kind: DeletingDtorPointer
      mangled_component_name: "_ZN7android8hardware8graphics11bufferqueue4V1_018BsProducerListenerD0Ev"
      component_value: 0
    }
    vtable_components {
      kind: VCallOffset
      mangled_component_name: ""
      component_value: 0
    }
    vtable_components {
      kind: VCallOffset
      mangled_component_name: ""
      component_value: 0
    }
    vtable_components {
      kind: VCallOffset
      mangled_component_name: ""
      component_value: 0
    }
    vtable_components {
      kind: VCallOffset
      mangled_component_name: ""
      component_value: 0
    }
    vtable_components {
      kind: VCallOffset
      mangled_component_name: ""
      component_value: -60
    }
    vtable_components {
      kind: OffsetToTop
      mangled_component_name: ""
      component_value: -60
    }
    vtable_components {
      kind: RTTI
      mangled_component_name: "android::hardware::graphics::bufferqueue::V1_0::BsProducerListener"
      component_value: 0
    }
    vtable_components {
      kind: CompleteDtorPointer
      mangled_component_name: "_ZN7android8hardware8graphics11bufferqueue4V1_018BsProducerListenerD1Ev"
      component_value: 0
    }
    vtable_components {
      kind: DeletingDtorPointer
      mangled_component_name: "_ZN7android8hardware8graphics11bufferqueue4V1_018BsProducerListenerD0Ev"
      component_value: 0
    }
    vtable_components {
      kind: FunctionPointer
      mangled_component_name: "_ZN7android7RefBase10onFirstRefEv"
      component_value: 0
    }
    vtable_components {
      kind: FunctionPointer
      mangled_component_name: "_ZN7android7RefBase15onLastStrongRefEPKv"
      component_value: 0
    }
    vtable_components {
      kind: FunctionPointer
      mangled_component_name: "_ZN7android7RefBase20onIncStrongAttemptedEjPKv"
      component_value: 0
    }
    vtable_components {
      kind: FunctionPointer
      mangled_component_name: "_ZN7android7RefBase13onLastWeakRefEPKv"
      component_value: 0
    }
  }
}
functions {
  basic_abi {
    type_abi {
      name: "bool"
      size: 1
      alignment: 1
    }
    name: "android::hardware::graphics::bufferqueue::V1_0::IProducerListener::isRemote"
    access: public_access
    linker_set_key: "_ZNK7android8hardware8graphics11bufferqueue4V1_017IProducerListener8isRemoteEv"
  }
  mangled_function_name: "_ZNK7android8hardware8graphics11bufferqueue4V1_017IProducerListener8isRemoteEv"
  source_file: "/data/aosp/out/soong/.intermediates/hardware/interfaces/graphics/bufferqueue/1.0/android.hardware.graphics.bufferqueue@1.0_genc++_headers/gen/android/hardware/graphics/bufferqueue/1.0/IProducerListener.h"
}
functions {
  basic_abi {
    type_abi {
      name: "android::hardware::Return<void>"
    }
    name: "android::hardware::graphics::bufferqueue::V1_0::IProducerListener::onBufferReleased"
    access: public_access
    linker_set_key: "_ZN7android8hardware8graphics11bufferqueue4V1_017IProducerListener16onBufferReleasedEv"
  }
  mangled_function_name: "_ZN7android8hardware8graphics11bufferqueue4V1_017IProducerListener16onBufferReleasedEv"
  source_file: "/data/aosp/out/soong/.intermediates/hardware/interfaces/graphics/bufferqueue/1.0/android.hardware.graphics.bufferqueue@1.0_genc++_headers/gen/android/hardware/graphics/bufferqueue/1.0/IProducerListener.h"
}
functions {
  basic_abi {
    type_abi {
      name: "android::hardware::Return<bool>"
    }
    name: "android::hardware::graphics::bufferqueue::V1_0::IProducerListener::needsReleaseNotify"
    access: public_access
    linker_set_key: "_ZN7android8hardware8graphics11bufferqueue4V1_017IProducerListener18needsReleaseNotifyEv"
  }
  mangled_function_name: "_ZN7android8hardware8graphics11bufferqueue4V1_017IProducerListener18needsReleaseNotifyEv"
  source_file: "/data/aosp/out/soong/.intermediates/hardware/interfaces/graphics/bufferqueue/1.0/android.hardware.graphics.bufferqueue@1.0_genc++_headers/gen/android/hardware/graphics/bufferqueue/1.0/IProducerListener.h"
}
functions {
  basic_abi {
    type_abi {
      name: "android::hardware::Return<void>"
    }
    name: "android::hardware::graphics::bufferqueue::V1_0::IProducerListener::interfaceChain"
    access: public_access
    linker_set_key: "_ZN7android8hardware8graphics11bufferqueue4V1_017IProducerListener14interfaceChainENSt3__18functionIFvRKNS0_8hidl_vecINS0_11hidl_stringEEEEEE"
  }
  mangled_function_name: "_ZN7android8hardware8graphics11bufferqueue4V1_017IProducerListener14interfaceChainENSt3__18functionIFvRKNS0_8hidl_vecINS0_11hidl_stringEEEEEE"
  source_file: "/data/aosp/out/soong/.intermediates/hardware/interfaces/graphics/bufferqueue/1.0/android.hardware.graphics.bufferqueue@1.0_genc++_headers/gen/android/hardware/graphics/bufferqueue/1.0/IProducerListener.h"
  parameters {
    basic_abi {
      type_abi {
        name: "std::function<void (const hidl_vec<hidl_string> &)>"
      }
      name: "_hidl_cb"
      access: public_access
      linker_set_key: "false"
    }
    default_arg: false
  }
}
functions {
  basic_abi {
    type_abi {
      name: "android::hardware::Return<void>"
    }
    name: "android::hardware::graphics::bufferqueue::V1_0::IProducerListener::debug"
    access: public_access
    linker_set_key: "_ZN7android8hardware8graphics11bufferqueue4V1_017IProducerListener5debugERKNS0_11hidl_handleERKNS0_8hidl_vecINS0_11hidl_stringEEE"
  }
  mangled_function_name: "_ZN7android8hardware8graphics11bufferqueue4V1_017IProducerListener5debugERKNS0_11hidl_handleERKNS0_8hidl_vecINS0_11hidl_stringEEE"
  source_file: "/data/aosp/out/soong/.intermediates/hardware/interfaces/graphics/bufferqueue/1.0/android.hardware.graphics.bufferqueue@1.0_genc++_headers/gen/android/hardware/graphics/bufferqueue/1.0/IProducerListener.h"
  parameters {
    basic_abi {
      type_abi {
        name: "const android::hardware::hidl_handle &"
      }
      name: "fd"
      access: public_access
      linker_set_key: "false"
    }
    default_arg: false
  }
  parameters {
    basic_abi {
      type_abi {
        name: "const android::hardware::hidl_vec<android::hardware::hidl_string> &"
      }
      name: "options"
      access: public_access
      linker_set_key: "false"
    }
    default_arg: false
  }
}
functions {
  basic_abi {
    type_abi {
      name: "android::hardware::Return<void>"
    }
    name: "android::hardware::graphics::bufferqueue::V1_0::IProducerListener::interfaceDescriptor"
    access: public_access
    linker_set_key: "_ZN7android8hardware8graphics11bufferqueue4V1_017IProducerListener19interfaceDescriptorENSt3__18functionIFvRKNS0_11hidl_stringEEEE"
  }
  mangled_function_name: "_ZN7android8hardware8graphics11bufferqueue4V1_017IProducerListener19interfaceDescriptorENSt3__18functionIFvRKNS0_11hidl_stringEEEE"
  source_file: "/data/aosp/out/soong/.intermediates/hardware/interfaces/graphics/bufferqueue/1.0/android.hardware.graphics.bufferqueue@1.0_genc++_headers/gen/android/hardware/graphics/bufferqueue/1.0/IProducerListener.h"
  parameters {
    basic_abi {
      type_abi {
        name: "std::function<void (const hidl_string &)>"
      }
      name: "_hidl_cb"
      access: public_access
      linker_set_key: "false"
    }
    default_arg: false
  }
}
functions {
  basic_abi {
    type_abi {
      name: "android::hardware::Return<void>"
    }
    name: "android::hardware::graphics::bufferqueue::V1_0::IProducerListener::getHashChain"
    access: public_access
    linker_set_key: "_ZN7android8hardware8graphics11bufferqueue4V1_017IProducerListener12getHashChainENSt3__18functionIFvRKNS0_8hidl_vecINS0_10hidl_arrayIhLj32EJEEEEEEEE"
  }
  mangled_function_name: "_ZN7android8hardware8graphics11bufferqueue4V1_017IProducerListener12getHashChainENSt3__18functionIFvRKNS0_8hidl_vecINS0_10hidl_arrayIhLj32EJEEEEEEEE"
  source_file: "/data/aosp/out/soong/.intermediates/hardware/interfaces/graphics/bufferqueue/1.0/android.hardware.graphics.bufferqueue@1.0_genc++_headers/gen/android/hardware/graphics/bufferqueue/1.0/IProducerListener.h"
  parameters {
    basic_abi {
      type_abi {
        name: "std::function<void (const hidl_vec<hidl_array<unsigned char, 32> > &)>"
      }
      name: "_hidl_cb"
      access: public_access
      linker_set_key: "false"
    }
    default_arg: false
  }
}
functions {
  basic_abi {
    type_abi {
      name: "android::hardware::Return<void>"
    }
    name: "android::hardware::graphics::bufferqueue::V1_0::IProducerListener::setHALInstrumentation"
    access: public_access
    linker_set_key: "_ZN7android8hardware8graphics11bufferqueue4V1_017IProducerListener21setHALInstrumentationEv"
  }
  mangled_function_name: "_ZN7android8hardware8graphics11bufferqueue4V1_017IProducerListener21setHALInstrumentationEv"
  source_file: "/data/aosp/out/soong/.intermediates/hardware/interfaces/graphics/bufferqueue/1.0/android.hardware.graphics.bufferqueue@1.0_genc++_headers/gen/android/hardware/graphics/bufferqueue/1.0/IProducerListener.h"
}
functions {
  basic_abi {
    type_abi {
      name: "android::hardware::Return<bool>"
    }
    name: "android::hardware::graphics::bufferqueue::V1_0::IProducerListener::linkToDeath"
    access: public_access
    linker_set_key: "_ZN7android8hardware8graphics11bufferqueue4V1_017IProducerListener11linkToDeathERKNS_2spINS0_20hidl_death_recipientEEEy"
  }
  mangled_function_name: "_ZN7android8hardware8graphics11bufferqueue4V1_017IProducerListener11linkToDeathERKNS_2spINS0_20hidl_death_recipientEEEy"
  source_file: "/data/aosp/out/soong/.intermediates/hardware/interfaces/graphics/bufferqueue/1.0/android.hardware.graphics.bufferqueue@1.0_genc++_headers/gen/android/hardware/graphics/bufferqueue/1.0/IProducerListener.h"
  parameters {
    basic_abi {
      type_abi {
        name: "const android::sp<android::hardware::hidl_death_recipient> &"
      }
      name: "recipient"
      access: public_access
      linker_set_key: "false"
    }
    default_arg: false
  }
  parameters {
    basic_abi {
      type_abi {
        name: "unsigned long long"
        size: 8
        alignment: 8
      }
      name: "cookie"
      access: public_access
      linker_set_key: "false"
    }
    default_arg: false
  }
}
functions {
  basic_abi {
    type_abi {
      name: "android::hardware::Return<void>"
    }
    name: "android::hardware::graphics::bufferqueue::V1_0::IProducerListener::ping"
    access: public_access
    linker_set_key: "_ZN7android8hardware8graphics11bufferqueue4V1_017IProducerListener4pingEv"
  }
  mangled_function_name: "_ZN7android8hardware8graphics11bufferqueue4V1_017IProducerListener4pingEv"
  source_file: "/data/aosp/out/soong/.intermediates/hardware/interfaces/graphics/bufferqueue/1.0/android.hardware.graphics.bufferqueue@1.0_genc++_headers/gen/android/hardware/graphics/bufferqueue/1.0/IProducerListener.h"
}
functions {
  basic_abi {
    type_abi {
      name: "android::hardware::Return<void>"
    }
    name: "android::hardware::graphics::bufferqueue::V1_0::IProducerListener::getDebugInfo"
    access: public_access
    linker_set_key: "_ZN7android8hardware8graphics11bufferqueue4V1_017IProducerListener12getDebugInfoENSt3__18functionIFvRKNS_4hidl4base4V1_09DebugInfoEEEE"
  }
  mangled_function_name: "_ZN7android8hardware8graphics11bufferqueue4V1_017IProducerListener12getDebugInfoENSt3__18functionIFvRKNS_4hidl4base4V1_09DebugInfoEEEE"
  source_file: "/data/aosp/out/soong/.intermediates/hardware/interfaces/graphics/bufferqueue/1.0/android.hardware.graphics.bufferqueue@1.0_genc++_headers/gen/android/hardware/graphics/bufferqueue/1.0/IProducerListener.h"
  parameters {
    basic_abi {
      type_abi {
        name: "std::function<void (const DebugInfo &)>"
      }
      name: "_hidl_cb"
      access: public_access
      linker_set_key: "false"
    }
    default_arg: false
  }
}
functions {
  basic_abi {
    type_abi {
      name: "android::hardware::Return<void>"
    }
    name: "android::hardware::graphics::bufferqueue::V1_0::IProducerListener::notifySyspropsChanged"
    access: public_access
    linker_set_key: "_ZN7android8hardware8graphics11bufferqueue4V1_017IProducerListener21notifySyspropsChangedEv"
  }
  mangled_function_name: "_ZN7android8hardware8graphics11bufferqueue4V1_017IProducerListener21notifySyspropsChangedEv"
  source_file: "/data/aosp/out/soong/.intermediates/hardware/interfaces/graphics/bufferqueue/1.0/android.hardware.graphics.bufferqueue@1.0_genc++_headers/gen/android/hardware/graphics/bufferqueue/1.0/IProducerListener.h"
}
functions {
  basic_abi {
    type_abi {
      name: "android::hardware::Return<bool>"
    }
    name: "android::hardware::graphics::bufferqueue::V1_0::IProducerListener::unlinkToDeath"
    access: public_access
    linker_set_key: "_ZN7android8hardware8graphics11bufferqueue4V1_017IProducerListener13unlinkToDeathERKNS_2spINS0_20hidl_death_recipientEEE"
  }
  mangled_function_name: "_ZN7android8hardware8graphics11bufferqueue4V1_017IProducerListener13unlinkToDeathERKNS_2spINS0_20hidl_death_recipientEEE"
  source_file: "/data/aosp/out/soong/.intermediates/hardware/interfaces/graphics/bufferqueue/1.0/android.hardware.graphics.bufferqueue@1.0_genc++_headers/gen/android/hardware/graphics/bufferqueue/1.0/IProducerListener.h"
  parameters {
    basic_abi {
      type_abi {
        name: "const android::sp<android::hardware::hidl_death_recipient> &"
      }
      name: "recipient"
      access: public_access
      linker_set_key: "false"
    }
    default_arg: false
  }
}
functions {
  basic_abi {
    type_abi {
      name: "android::hardware::Return<android::sp<android::hardware::graphics::bufferqueue::V1_0::IProducerListener> >"
    }
    name: "android::hardware::graphics::bufferqueue::V1_0::IProducerListener::castFrom"
    access: public_access
    linker_set_key: "_ZN7android8hardware8graphics11bufferqueue4V1_017IProducerListener8castFromERKNS_2spIS4_EEb"
  }
  mangled_function_name: "_ZN7android8hardware8graphics11bufferqueue4V1_017IProducerListener8castFromERKNS_2spIS4_EEb"
  source_file: "/data/aosp/out/soong/.intermediates/hardware/interfaces/graphics/bufferqueue/1.0/android.hardware.graphics.bufferqueue@1.0_genc++_headers/gen/android/hardware/graphics/bufferqueue/1.0/IProducerListener.h"
  parameters {
    basic_abi {
      type_abi {
        name: "const android::sp<android::hardware::graphics::bufferqueue::V1_0::IProducerListener> &"
      }
      name: "parent"
      access: public_access
      linker_set_key: "false"
    }
    default_arg: false
  }
  parameters {
    basic_abi {
      type_abi {
        name: "bool"
        size: 1
        alignment: 1
      }
      name: "emitError"
      access: public_access
      linker_set_key: "true"
    }
    default_arg: true
  }
}
functions {
  basic_abi {
    type_abi {
      name: "android::hardware::Return<android::sp<android::hardware::graphics::bufferqueue::V1_0::IProducerListener> >"
    }
    name: "android::hardware::graphics::bufferqueue::V1_0::IProducerListener::castFrom"
    access: public_access
    linker_set_key: "_ZN7android8hardware8graphics11bufferqueue4V1_017IProducerListener8castFromERKNS_2spINS_4hidl4base4V1_05IBaseEEEb"
  }
  mangled_function_name: "_ZN7android8hardware8graphics11bufferqueue4V1_017IProducerListener8castFromERKNS_2spINS_4hidl4base4V1_05IBaseEEEb"
  source_file: "/data/aosp/out/soong/.intermediates/hardware/interfaces/graphics/bufferqueue/1.0/android.hardware.graphics.bufferqueue@1.0_genc++_headers/gen/android/hardware/graphics/bufferqueue/1.0/IProducerListener.h"
  parameters {
    basic_abi {
      type_abi {
        name: "const android::sp<android::hidl::base::V1_0::IBase> &"
      }
      name: "parent"
      access: public_access
      linker_set_key: "false"
    }
    default_arg: false
  }
  parameters {
    basic_abi {
      type_abi {
        name: "bool"
        size: 1
        alignment: 1
      }
      name: "emitError"
      access: public_access
      linker_set_key: "true"
    }
    default_arg: true
  }
}
functions {
  basic_abi {
    type_abi {
      name: "android::sp<android::hardware::graphics::bufferqueue::V1_0::IProducerListener>"
    }
    name: "android::hardware::graphics::bufferqueue::V1_0::IProducerListener::tryGetService"
    access: public_access
    linker_set_key: "_ZN7android8hardware8graphics11bufferqueue4V1_017IProducerListener13tryGetServiceERKNSt3__112basic_stringIcNS5_11char_traitsIcEENS5_9allocatorIcEEEEb"
  }
  mangled_function_name: "_ZN7android8hardware8graphics11bufferqueue4V1_017IProducerListener13tryGetServiceERKNSt3__112basic_stringIcNS5_11char_traitsIcEENS5_9allocatorIcEEEEb"
  source_file: "/data/aosp/out/soong/.intermediates/hardware/interfaces/graphics/bufferqueue/1.0/android.hardware.graphics.bufferqueue@1.0_genc++_headers/gen/android/hardware/graphics/bufferqueue/1.0/IProducerListener.h"
  parameters {
    basic_abi {
      type_abi {
        name: "const std::basic_string<char, std::char_traits<char>, std::allocator<char> > &"
      }
      name: "serviceName"
      access: public_access
      linker_set_key: "true"
    }
    default_arg: true
  }
  parameters {
    basic_abi {
      type_abi {
        name: "bool"
        size: 1
        alignment: 1
      }
      name: "getStub"
      access: public_access
      linker_set_key: "true"
    }
    default_arg: true
  }
}
functions {
  basic_abi {
    type_abi {
      name: "android::sp<android::hardware::graphics::bufferqueue::V1_0::IProducerListener>"
    }
    name: "android::hardware::graphics::bufferqueue::V1_0::IProducerListener::tryGetService"
    access: public_access
    linker_set_key: "_ZN7android8hardware8graphics11bufferqueue4V1_017IProducerListener13tryGetServiceEPKcb"
  }
  mangled_function_name: "_ZN7android8hardware8graphics11bufferqueue4V1_017IProducerListener13tryGetServiceEPKcb"
  source_file: "/data/aosp/out/soong/.intermediates/hardware/interfaces/graphics/bufferqueue/1.0/android.hardware.graphics.bufferqueue@1.0_genc++_headers/gen/android/hardware/graphics/bufferqueue/1.0/IProducerListener.h"
  parameters {
    basic_abi {
      type_abi {
        name: "const char *"
        size: 4
        alignment: 4
      }
      name: "serviceName"
      access: public_access
      linker_set_key: "false"
    }
    default_arg: false
  }
  parameters {
    basic_abi {
      type_abi {
        name: "bool"
        size: 1
        alignment: 1
      }
      name: "getStub"
      access: public_access
      linker_set_key: "true"
    }
    default_arg: true
  }
}
functions {
  basic_abi {
    type_abi {
      name: "android::sp<android::hardware::graphics::bufferqueue::V1_0::IProducerListener>"
    }
    name: "android::hardware::graphics::bufferqueue::V1_0::IProducerListener::tryGetService"
    access: public_access
    linker_set_key: "_ZN7android8hardware8graphics11bufferqueue4V1_017IProducerListener13tryGetServiceERKNS0_11hidl_stringEb"
  }
  mangled_function_name: "_ZN7android8hardware8graphics11bufferqueue4V1_017IProducerListener13tryGetServiceERKNS0_11hidl_stringEb"
  source_file: "/data/aosp/out/soong/.intermediates/hardware/interfaces/graphics/bufferqueue/1.0/android.hardware.graphics.bufferqueue@1.0_genc++_headers/gen/android/hardware/graphics/bufferqueue/1.0/IProducerListener.h"
  parameters {
    basic_abi {
      type_abi {
        name: "const android::hardware::hidl_string &"
      }
      name: "serviceName"
      access: public_access
      linker_set_key: "false"
    }
    default_arg: false
  }
  parameters {
    basic_abi {
      type_abi {
        name: "bool"
        size: 1
        alignment: 1
      }
      name: "getStub"
      access: public_access
      linker_set_key: "true"
    }
    default_arg: true
  }
}
functions {
  basic_abi {
    type_abi {
      name: "android::sp<android::hardware::graphics::bufferqueue::V1_0::IProducerListener>"
    }
    name: "android::hardware::graphics::bufferqueue::V1_0::IProducerListener::tryGetService"
    access: public_access
    linker_set_key: "_ZN7android8hardware8graphics11bufferqueue4V1_017IProducerListener13tryGetServiceEb"
  }
  mangled_function_name: "_ZN7android8hardware8graphics11bufferqueue4V1_017IProducerListener13tryGetServiceEb"
  source_file: "/data/aosp/out/soong/.intermediates/hardware/interfaces/graphics/bufferqueue/1.0/android.hardware.graphics.bufferqueue@1.0_genc++_headers/gen/android/hardware/graphics/bufferqueue/1.0/IProducerListener.h"
  parameters {
    basic_abi {
      type_abi {
        name: "bool"
        size: 1
        alignment: 1
      }
      name: "getStub"
      access: public_access
      linker_set_key: "false"
    }
    default_arg: false
  }
}
functions {
  basic_abi {
    type_abi {
      name: "android::sp<android::hardware::graphics::bufferqueue::V1_0::IProducerListener>"
    }
    name: "android::hardware::graphics::bufferqueue::V1_0::IProducerListener::getService"
    access: public_access
    linker_set_key: "_ZN7android8hardware8graphics11bufferqueue4V1_017IProducerListener10getServiceERKNSt3__112basic_stringIcNS5_11char_traitsIcEENS5_9allocatorIcEEEEb"
  }
  mangled_function_name: "_ZN7android8hardware8graphics11bufferqueue4V1_017IProducerListener10getServiceERKNSt3__112basic_stringIcNS5_11char_traitsIcEENS5_9allocatorIcEEEEb"
  source_file: "/data/aosp/out/soong/.intermediates/hardware/interfaces/graphics/bufferqueue/1.0/android.hardware.graphics.bufferqueue@1.0_genc++_headers/gen/android/hardware/graphics/bufferqueue/1.0/IProducerListener.h"
  parameters {
    basic_abi {
      type_abi {
        name: "const std::basic_string<char, std::char_traits<char>, std::allocator<char> > &"
      }
      name: "serviceName"
      access: public_access
      linker_set_key: "true"
    }
    default_arg: true
  }
  parameters {
    basic_abi {
      type_abi {
        name: "bool"
        size: 1
        alignment: 1
      }
      name: "getStub"
      access: public_access
      linker_set_key: "true"
    }
    default_arg: true
  }
}
functions {
  basic_abi {
    type_abi {
      name: "android::sp<android::hardware::graphics::bufferqueue::V1_0::IProducerListener>"
    }
    name: "android::hardware::graphics::bufferqueue::V1_0::IProducerListener::getService"
    access: public_access
    linker_set_key: "_ZN7android8hardware8graphics11bufferqueue4V1_017IProducerListener10getServiceEPKcb"
  }
  mangled_function_name: "_ZN7android8hardware8graphics11bufferqueue4V1_017IProducerListener10getServiceEPKcb"
  source_file: "/data/aosp/out/soong/.intermediates/hardware/interfaces/graphics/bufferqueue/1.0/android.hardware.graphics.bufferqueue@1.0_genc++_headers/gen/android/hardware/graphics/bufferqueue/1.0/IProducerListener.h"
  parameters {
    basic_abi {
      type_abi {
        name: "const char *"
        size: 4
        alignment: 4
      }
      name: "serviceName"
      access: public_access
      linker_set_key: "false"
    }
    default_arg: false
  }
  parameters {
    basic_abi {
      type_abi {
        name: "bool"
        size: 1
        alignment: 1
      }
      name: "getStub"
      access: public_access
      linker_set_key: "true"
    }
    default_arg: true
  }
}
functions {
  basic_abi {
    type_abi {
      name: "android::sp<android::hardware::graphics::bufferqueue::V1_0::IProducerListener>"
    }
    name: "android::hardware::graphics::bufferqueue::V1_0::IProducerListener::getService"
    access: public_access
    linker_set_key: "_ZN7android8hardware8graphics11bufferqueue4V1_017IProducerListener10getServiceERKNS0_11hidl_stringEb"
  }
  mangled_function_name: "_ZN7android8hardware8graphics11bufferqueue4V1_017IProducerListener10getServiceERKNS0_11hidl_stringEb"
  source_file: "/data/aosp/out/soong/.intermediates/hardware/interfaces/graphics/bufferqueue/1.0/android.hardware.graphics.bufferqueue@1.0_genc++_headers/gen/android/hardware/graphics/bufferqueue/1.0/IProducerListener.h"
  parameters {
    basic_abi {
      type_abi {
        name: "const android::hardware::hidl_string &"
      }
      name: "serviceName"
      access: public_access
      linker_set_key: "false"
    }
    default_arg: false
  }
  parameters {
    basic_abi {
      type_abi {
        name: "bool"
        size: 1
        alignment: 1
      }
      name: "getStub"
      access: public_access
      linker_set_key: "true"
    }
    default_arg: true
  }
}
functions {
  basic_abi {
    type_abi {
      name: "android::sp<android::hardware::graphics::bufferqueue::V1_0::IProducerListener>"
    }
    name: "android::hardware::graphics::bufferqueue::V1_0::IProducerListener::getService"
    access: public_access
    linker_set_key: "_ZN7android8hardware8graphics11bufferqueue4V1_017IProducerListener10getServiceEb"
  }
  mangled_function_name: "_ZN7android8hardware8graphics11bufferqueue4V1_017IProducerListener10getServiceEb"
  source_file: "/data/aosp/out/soong/.intermediates/hardware/interfaces/graphics/bufferqueue/1.0/android.hardware.graphics.bufferqueue@1.0_genc++_headers/gen/android/hardware/graphics/bufferqueue/1.0/IProducerListener.h"
  parameters {
    basic_abi {
      type_abi {
        name: "bool"
        size: 1
        alignment: 1
      }
      name: "getStub"
      access: public_access
      linker_set_key: "false"
    }
    default_arg: false
  }
}
functions {
  basic_abi {
    type_abi {
      name: "int"
      size: 4
      alignment: 4
    }
    name: "android::hardware::graphics::bufferqueue::V1_0::IProducerListener::registerAsService"
    access: public_access
    linker_set_key: "_ZN7android8hardware8graphics11bufferqueue4V1_017IProducerListener17registerAsServiceERKNSt3__112basic_stringIcNS5_11char_traitsIcEENS5_9allocatorIcEEEE"
  }
  mangled_function_name: "_ZN7android8hardware8graphics11bufferqueue4V1_017IProducerListener17registerAsServiceERKNSt3__112basic_stringIcNS5_11char_traitsIcEENS5_9allocatorIcEEEE"
  source_file: "/data/aosp/out/soong/.intermediates/hardware/interfaces/graphics/bufferqueue/1.0/android.hardware.graphics.bufferqueue@1.0_genc++_headers/gen/android/hardware/graphics/bufferqueue/1.0/IProducerListener.h"
  parameters {
    basic_abi {
      type_abi {
        name: "const std::basic_string<char, std::char_traits<char>, std::allocator<char> > &"
      }
      name: "serviceName"
      access: public_access
      linker_set_key: "true"
    }
    default_arg: true
  }
}
functions {
  basic_abi {
    type_abi {
      name: "bool"
      size: 1
      alignment: 1
    }
    name: "android::hardware::graphics::bufferqueue::V1_0::IProducerListener::registerForNotifications"
    access: public_access
    linker_set_key: "_ZN7android8hardware8graphics11bufferqueue4V1_017IProducerListener24registerForNotificationsERKNSt3__112basic_stringIcNS5_11char_traitsIcEENS5_9allocatorIcEEEERKNS_2spINS_4hidl7manager4V1_020IServiceNotificationEEE"
  }
  mangled_function_name: "_ZN7android8hardware8graphics11bufferqueue4V1_017IProducerListener24registerForNotificationsERKNSt3__112basic_stringIcNS5_11char_traitsIcEENS5_9allocatorIcEEEERKNS_2spINS_4hidl7manager4V1_020IServiceNotificationEEE"
  source_file: "/data/aosp/out/soong/.intermediates/hardware/interfaces/graphics/bufferqueue/1.0/android.hardware.graphics.bufferqueue@1.0_genc++_headers/gen/android/hardware/graphics/bufferqueue/1.0/IProducerListener.h"
  parameters {
    basic_abi {
      type_abi {
        name: "const std::basic_string<char, std::char_traits<char>, std::allocator<char> > &"
      }
      name: "serviceName"
      access: public_access
      linker_set_key: "false"
    }
    default_arg: false
  }
  parameters {
    basic_abi {
      type_abi {
        name: "const android::sp<android::hidl::manager::V1_0::IServiceNotification> &"
      }
      name: "notification"
      access: public_access
      linker_set_key: "false"
    }
    default_arg: false
  }
}
functions {
  basic_abi {
    type_abi {
      name: "std::basic_string<char, std::char_traits<char>, std::allocator<char> >"
    }
    name: "android::hardware::graphics::bufferqueue::V1_0::toString"
    access: public_access
    linker_set_key: "_ZN7android8hardware8graphics11bufferqueue4V1_08toStringERKNS_2spINS3_17IProducerListenerEEE"
  }
  mangled_function_name: "_ZN7android8hardware8graphics11bufferqueue4V1_08toStringERKNS_2spINS3_17IProducerListenerEEE"
  source_file: "/data/aosp/out/soong/.intermediates/hardware/interfaces/graphics/bufferqueue/1.0/android.hardware.graphics.bufferqueue@1.0_genc++_headers/gen/android/hardware/graphics/bufferqueue/1.0/IProducerListener.h"
  parameters {
    basic_abi {
      type_abi {
        name: "const android::sp<android::hardware::graphics::bufferqueue::V1_0::IProducerListener> &"
      }
      name: ""
      access: public_access
      linker_set_key: "false"
    }
    default_arg: false
  }
}
functions {
  basic_abi {
    type_abi {
      name: "void"
    }
    name: "android::hardware::graphics::bufferqueue::V1_0::BpHwProducerListener::BpHwProducerListener"
    access: public_access
    linker_set_key: "_ZN7android8hardware8graphics11bufferqueue4V1_020BpHwProducerListenerC2ERKNS_2spINS0_7IBinderEEE"
  }
  mangled_function_name: "_ZN7android8hardware8graphics11bufferqueue4V1_020BpHwProducerListenerC2ERKNS_2spINS0_7IBinderEEE"
  source_file: "/data/aosp/out/soong/.intermediates/hardware/interfaces/graphics/bufferqueue/1.0/android.hardware.graphics.bufferqueue@1.0_genc++_headers/gen/android/hardware/graphics/bufferqueue/1.0/BpHwProducerListener.h"
  parameters {
    basic_abi {
      type_abi {
        name: "const android::sp<android::hardware::IBinder> &"
      }
      name: "_hidl_impl"
      access: public_access
      linker_set_key: "false"
    }
    default_arg: false
  }
}
functions {
  basic_abi {
    type_abi {
      name: "void"
    }
    name: "android::hardware::graphics::bufferqueue::V1_0::BpHwProducerListener::BpHwProducerListener"
    access: public_access
    linker_set_key: "_ZN7android8hardware8graphics11bufferqueue4V1_020BpHwProducerListenerC1ERKNS_2spINS0_7IBinderEEE"
  }
  mangled_function_name: "_ZN7android8hardware8graphics11bufferqueue4V1_020BpHwProducerListenerC1ERKNS_2spINS0_7IBinderEEE"
  source_file: "/data/aosp/out/soong/.intermediates/hardware/interfaces/graphics/bufferqueue/1.0/android.hardware.graphics.bufferqueue@1.0_genc++_headers/gen/android/hardware/graphics/bufferqueue/1.0/BpHwProducerListener.h"
  parameters {
    basic_abi {
      type_abi {
        name: "const android::sp<android::hardware::IBinder> &"
      }
      name: "_hidl_impl"
      access: public_access
      linker_set_key: "false"
    }
    default_arg: false
  }
}
functions {
  basic_abi {
    type_abi {
      name: "bool"
      size: 1
      alignment: 1
    }
    name: "android::hardware::graphics::bufferqueue::V1_0::BpHwProducerListener::isRemote"
    access: public_access
    linker_set_key: "_ZNK7android8hardware8graphics11bufferqueue4V1_020BpHwProducerListener8isRemoteEv"
  }
  mangled_function_name: "_ZNK7android8hardware8graphics11bufferqueue4V1_020BpHwProducerListener8isRemoteEv"
  source_file: "/data/aosp/out/soong/.intermediates/hardware/interfaces/graphics/bufferqueue/1.0/android.hardware.graphics.bufferqueue@1.0_genc++_headers/gen/android/hardware/graphics/bufferqueue/1.0/BpHwProducerListener.h"
}
functions {
  basic_abi {
    type_abi {
      name: "android::hardware::Return<void>"
    }
    name: "android::hardware::graphics::bufferqueue::V1_0::BpHwProducerListener::_hidl_onBufferReleased"
    access: public_access
    linker_set_key: "_ZN7android8hardware8graphics11bufferqueue4V1_020BpHwProducerListener22_hidl_onBufferReleasedEPNS0_10IInterfaceEPNS0_7details16HidlInstrumentorE"
  }
  mangled_function_name: "_ZN7android8hardware8graphics11bufferqueue4V1_020BpHwProducerListener22_hidl_onBufferReleasedEPNS0_10IInterfaceEPNS0_7details16HidlInstrumentorE"
  source_file: "/data/aosp/out/soong/.intermediates/hardware/interfaces/graphics/bufferqueue/1.0/android.hardware.graphics.bufferqueue@1.0_genc++_headers/gen/android/hardware/graphics/bufferqueue/1.0/BpHwProducerListener.h"
  parameters {
    basic_abi {
      type_abi {
        name: "android::hardware::IInterface *"
        size: 4
        alignment: 4
      }
      name: "_hidl_this"
      access: public_access
      linker_set_key: "false"
    }
    default_arg: false
  }
  parameters {
    basic_abi {
      type_abi {
        name: "android::hardware::details::HidlInstrumentor *"
        size: 4
        alignment: 4
      }
      name: "_hidl_this_instrumentor"
      access: public_access
      linker_set_key: "false"
    }
    default_arg: false
  }
}
functions {
  basic_abi {
    type_abi {
      name: "android::hardware::Return<bool>"
    }
    name: "android::hardware::graphics::bufferqueue::V1_0::BpHwProducerListener::_hidl_needsReleaseNotify"
    access: public_access
    linker_set_key: "_ZN7android8hardware8graphics11bufferqueue4V1_020BpHwProducerListener24_hidl_needsReleaseNotifyEPNS0_10IInterfaceEPNS0_7details16HidlInstrumentorE"
  }
  mangled_function_name: "_ZN7android8hardware8graphics11bufferqueue4V1_020BpHwProducerListener24_hidl_needsReleaseNotifyEPNS0_10IInterfaceEPNS0_7details16HidlInstrumentorE"
  source_file: "/data/aosp/out/soong/.intermediates/hardware/interfaces/graphics/bufferqueue/1.0/android.hardware.graphics.bufferqueue@1.0_genc++_headers/gen/android/hardware/graphics/bufferqueue/1.0/BpHwProducerListener.h"
  parameters {
    basic_abi {
      type_abi {
        name: "android::hardware::IInterface *"
        size: 4
        alignment: 4
      }
      name: "_hidl_this"
      access: public_access
      linker_set_key: "false"
    }
    default_arg: false
  }
  parameters {
    basic_abi {
      type_abi {
        name: "android::hardware::details::HidlInstrumentor *"
        size: 4
        alignment: 4
      }
      name: "_hidl_this_instrumentor"
      access: public_access
      linker_set_key: "false"
    }
    default_arg: false
  }
}
functions {
  basic_abi {
    type_abi {
      name: "android::hardware::Return<void>"
    }
    name: "android::hardware::graphics::bufferqueue::V1_0::BpHwProducerListener::onBufferReleased"
    access: public_access
    linker_set_key: "_ZN7android8hardware8graphics11bufferqueue4V1_020BpHwProducerListener16onBufferReleasedEv"
  }
  mangled_function_name: "_ZN7android8hardware8graphics11bufferqueue4V1_020BpHwProducerListener16onBufferReleasedEv"
  source_file: "/data/aosp/out/soong/.intermediates/hardware/interfaces/graphics/bufferqueue/1.0/android.hardware.graphics.bufferqueue@1.0_genc++_headers/gen/android/hardware/graphics/bufferqueue/1.0/BpHwProducerListener.h"
}
functions {
  basic_abi {
    type_abi {
      name: "android::hardware::Return<bool>"
    }
    name: "android::hardware::graphics::bufferqueue::V1_0::BpHwProducerListener::needsReleaseNotify"
    access: public_access
    linker_set_key: "_ZN7android8hardware8graphics11bufferqueue4V1_020BpHwProducerListener18needsReleaseNotifyEv"
  }
  mangled_function_name: "_ZN7android8hardware8graphics11bufferqueue4V1_020BpHwProducerListener18needsReleaseNotifyEv"
  source_file: "/data/aosp/out/soong/.intermediates/hardware/interfaces/graphics/bufferqueue/1.0/android.hardware.graphics.bufferqueue@1.0_genc++_headers/gen/android/hardware/graphics/bufferqueue/1.0/BpHwProducerListener.h"
}
functions {
  basic_abi {
    type_abi {
      name: "android::hardware::Return<void>"
    }
    name: "android::hardware::graphics::bufferqueue::V1_0::BpHwProducerListener::interfaceChain"
    access: public_access
    linker_set_key: "_ZN7android8hardware8graphics11bufferqueue4V1_020BpHwProducerListener14interfaceChainENSt3__18functionIFvRKNS0_8hidl_vecINS0_11hidl_stringEEEEEE"
  }
  mangled_function_name: "_ZN7android8hardware8graphics11bufferqueue4V1_020BpHwProducerListener14interfaceChainENSt3__18functionIFvRKNS0_8hidl_vecINS0_11hidl_stringEEEEEE"
  source_file: "/data/aosp/out/soong/.intermediates/hardware/interfaces/graphics/bufferqueue/1.0/android.hardware.graphics.bufferqueue@1.0_genc++_headers/gen/android/hardware/graphics/bufferqueue/1.0/BpHwProducerListener.h"
  parameters {
    basic_abi {
      type_abi {
        name: "std::function<void (const hidl_vec<hidl_string> &)>"
      }
      name: "_hidl_cb"
      access: public_access
      linker_set_key: "false"
    }
    default_arg: false
  }
}
functions {
  basic_abi {
    type_abi {
      name: "android::hardware::Return<void>"
    }
    name: "android::hardware::graphics::bufferqueue::V1_0::BpHwProducerListener::debug"
    access: public_access
    linker_set_key: "_ZN7android8hardware8graphics11bufferqueue4V1_020BpHwProducerListener5debugERKNS0_11hidl_handleERKNS0_8hidl_vecINS0_11hidl_stringEEE"
  }
  mangled_function_name: "_ZN7android8hardware8graphics11bufferqueue4V1_020BpHwProducerListener5debugERKNS0_11hidl_handleERKNS0_8hidl_vecINS0_11hidl_stringEEE"
  source_file: "/data/aosp/out/soong/.intermediates/hardware/interfaces/graphics/bufferqueue/1.0/android.hardware.graphics.bufferqueue@1.0_genc++_headers/gen/android/hardware/graphics/bufferqueue/1.0/BpHwProducerListener.h"
  parameters {
    basic_abi {
      type_abi {
        name: "const android::hardware::hidl_handle &"
      }
      name: "fd"
      access: public_access
      linker_set_key: "false"
    }
    default_arg: false
  }
  parameters {
    basic_abi {
      type_abi {
        name: "const android::hardware::hidl_vec<android::hardware::hidl_string> &"
      }
      name: "options"
      access: public_access
      linker_set_key: "false"
    }
    default_arg: false
  }
}
functions {
  basic_abi {
    type_abi {
      name: "android::hardware::Return<void>"
    }
    name: "android::hardware::graphics::bufferqueue::V1_0::BpHwProducerListener::interfaceDescriptor"
    access: public_access
    linker_set_key: "_ZN7android8hardware8graphics11bufferqueue4V1_020BpHwProducerListener19interfaceDescriptorENSt3__18functionIFvRKNS0_11hidl_stringEEEE"
  }
  mangled_function_name: "_ZN7android8hardware8graphics11bufferqueue4V1_020BpHwProducerListener19interfaceDescriptorENSt3__18functionIFvRKNS0_11hidl_stringEEEE"
  source_file: "/data/aosp/out/soong/.intermediates/hardware/interfaces/graphics/bufferqueue/1.0/android.hardware.graphics.bufferqueue@1.0_genc++_headers/gen/android/hardware/graphics/bufferqueue/1.0/BpHwProducerListener.h"
  parameters {
    basic_abi {
      type_abi {
        name: "std::function<void (const hidl_string &)>"
      }
      name: "_hidl_cb"
      access: public_access
      linker_set_key: "false"
    }
    default_arg: false
  }
}
functions {
  basic_abi {
    type_abi {
      name: "android::hardware::Return<void>"
    }
    name: "android::hardware::graphics::bufferqueue::V1_0::BpHwProducerListener::getHashChain"
    access: public_access
    linker_set_key: "_ZN7android8hardware8graphics11bufferqueue4V1_020BpHwProducerListener12getHashChainENSt3__18functionIFvRKNS0_8hidl_vecINS0_10hidl_arrayIhLj32EJEEEEEEEE"
  }
  mangled_function_name: "_ZN7android8hardware8graphics11bufferqueue4V1_020BpHwProducerListener12getHashChainENSt3__18functionIFvRKNS0_8hidl_vecINS0_10hidl_arrayIhLj32EJEEEEEEEE"
  source_file: "/data/aosp/out/soong/.intermediates/hardware/interfaces/graphics/bufferqueue/1.0/android.hardware.graphics.bufferqueue@1.0_genc++_headers/gen/android/hardware/graphics/bufferqueue/1.0/BpHwProducerListener.h"
  parameters {
    basic_abi {
      type_abi {
        name: "std::function<void (const hidl_vec<hidl_array<unsigned char, 32> > &)>"
      }
      name: "_hidl_cb"
      access: public_access
      linker_set_key: "false"
    }
    default_arg: false
  }
}
functions {
  basic_abi {
    type_abi {
      name: "android::hardware::Return<void>"
    }
    name: "android::hardware::graphics::bufferqueue::V1_0::BpHwProducerListener::setHALInstrumentation"
    access: public_access
    linker_set_key: "_ZN7android8hardware8graphics11bufferqueue4V1_020BpHwProducerListener21setHALInstrumentationEv"
  }
  mangled_function_name: "_ZN7android8hardware8graphics11bufferqueue4V1_020BpHwProducerListener21setHALInstrumentationEv"
  source_file: "/data/aosp/out/soong/.intermediates/hardware/interfaces/graphics/bufferqueue/1.0/android.hardware.graphics.bufferqueue@1.0_genc++_headers/gen/android/hardware/graphics/bufferqueue/1.0/BpHwProducerListener.h"
}
functions {
  basic_abi {
    type_abi {
      name: "android::hardware::Return<bool>"
    }
    name: "android::hardware::graphics::bufferqueue::V1_0::BpHwProducerListener::linkToDeath"
    access: public_access
    linker_set_key: "_ZN7android8hardware8graphics11bufferqueue4V1_020BpHwProducerListener11linkToDeathERKNS_2spINS0_20hidl_death_recipientEEEy"
  }
  mangled_function_name: "_ZN7android8hardware8graphics11bufferqueue4V1_020BpHwProducerListener11linkToDeathERKNS_2spINS0_20hidl_death_recipientEEEy"
  source_file: "/data/aosp/out/soong/.intermediates/hardware/interfaces/graphics/bufferqueue/1.0/android.hardware.graphics.bufferqueue@1.0_genc++_headers/gen/android/hardware/graphics/bufferqueue/1.0/BpHwProducerListener.h"
  parameters {
    basic_abi {
      type_abi {
        name: "const android::sp<android::hardware::hidl_death_recipient> &"
      }
      name: "recipient"
      access: public_access
      linker_set_key: "false"
    }
    default_arg: false
  }
  parameters {
    basic_abi {
      type_abi {
        name: "unsigned long long"
        size: 8
        alignment: 8
      }
      name: "cookie"
      access: public_access
      linker_set_key: "false"
    }
    default_arg: false
  }
}
functions {
  basic_abi {
    type_abi {
      name: "android::hardware::Return<void>"
    }
    name: "android::hardware::graphics::bufferqueue::V1_0::BpHwProducerListener::ping"
    access: public_access
    linker_set_key: "_ZN7android8hardware8graphics11bufferqueue4V1_020BpHwProducerListener4pingEv"
  }
  mangled_function_name: "_ZN7android8hardware8graphics11bufferqueue4V1_020BpHwProducerListener4pingEv"
  source_file: "/data/aosp/out/soong/.intermediates/hardware/interfaces/graphics/bufferqueue/1.0/android.hardware.graphics.bufferqueue@1.0_genc++_headers/gen/android/hardware/graphics/bufferqueue/1.0/BpHwProducerListener.h"
}
functions {
  basic_abi {
    type_abi {
      name: "android::hardware::Return<void>"
    }
    name: "android::hardware::graphics::bufferqueue::V1_0::BpHwProducerListener::getDebugInfo"
    access: public_access
    linker_set_key: "_ZN7android8hardware8graphics11bufferqueue4V1_020BpHwProducerListener12getDebugInfoENSt3__18functionIFvRKNS_4hidl4base4V1_09DebugInfoEEEE"
  }
  mangled_function_name: "_ZN7android8hardware8graphics11bufferqueue4V1_020BpHwProducerListener12getDebugInfoENSt3__18functionIFvRKNS_4hidl4base4V1_09DebugInfoEEEE"
  source_file: "/data/aosp/out/soong/.intermediates/hardware/interfaces/graphics/bufferqueue/1.0/android.hardware.graphics.bufferqueue@1.0_genc++_headers/gen/android/hardware/graphics/bufferqueue/1.0/BpHwProducerListener.h"
  parameters {
    basic_abi {
      type_abi {
        name: "std::function<void (const DebugInfo &)>"
      }
      name: "_hidl_cb"
      access: public_access
      linker_set_key: "false"
    }
    default_arg: false
  }
}
functions {
  basic_abi {
    type_abi {
      name: "android::hardware::Return<void>"
    }
    name: "android::hardware::graphics::bufferqueue::V1_0::BpHwProducerListener::notifySyspropsChanged"
    access: public_access
    linker_set_key: "_ZN7android8hardware8graphics11bufferqueue4V1_020BpHwProducerListener21notifySyspropsChangedEv"
  }
  mangled_function_name: "_ZN7android8hardware8graphics11bufferqueue4V1_020BpHwProducerListener21notifySyspropsChangedEv"
  source_file: "/data/aosp/out/soong/.intermediates/hardware/interfaces/graphics/bufferqueue/1.0/android.hardware.graphics.bufferqueue@1.0_genc++_headers/gen/android/hardware/graphics/bufferqueue/1.0/BpHwProducerListener.h"
}
functions {
  basic_abi {
    type_abi {
      name: "android::hardware::Return<bool>"
    }
    name: "android::hardware::graphics::bufferqueue::V1_0::BpHwProducerListener::unlinkToDeath"
    access: public_access
    linker_set_key: "_ZN7android8hardware8graphics11bufferqueue4V1_020BpHwProducerListener13unlinkToDeathERKNS_2spINS0_20hidl_death_recipientEEE"
  }
  mangled_function_name: "_ZN7android8hardware8graphics11bufferqueue4V1_020BpHwProducerListener13unlinkToDeathERKNS_2spINS0_20hidl_death_recipientEEE"
  source_file: "/data/aosp/out/soong/.intermediates/hardware/interfaces/graphics/bufferqueue/1.0/android.hardware.graphics.bufferqueue@1.0_genc++_headers/gen/android/hardware/graphics/bufferqueue/1.0/BpHwProducerListener.h"
  parameters {
    basic_abi {
      type_abi {
        name: "const android::sp<android::hardware::hidl_death_recipient> &"
      }
      name: "recipient"
      access: public_access
      linker_set_key: "false"
    }
    default_arg: false
  }
}
functions {
  basic_abi {
    type_abi {
      name: "void"
    }
    name: "android::hardware::graphics::bufferqueue::V1_0::BnHwProducerListener::BnHwProducerListener"
    access: public_access
    linker_set_key: "_ZN7android8hardware8graphics11bufferqueue4V1_020BnHwProducerListenerC2ERKNS_2spINS3_17IProducerListenerEEE"
  }
  mangled_function_name: "_ZN7android8hardware8graphics11bufferqueue4V1_020BnHwProducerListenerC2ERKNS_2spINS3_17IProducerListenerEEE"
  source_file: "/data/aosp/out/soong/.intermediates/hardware/interfaces/graphics/bufferqueue/1.0/android.hardware.graphics.bufferqueue@1.0_genc++_headers/gen/android/hardware/graphics/bufferqueue/1.0/BnHwProducerListener.h"
  parameters {
    basic_abi {
      type_abi {
        name: "const android::sp<android::hardware::graphics::bufferqueue::V1_0::IProducerListener> &"
      }
      name: "_hidl_impl"
      access: public_access
      linker_set_key: "false"
    }
    default_arg: false
  }
}
functions {
  basic_abi {
    type_abi {
      name: "void"
    }
    name: "android::hardware::graphics::bufferqueue::V1_0::BnHwProducerListener::BnHwProducerListener"
    access: public_access
    linker_set_key: "_ZN7android8hardware8graphics11bufferqueue4V1_020BnHwProducerListenerC1ERKNS_2spINS3_17IProducerListenerEEE"
  }
  mangled_function_name: "_ZN7android8hardware8graphics11bufferqueue4V1_020BnHwProducerListenerC1ERKNS_2spINS3_17IProducerListenerEEE"
  source_file: "/data/aosp/out/soong/.intermediates/hardware/interfaces/graphics/bufferqueue/1.0/android.hardware.graphics.bufferqueue@1.0_genc++_headers/gen/android/hardware/graphics/bufferqueue/1.0/BnHwProducerListener.h"
  parameters {
    basic_abi {
      type_abi {
        name: "const android::sp<android::hardware::graphics::bufferqueue::V1_0::IProducerListener> &"
      }
      name: "_hidl_impl"
      access: public_access
      linker_set_key: "false"
    }
    default_arg: false
  }
}
functions {
  basic_abi {
    type_abi {
      name: "void"
    }
    name: "android::hardware::graphics::bufferqueue::V1_0::BnHwProducerListener::BnHwProducerListener"
    access: public_access
    linker_set_key: "_ZN7android8hardware8graphics11bufferqueue4V1_020BnHwProducerListenerC2ERKNS_2spINS3_17IProducerListenerEEERKNSt3__112basic_stringIcNSA_11char_traitsIcEENSA_9allocatorIcEEEESI_"
  }
  mangled_function_name: "_ZN7android8hardware8graphics11bufferqueue4V1_020BnHwProducerListenerC2ERKNS_2spINS3_17IProducerListenerEEERKNSt3__112basic_stringIcNSA_11char_traitsIcEENSA_9allocatorIcEEEESI_"
  source_file: "/data/aosp/out/soong/.intermediates/hardware/interfaces/graphics/bufferqueue/1.0/android.hardware.graphics.bufferqueue@1.0_genc++_headers/gen/android/hardware/graphics/bufferqueue/1.0/BnHwProducerListener.h"
  parameters {
    basic_abi {
      type_abi {
        name: "const android::sp<android::hardware::graphics::bufferqueue::V1_0::IProducerListener> &"
      }
      name: "_hidl_impl"
      access: public_access
      linker_set_key: "false"
    }
    default_arg: false
  }
  parameters {
    basic_abi {
      type_abi {
        name: "const std::basic_string<char, std::char_traits<char>, std::allocator<char> > &"
      }
      name: "HidlInstrumentor_package"
      access: public_access
      linker_set_key: "false"
    }
    default_arg: false
  }
  parameters {
    basic_abi {
      type_abi {
        name: "const std::basic_string<char, std::char_traits<char>, std::allocator<char> > &"
      }
      name: "HidlInstrumentor_interface"
      access: public_access
      linker_set_key: "false"
    }
    default_arg: false
  }
}
functions {
  basic_abi {
    type_abi {
      name: "void"
    }
    name: "android::hardware::graphics::bufferqueue::V1_0::BnHwProducerListener::BnHwProducerListener"
    access: public_access
    linker_set_key: "_ZN7android8hardware8graphics11bufferqueue4V1_020BnHwProducerListenerC1ERKNS_2spINS3_17IProducerListenerEEERKNSt3__112basic_stringIcNSA_11char_traitsIcEENSA_9allocatorIcEEEESI_"
  }
  mangled_function_name: "_ZN7android8hardware8graphics11bufferqueue4V1_020BnHwProducerListenerC1ERKNS_2spINS3_17IProducerListenerEEERKNSt3__112basic_stringIcNSA_11char_traitsIcEENSA_9allocatorIcEEEESI_"
  source_file: "/data/aosp/out/soong/.intermediates/hardware/interfaces/graphics/bufferqueue/1.0/android.hardware.graphics.bufferqueue@1.0_genc++_headers/gen/android/hardware/graphics/bufferqueue/1.0/BnHwProducerListener.h"
  parameters {
    basic_abi {
      type_abi {
        name: "const android::sp<android::hardware::graphics::bufferqueue::V1_0::IProducerListener> &"
      }
      name: "_hidl_impl"
      access: public_access
      linker_set_key: "false"
    }
    default_arg: false
  }
  parameters {
    basic_abi {
      type_abi {
        name: "const std::basic_string<char, std::char_traits<char>, std::allocator<char> > &"
      }
      name: "HidlInstrumentor_package"
      access: public_access
      linker_set_key: "false"
    }
    default_arg: false
  }
  parameters {
    basic_abi {
      type_abi {
        name: "const std::basic_string<char, std::char_traits<char>, std::allocator<char> > &"
      }
      name: "HidlInstrumentor_interface"
      access: public_access
      linker_set_key: "false"
    }
    default_arg: false
  }
}
functions {
  basic_abi {
    type_abi {
      name: "void"
    }
    name: "android::hardware::graphics::bufferqueue::V1_0::BnHwProducerListener::~BnHwProducerListener"
    access: public_access
    linker_set_key: "_ZN7android8hardware8graphics11bufferqueue4V1_020BnHwProducerListenerD2Ev"
  }
  mangled_function_name: "_ZN7android8hardware8graphics11bufferqueue4V1_020BnHwProducerListenerD2Ev"
  source_file: "/data/aosp/out/soong/.intermediates/hardware/interfaces/graphics/bufferqueue/1.0/android.hardware.graphics.bufferqueue@1.0_genc++_headers/gen/android/hardware/graphics/bufferqueue/1.0/BnHwProducerListener.h"
}
functions {
  basic_abi {
    type_abi {
      name: "void"
    }
    name: "android::hardware::graphics::bufferqueue::V1_0::BnHwProducerListener::~BnHwProducerListener"
    access: public_access
    linker_set_key: "_ZN7android8hardware8graphics11bufferqueue4V1_020BnHwProducerListenerD1Ev"
  }
  mangled_function_name: "_ZN7android8hardware8graphics11bufferqueue4V1_020BnHwProducerListenerD1Ev"
  source_file: "/data/aosp/out/soong/.intermediates/hardware/interfaces/graphics/bufferqueue/1.0/android.hardware.graphics.bufferqueue@1.0_genc++_headers/gen/android/hardware/graphics/bufferqueue/1.0/BnHwProducerListener.h"
}
functions {
  basic_abi {
    type_abi {
      name: "void"
    }
    name: "android::hardware::graphics::bufferqueue::V1_0::BnHwProducerListener::~BnHwProducerListener"
    access: public_access
    linker_set_key: "_ZN7android8hardware8graphics11bufferqueue4V1_020BnHwProducerListenerD0Ev"
  }
  mangled_function_name: "_ZN7android8hardware8graphics11bufferqueue4V1_020BnHwProducerListenerD0Ev"
  source_file: "/data/aosp/out/soong/.intermediates/hardware/interfaces/graphics/bufferqueue/1.0/android.hardware.graphics.bufferqueue@1.0_genc++_headers/gen/android/hardware/graphics/bufferqueue/1.0/BnHwProducerListener.h"
}
functions {
  basic_abi {
    type_abi {
      name: "int"
      size: 4
      alignment: 4
    }
    name: "android::hardware::graphics::bufferqueue::V1_0::BnHwProducerListener::onTransact"
    access: public_access
    linker_set_key: "_ZN7android8hardware8graphics11bufferqueue4V1_020BnHwProducerListener10onTransactEjRKNS0_6ParcelEPS5_jNSt3__18functionIFvRS5_EEE"
  }
  mangled_function_name: "_ZN7android8hardware8graphics11bufferqueue4V1_020BnHwProducerListener10onTransactEjRKNS0_6ParcelEPS5_jNSt3__18functionIFvRS5_EEE"
  source_file: "/data/aosp/out/soong/.intermediates/hardware/interfaces/graphics/bufferqueue/1.0/android.hardware.graphics.bufferqueue@1.0_genc++_headers/gen/android/hardware/graphics/bufferqueue/1.0/BnHwProducerListener.h"
  parameters {
    basic_abi {
      type_abi {
        name: "unsigned int"
        size: 4
        alignment: 4
      }
      name: "_hidl_code"
      access: public_access
      linker_set_key: "false"
    }
    default_arg: false
  }
  parameters {
    basic_abi {
      type_abi {
        name: "const android::hardware::Parcel &"
      }
      name: "_hidl_data"
      access: public_access
      linker_set_key: "false"
    }
    default_arg: false
  }
  parameters {
    basic_abi {
      type_abi {
        name: "android::hardware::Parcel *"
        size: 4
        alignment: 4
      }
      name: "_hidl_reply"
      access: public_access
      linker_set_key: "false"
    }
    default_arg: false
  }
  parameters {
    basic_abi {
      type_abi {
        name: "unsigned int"
        size: 4
        alignment: 4
      }
      name: "_hidl_flags"
      access: public_access
      linker_set_key: "true"
    }
    default_arg: true
  }
  parameters {
    basic_abi {
      type_abi {
        name: "std::function<void (Parcel &)>"
      }
      name: "_hidl_cb"
      access: public_access
      linker_set_key: "true"
    }
    default_arg: true
  }
}
functions {
  basic_abi {
    type_abi {
      name: "android::sp<android::hardware::graphics::bufferqueue::V1_0::IProducerListener>"
    }
    name: "android::hardware::graphics::bufferqueue::V1_0::BnHwProducerListener::getImpl"
    access: public_access
    linker_set_key: "_ZN7android8hardware8graphics11bufferqueue4V1_020BnHwProducerListener7getImplEv"
  }
  mangled_function_name: "_ZN7android8hardware8graphics11bufferqueue4V1_020BnHwProducerListener7getImplEv"
  source_file: "/data/aosp/out/soong/.intermediates/hardware/interfaces/graphics/bufferqueue/1.0/android.hardware.graphics.bufferqueue@1.0_genc++_headers/gen/android/hardware/graphics/bufferqueue/1.0/BnHwProducerListener.h"
}
functions {
  basic_abi {
    type_abi {
      name: "int"
      size: 4
      alignment: 4
    }
    name: "android::hardware::graphics::bufferqueue::V1_0::BnHwProducerListener::_hidl_onBufferReleased"
    access: public_access
    linker_set_key: "_ZN7android8hardware8graphics11bufferqueue4V1_020BnHwProducerListener22_hidl_onBufferReleasedEPNS_4hidl4base4V1_08BnHwBaseERKNS0_6ParcelEPSA_NSt3__18functionIFvRSA_EEE"
  }
  mangled_function_name: "_ZN7android8hardware8graphics11bufferqueue4V1_020BnHwProducerListener22_hidl_onBufferReleasedEPNS_4hidl4base4V1_08BnHwBaseERKNS0_6ParcelEPSA_NSt3__18functionIFvRSA_EEE"
  source_file: "/data/aosp/out/soong/.intermediates/hardware/interfaces/graphics/bufferqueue/1.0/android.hardware.graphics.bufferqueue@1.0_genc++_headers/gen/android/hardware/graphics/bufferqueue/1.0/BnHwProducerListener.h"
  parameters {
    basic_abi {
      type_abi {
        name: "android::hidl::base::V1_0::BnHwBase *"
        size: 4
        alignment: 4
      }
      name: "_hidl_this"
      access: public_access
      linker_set_key: "false"
    }
    default_arg: false
  }
  parameters {
    basic_abi {
      type_abi {
        name: "const android::hardware::Parcel &"
      }
      name: "_hidl_data"
      access: public_access
      linker_set_key: "false"
    }
    default_arg: false
  }
  parameters {
    basic_abi {
      type_abi {
        name: "android::hardware::Parcel *"
        size: 4
        alignment: 4
      }
      name: "_hidl_reply"
      access: public_access
      linker_set_key: "false"
    }
    default_arg: false
  }
  parameters {
    basic_abi {
      type_abi {
        name: "std::function<void (Parcel &)>"
      }
      name: "_hidl_cb"
      access: public_access
      linker_set_key: "false"
    }
    default_arg: false
  }
}
functions {
  basic_abi {
    type_abi {
      name: "int"
      size: 4
      alignment: 4
    }
    name: "android::hardware::graphics::bufferqueue::V1_0::BnHwProducerListener::_hidl_needsReleaseNotify"
    access: public_access
    linker_set_key: "_ZN7android8hardware8graphics11bufferqueue4V1_020BnHwProducerListener24_hidl_needsReleaseNotifyEPNS_4hidl4base4V1_08BnHwBaseERKNS0_6ParcelEPSA_NSt3__18functionIFvRSA_EEE"
  }
  mangled_function_name: "_ZN7android8hardware8graphics11bufferqueue4V1_020BnHwProducerListener24_hidl_needsReleaseNotifyEPNS_4hidl4base4V1_08BnHwBaseERKNS0_6ParcelEPSA_NSt3__18functionIFvRSA_EEE"
  source_file: "/data/aosp/out/soong/.intermediates/hardware/interfaces/graphics/bufferqueue/1.0/android.hardware.graphics.bufferqueue@1.0_genc++_headers/gen/android/hardware/graphics/bufferqueue/1.0/BnHwProducerListener.h"
  parameters {
    basic_abi {
      type_abi {
        name: "android::hidl::base::V1_0::BnHwBase *"
        size: 4
        alignment: 4
      }
      name: "_hidl_this"
      access: public_access
      linker_set_key: "false"
    }
    default_arg: false
  }
  parameters {
    basic_abi {
      type_abi {
        name: "const android::hardware::Parcel &"
      }
      name: "_hidl_data"
      access: public_access
      linker_set_key: "false"
    }
    default_arg: false
  }
  parameters {
    basic_abi {
      type_abi {
        name: "android::hardware::Parcel *"
        size: 4
        alignment: 4
      }
      name: "_hidl_reply"
      access: public_access
      linker_set_key: "false"
    }
    default_arg: false
  }
  parameters {
    basic_abi {
      type_abi {
        name: "std::function<void (Parcel &)>"
      }
      name: "_hidl_cb"
      access: public_access
      linker_set_key: "false"
    }
    default_arg: false
  }
}
functions {
  basic_abi {
    type_abi {
      name: "android::hardware::Return<void>"
    }
    name: "android::hardware::graphics::bufferqueue::V1_0::BnHwProducerListener::ping"
    access: private_access
    linker_set_key: "_ZN7android8hardware8graphics11bufferqueue4V1_020BnHwProducerListener4pingEv"
  }
  mangled_function_name: "_ZN7android8hardware8graphics11bufferqueue4V1_020BnHwProducerListener4pingEv"
  source_file: "/data/aosp/out/soong/.intermediates/hardware/interfaces/graphics/bufferqueue/1.0/android.hardware.graphics.bufferqueue@1.0_genc++_headers/gen/android/hardware/graphics/bufferqueue/1.0/BnHwProducerListener.h"
}
functions {
  basic_abi {
    type_abi {
      name: "android::hardware::Return<void>"
    }
    name: "android::hardware::graphics::bufferqueue::V1_0::BnHwProducerListener::getDebugInfo"
    access: private_access
    linker_set_key: "_ZN7android8hardware8graphics11bufferqueue4V1_020BnHwProducerListener12getDebugInfoENSt3__18functionIFvRKNS_4hidl4base4V1_09DebugInfoEEEE"
  }
  mangled_function_name: "_ZN7android8hardware8graphics11bufferqueue4V1_020BnHwProducerListener12getDebugInfoENSt3__18functionIFvRKNS_4hidl4base4V1_09DebugInfoEEEE"
  source_file: "/data/aosp/out/soong/.intermediates/hardware/interfaces/graphics/bufferqueue/1.0/android.hardware.graphics.bufferqueue@1.0_genc++_headers/gen/android/hardware/graphics/bufferqueue/1.0/BnHwProducerListener.h"
  parameters {
    basic_abi {
      type_abi {
        name: "std::function<void (const DebugInfo &)>"
      }
      name: "_hidl_cb"
      access: public_access
      linker_set_key: "false"
    }
    default_arg: false
  }
}
functions {
  basic_abi {
    type_abi {
      name: "void"
    }
    name: "android::hardware::graphics::bufferqueue::V1_0::BsProducerListener::BsProducerListener"
    access: public_access
    linker_set_key: "_ZN7android8hardware8graphics11bufferqueue4V1_018BsProducerListenerC2ENS_2spINS3_17IProducerListenerEEE"
  }
  mangled_function_name: "_ZN7android8hardware8graphics11bufferqueue4V1_018BsProducerListenerC2ENS_2spINS3_17IProducerListenerEEE"
  source_file: "/data/aosp/out/soong/.intermediates/hardware/interfaces/graphics/bufferqueue/1.0/android.hardware.graphics.bufferqueue@1.0_genc++_headers/gen/android/hardware/graphics/bufferqueue/1.0/BsProducerListener.h"
  parameters {
    basic_abi {
      type_abi {
        name: "const android::sp<android::hardware::graphics::bufferqueue::V1_0::IProducerListener>"
      }
      name: "impl"
      access: public_access
      linker_set_key: "false"
    }
    default_arg: false
  }
}
functions {
  basic_abi {
    type_abi {
      name: "void"
    }
    name: "android::hardware::graphics::bufferqueue::V1_0::BsProducerListener::BsProducerListener"
    access: public_access
    linker_set_key: "_ZN7android8hardware8graphics11bufferqueue4V1_018BsProducerListenerC1ENS_2spINS3_17IProducerListenerEEE"
  }
  mangled_function_name: "_ZN7android8hardware8graphics11bufferqueue4V1_018BsProducerListenerC1ENS_2spINS3_17IProducerListenerEEE"
  source_file: "/data/aosp/out/soong/.intermediates/hardware/interfaces/graphics/bufferqueue/1.0/android.hardware.graphics.bufferqueue@1.0_genc++_headers/gen/android/hardware/graphics/bufferqueue/1.0/BsProducerListener.h"
  parameters {
    basic_abi {
      type_abi {
        name: "const android::sp<android::hardware::graphics::bufferqueue::V1_0::IProducerListener>"
      }
      name: "impl"
      access: public_access
      linker_set_key: "false"
    }
    default_arg: false
  }
}
functions {
  basic_abi {
    type_abi {
      name: "android::hardware::Return<void>"
    }
    name: "android::hardware::graphics::bufferqueue::V1_0::BsProducerListener::onBufferReleased"
    access: public_access
    linker_set_key: "_ZN7android8hardware8graphics11bufferqueue4V1_018BsProducerListener16onBufferReleasedEv"
  }
  mangled_function_name: "_ZN7android8hardware8graphics11bufferqueue4V1_018BsProducerListener16onBufferReleasedEv"
  source_file: "/data/aosp/out/soong/.intermediates/hardware/interfaces/graphics/bufferqueue/1.0/android.hardware.graphics.bufferqueue@1.0_genc++_headers/gen/android/hardware/graphics/bufferqueue/1.0/BsProducerListener.h"
}
functions {
  basic_abi {
    type_abi {
      name: "android::hardware::Return<bool>"
    }
    name: "android::hardware::graphics::bufferqueue::V1_0::BsProducerListener::needsReleaseNotify"
    access: public_access
    linker_set_key: "_ZN7android8hardware8graphics11bufferqueue4V1_018BsProducerListener18needsReleaseNotifyEv"
  }
  mangled_function_name: "_ZN7android8hardware8graphics11bufferqueue4V1_018BsProducerListener18needsReleaseNotifyEv"
  source_file: "/data/aosp/out/soong/.intermediates/hardware/interfaces/graphics/bufferqueue/1.0/android.hardware.graphics.bufferqueue@1.0_genc++_headers/gen/android/hardware/graphics/bufferqueue/1.0/BsProducerListener.h"
}
functions {
  basic_abi {
    type_abi {
      name: "android::hardware::Return<void>"
    }
    name: "android::hardware::graphics::bufferqueue::V1_0::BsProducerListener::interfaceChain"
    access: public_access
    linker_set_key: "_ZN7android8hardware8graphics11bufferqueue4V1_018BsProducerListener14interfaceChainENSt3__18functionIFvRKNS0_8hidl_vecINS0_11hidl_stringEEEEEE"
  }
  mangled_function_name: "_ZN7android8hardware8graphics11bufferqueue4V1_018BsProducerListener14interfaceChainENSt3__18functionIFvRKNS0_8hidl_vecINS0_11hidl_stringEEEEEE"
  source_file: "/data/aosp/out/soong/.intermediates/hardware/interfaces/graphics/bufferqueue/1.0/android.hardware.graphics.bufferqueue@1.0_genc++_headers/gen/android/hardware/graphics/bufferqueue/1.0/BsProducerListener.h"
  parameters {
    basic_abi {
      type_abi {
        name: "std::function<void (const hidl_vec<hidl_string> &)>"
      }
      name: "_hidl_cb"
      access: public_access
      linker_set_key: "false"
    }
    default_arg: false
  }
}
functions {
  basic_abi {
    type_abi {
      name: "android::hardware::Return<void>"
    }
    name: "android::hardware::graphics::bufferqueue::V1_0::BsProducerListener::debug"
    access: public_access
    linker_set_key: "_ZN7android8hardware8graphics11bufferqueue4V1_018BsProducerListener5debugERKNS0_11hidl_handleERKNS0_8hidl_vecINS0_11hidl_stringEEE"
  }
  mangled_function_name: "_ZN7android8hardware8graphics11bufferqueue4V1_018BsProducerListener5debugERKNS0_11hidl_handleERKNS0_8hidl_vecINS0_11hidl_stringEEE"
  source_file: "/data/aosp/out/soong/.intermediates/hardware/interfaces/graphics/bufferqueue/1.0/android.hardware.graphics.bufferqueue@1.0_genc++_headers/gen/android/hardware/graphics/bufferqueue/1.0/BsProducerListener.h"
  parameters {
    basic_abi {
      type_abi {
        name: "const android::hardware::hidl_handle &"
      }
      name: "fd"
      access: public_access
      linker_set_key: "false"
    }
    default_arg: false
  }
  parameters {
    basic_abi {
      type_abi {
        name: "const android::hardware::hidl_vec<android::hardware::hidl_string> &"
      }
      name: "options"
      access: public_access
      linker_set_key: "false"
    }
    default_arg: false
  }
}
functions {
  basic_abi {
    type_abi {
      name: "android::hardware::Return<void>"
    }
    name: "android::hardware::graphics::bufferqueue::V1_0::BsProducerListener::interfaceDescriptor"
    access: public_access
    linker_set_key: "_ZN7android8hardware8graphics11bufferqueue4V1_018BsProducerListener19interfaceDescriptorENSt3__18functionIFvRKNS0_11hidl_stringEEEE"
  }
  mangled_function_name: "_ZN7android8hardware8graphics11bufferqueue4V1_018BsProducerListener19interfaceDescriptorENSt3__18functionIFvRKNS0_11hidl_stringEEEE"
  source_file: "/data/aosp/out/soong/.intermediates/hardware/interfaces/graphics/bufferqueue/1.0/android.hardware.graphics.bufferqueue@1.0_genc++_headers/gen/android/hardware/graphics/bufferqueue/1.0/BsProducerListener.h"
  parameters {
    basic_abi {
      type_abi {
        name: "std::function<void (const hidl_string &)>"
      }
      name: "_hidl_cb"
      access: public_access
      linker_set_key: "false"
    }
    default_arg: false
  }
}
functions {
  basic_abi {
    type_abi {
      name: "android::hardware::Return<void>"
    }
    name: "android::hardware::graphics::bufferqueue::V1_0::BsProducerListener::getHashChain"
    access: public_access
    linker_set_key: "_ZN7android8hardware8graphics11bufferqueue4V1_018BsProducerListener12getHashChainENSt3__18functionIFvRKNS0_8hidl_vecINS0_10hidl_arrayIhLj32EJEEEEEEEE"
  }
  mangled_function_name: "_ZN7android8hardware8graphics11bufferqueue4V1_018BsProducerListener12getHashChainENSt3__18functionIFvRKNS0_8hidl_vecINS0_10hidl_arrayIhLj32EJEEEEEEEE"
  source_file: "/data/aosp/out/soong/.intermediates/hardware/interfaces/graphics/bufferqueue/1.0/android.hardware.graphics.bufferqueue@1.0_genc++_headers/gen/android/hardware/graphics/bufferqueue/1.0/BsProducerListener.h"
  parameters {
    basic_abi {
      type_abi {
        name: "std::function<void (const hidl_vec<hidl_array<unsigned char, 32> > &)>"
      }
      name: "_hidl_cb"
      access: public_access
      linker_set_key: "false"
    }
    default_arg: false
  }
}
functions {
  basic_abi {
    type_abi {
      name: "android::hardware::Return<void>"
    }
    name: "android::hardware::graphics::bufferqueue::V1_0::BsProducerListener::setHALInstrumentation"
    access: public_access
    linker_set_key: "_ZN7android8hardware8graphics11bufferqueue4V1_018BsProducerListener21setHALInstrumentationEv"
  }
  mangled_function_name: "_ZN7android8hardware8graphics11bufferqueue4V1_018BsProducerListener21setHALInstrumentationEv"
  source_file: "/data/aosp/out/soong/.intermediates/hardware/interfaces/graphics/bufferqueue/1.0/android.hardware.graphics.bufferqueue@1.0_genc++_headers/gen/android/hardware/graphics/bufferqueue/1.0/BsProducerListener.h"
}
functions {
  basic_abi {
    type_abi {
      name: "android::hardware::Return<bool>"
    }
    name: "android::hardware::graphics::bufferqueue::V1_0::BsProducerListener::linkToDeath"
    access: public_access
    linker_set_key: "_ZN7android8hardware8graphics11bufferqueue4V1_018BsProducerListener11linkToDeathERKNS_2spINS0_20hidl_death_recipientEEEy"
  }
  mangled_function_name: "_ZN7android8hardware8graphics11bufferqueue4V1_018BsProducerListener11linkToDeathERKNS_2spINS0_20hidl_death_recipientEEEy"
  source_file: "/data/aosp/out/soong/.intermediates/hardware/interfaces/graphics/bufferqueue/1.0/android.hardware.graphics.bufferqueue@1.0_genc++_headers/gen/android/hardware/graphics/bufferqueue/1.0/BsProducerListener.h"
  parameters {
    basic_abi {
      type_abi {
        name: "const android::sp<android::hardware::hidl_death_recipient> &"
      }
      name: "recipient"
      access: public_access
      linker_set_key: "false"
    }
    default_arg: false
  }
  parameters {
    basic_abi {
      type_abi {
        name: "unsigned long long"
        size: 8
        alignment: 8
      }
      name: "cookie"
      access: public_access
      linker_set_key: "false"
    }
    default_arg: false
  }
}
functions {
  basic_abi {
    type_abi {
      name: "android::hardware::Return<void>"
    }
    name: "android::hardware::graphics::bufferqueue::V1_0::BsProducerListener::ping"
    access: public_access
    linker_set_key: "_ZN7android8hardware8graphics11bufferqueue4V1_018BsProducerListener4pingEv"
  }
  mangled_function_name: "_ZN7android8hardware8graphics11bufferqueue4V1_018BsProducerListener4pingEv"
  source_file: "/data/aosp/out/soong/.intermediates/hardware/interfaces/graphics/bufferqueue/1.0/android.hardware.graphics.bufferqueue@1.0_genc++_headers/gen/android/hardware/graphics/bufferqueue/1.0/BsProducerListener.h"
}
functions {
  basic_abi {
    type_abi {
      name: "android::hardware::Return<void>"
    }
    name: "android::hardware::graphics::bufferqueue::V1_0::BsProducerListener::getDebugInfo"
    access: public_access
    linker_set_key: "_ZN7android8hardware8graphics11bufferqueue4V1_018BsProducerListener12getDebugInfoENSt3__18functionIFvRKNS_4hidl4base4V1_09DebugInfoEEEE"
  }
  mangled_function_name: "_ZN7android8hardware8graphics11bufferqueue4V1_018BsProducerListener12getDebugInfoENSt3__18functionIFvRKNS_4hidl4base4V1_09DebugInfoEEEE"
  source_file: "/data/aosp/out/soong/.intermediates/hardware/interfaces/graphics/bufferqueue/1.0/android.hardware.graphics.bufferqueue@1.0_genc++_headers/gen/android/hardware/graphics/bufferqueue/1.0/BsProducerListener.h"
  parameters {
    basic_abi {
      type_abi {
        name: "std::function<void (const DebugInfo &)>"
      }
      name: "_hidl_cb"
      access: public_access
      linker_set_key: "false"
    }
    default_arg: false
  }
}
functions {
  basic_abi {
    type_abi {
      name: "android::hardware::Return<void>"
    }
    name: "android::hardware::graphics::bufferqueue::V1_0::BsProducerListener::notifySyspropsChanged"
    access: public_access
    linker_set_key: "_ZN7android8hardware8graphics11bufferqueue4V1_018BsProducerListener21notifySyspropsChangedEv"
  }
  mangled_function_name: "_ZN7android8hardware8graphics11bufferqueue4V1_018BsProducerListener21notifySyspropsChangedEv"
  source_file: "/data/aosp/out/soong/.intermediates/hardware/interfaces/graphics/bufferqueue/1.0/android.hardware.graphics.bufferqueue@1.0_genc++_headers/gen/android/hardware/graphics/bufferqueue/1.0/BsProducerListener.h"
}
functions {
  basic_abi {
    type_abi {
      name: "android::hardware::Return<bool>"
    }
    name: "android::hardware::graphics::bufferqueue::V1_0::BsProducerListener::unlinkToDeath"
    access: public_access
    linker_set_key: "_ZN7android8hardware8graphics11bufferqueue4V1_018BsProducerListener13unlinkToDeathERKNS_2spINS0_20hidl_death_recipientEEE"
  }
  mangled_function_name: "_ZN7android8hardware8graphics11bufferqueue4V1_018BsProducerListener13unlinkToDeathERKNS_2spINS0_20hidl_death_recipientEEE"
  source_file: "/data/aosp/out/soong/.intermediates/hardware/interfaces/graphics/bufferqueue/1.0/android.hardware.graphics.bufferqueue@1.0_genc++_headers/gen/android/hardware/graphics/bufferqueue/1.0/BsProducerListener.h"
  parameters {
    basic_abi {
      type_abi {
        name: "const android::sp<android::hardware::hidl_death_recipient> &"
      }
      name: "recipient"
      access: public_access
      linker_set_key: "false"
    }
    default_arg: false
  }
}
functions {
  basic_abi {
    type_abi {
      name: "android::hardware::Return<void>"
    }
    name: "android::hardware::graphics::bufferqueue::V1_0::BsProducerListener::addOnewayTask"
    access: private_access
    linker_set_key: "_ZN7android8hardware8graphics11bufferqueue4V1_018BsProducerListener13addOnewayTaskENSt3__18functionIFvvEEE"
  }
  mangled_function_name: "_ZN7android8hardware8graphics11bufferqueue4V1_018BsProducerListener13addOnewayTaskENSt3__18functionIFvvEEE"
  source_file: "/data/aosp/out/soong/.intermediates/hardware/interfaces/graphics/bufferqueue/1.0/android.hardware.graphics.bufferqueue@1.0_genc++_headers/gen/android/hardware/graphics/bufferqueue/1.0/BsProducerListener.h"
  parameters {
    basic_abi {
      type_abi {
        name: "std::function<void ()>"
      }
      name: ""
      access: public_access
      linker_set_key: "false"
    }
    default_arg: false
  }
}
global_vars {
  basic_abi {
    type_abi {
      name: "const char *"
      size: 4
      alignment: 4
    }
    name: "android::hardware::graphics::bufferqueue::V1_0::IProducerListener::descriptor"
    access: public_access
    linker_set_key: "_ZN7android8hardware8graphics11bufferqueue4V1_017IProducerListener10descriptorE"
  }
  source_file: "/data/aosp/out/soong/.intermediates/hardware/interfaces/graphics/bufferqueue/1.0/android.hardware.graphics.bufferqueue@1.0_genc++_headers/gen/android/hardware/graphics/bufferqueue/1.0/IProducerListener.h"
}
