records {
  basic_abi {
    type_abi {
      name: "android::hardware::graphics::composer::V2_1::IComposerCallback"
      size: 12
      alignment: 4
    }
    name: "android::hardware::graphics::composer::V2_1::IComposerCallback"
    access: public_access
    linker_set_key: "android::hardware::graphics::composer::V2_1::IComposerCallback"
  }
  base_specifiers {
    basic_abi {
      type_abi {
        name: "android::hidl::base::V1_0::IBase"
      }
      name: ""
      access: public_access
    }
    is_virtual: false
  }
  source_file: "/out/soong/.intermediates/hardware/interfaces/graphics/composer/2.1/android.hardware.graphics.composer@2.1_genc++_headers/gen/android/hardware/graphics/composer/2.1/IComposerCallback.h"
  mangled_record_name: "android::hardware::graphics::composer::V2_1::IComposerCallback"
  vtable_layout {
    vtable_components {
      kind: VBaseOffset
      mangled_component_name: ""
      component_value: 4
    }
    vtable_components {
      kind: OffsetToTop
      mangled_component_name: ""
      component_value: 0
    }
    vtable_components {
      kind: RTTI
      mangled_component_name: "android::hardware::graphics::composer::V2_1::IComposerCallback"
      component_value: 0
    }
    vtable_components {
      kind: FunctionPointer
      mangled_component_name: "_ZNK7android8hardware8graphics8composer4V2_117IComposerCallback8isRemoteEv"
      component_value: 0
    }
    vtable_components {
      kind: FunctionPointer
      mangled_component_name: "_ZN7android8hardware8graphics8composer4V2_117IComposerCallback14interfaceChainENSt3__18functionIFvRKNS0_8hidl_vecINS0_11hidl_stringEEEEEE"
      component_value: 0
    }
    vtable_components {
      kind: FunctionPointer
      mangled_component_name: "_ZN7android8hardware8graphics8composer4V2_117IComposerCallback5debugERKNS0_11hidl_handleERKNS0_8hidl_vecINS0_11hidl_stringEEE"
      component_value: 0
    }
    vtable_components {
      kind: FunctionPointer
      mangled_component_name: "_ZN7android8hardware8graphics8composer4V2_117IComposerCallback19interfaceDescriptorENSt3__18functionIFvRKNS0_11hidl_stringEEEE"
      component_value: 0
    }
    vtable_components {
      kind: FunctionPointer
      mangled_component_name: "_ZN7android8hardware8graphics8composer4V2_117IComposerCallback12getHashChainENSt3__18functionIFvRKNS0_8hidl_vecINS0_10hidl_arrayIhLj32EJEEEEEEEE"
      component_value: 0
    }
    vtable_components {
      kind: FunctionPointer
      mangled_component_name: "_ZN7android8hardware8graphics8composer4V2_117IComposerCallback21setHALInstrumentationEv"
      component_value: 0
    }
    vtable_components {
      kind: FunctionPointer
      mangled_component_name: "_ZN7android8hardware8graphics8composer4V2_117IComposerCallback11linkToDeathERKNS_2spINS0_20hidl_death_recipientEEEy"
      component_value: 0
    }
    vtable_components {
      kind: FunctionPointer
      mangled_component_name: "_ZN7android8hardware8graphics8composer4V2_117IComposerCallback4pingEv"
      component_value: 0
    }
    vtable_components {
      kind: FunctionPointer
      mangled_component_name: "_ZN7android8hardware8graphics8composer4V2_117IComposerCallback12getDebugInfoENSt3__18functionIFvRKNS_4hidl4base4V1_09DebugInfoEEEE"
      component_value: 0
    }
    vtable_components {
      kind: FunctionPointer
      mangled_component_name: "_ZN7android8hardware8graphics8composer4V2_117IComposerCallback21notifySyspropsChangedEv"
      component_value: 0
    }
    vtable_components {
      kind: FunctionPointer
      mangled_component_name: "_ZN7android8hardware8graphics8composer4V2_117IComposerCallback13unlinkToDeathERKNS_2spINS0_20hidl_death_recipientEEE"
      component_value: 0
    }
    vtable_components {
      kind: CompleteDtorPointer
      mangled_component_name: "_ZN7android8hardware8graphics8composer4V2_117IComposerCallbackD1Ev"
      component_value: 0
    }
    vtable_components {
      kind: DeletingDtorPointer
      mangled_component_name: "_ZN7android8hardware8graphics8composer4V2_117IComposerCallbackD0Ev"
      component_value: 0
    }
    vtable_components {
      kind: FunctionPointer
      mangled_component_name: "_ZN7android8hardware8graphics8composer4V2_117IComposerCallback9onHotplugEyNS4_10ConnectionE"
      component_value: 0
    }
    vtable_components {
      kind: FunctionPointer
      mangled_component_name: "_ZN7android8hardware8graphics8composer4V2_117IComposerCallback9onRefreshEy"
      component_value: 0
    }
    vtable_components {
      kind: FunctionPointer
      mangled_component_name: "_ZN7android8hardware8graphics8composer4V2_117IComposerCallback7onVsyncEyx"
      component_value: 0
    }
    vtable_components {
      kind: VCallOffset
      mangled_component_name: ""
      component_value: 0
    }
    vtable_components {
      kind: VCallOffset
      mangled_component_name: ""
      component_value: 0
    }
    vtable_components {
      kind: VCallOffset
      mangled_component_name: ""
      component_value: 0
    }
    vtable_components {
      kind: VCallOffset
      mangled_component_name: ""
      component_value: 0
    }
    vtable_components {
      kind: VCallOffset
      mangled_component_name: ""
      component_value: -4
    }
    vtable_components {
      kind: OffsetToTop
      mangled_component_name: ""
      component_value: -4
    }
    vtable_components {
      kind: RTTI
      mangled_component_name: "android::hardware::graphics::composer::V2_1::IComposerCallback"
      component_value: 0
    }
    vtable_components {
      kind: CompleteDtorPointer
      mangled_component_name: "_ZN7android8hardware8graphics8composer4V2_117IComposerCallbackD1Ev"
      component_value: 0
    }
    vtable_components {
      kind: DeletingDtorPointer
      mangled_component_name: "_ZN7android8hardware8graphics8composer4V2_117IComposerCallbackD0Ev"
      component_value: 0
    }
    vtable_components {
      kind: FunctionPointer
      mangled_component_name: "_ZN7android7RefBase10onFirstRefEv"
      component_value: 0
    }
    vtable_components {
      kind: FunctionPointer
      mangled_component_name: "_ZN7android7RefBase15onLastStrongRefEPKv"
      component_value: 0
    }
    vtable_components {
      kind: FunctionPointer
      mangled_component_name: "_ZN7android7RefBase20onIncStrongAttemptedEjPKv"
      component_value: 0
    }
    vtable_components {
      kind: FunctionPointer
      mangled_component_name: "_ZN7android7RefBase13onLastWeakRefEPKv"
      component_value: 0
    }
  }
}
records {
  basic_abi {
    type_abi {
      name: "android::hardware::graphics::composer::V2_1::IComposerClient"
      size: 12
      alignment: 4
    }
    name: "android::hardware::graphics::composer::V2_1::IComposerClient"
    access: public_access
    linker_set_key: "android::hardware::graphics::composer::V2_1::IComposerClient"
  }
  base_specifiers {
    basic_abi {
      type_abi {
        name: "android::hidl::base::V1_0::IBase"
      }
      name: ""
      access: public_access
    }
    is_virtual: false
  }
  source_file: "/out/soong/.intermediates/hardware/interfaces/graphics/composer/2.1/android.hardware.graphics.composer@2.1_genc++_headers/gen/android/hardware/graphics/composer/2.1/IComposerClient.h"
  mangled_record_name: "android::hardware::graphics::composer::V2_1::IComposerClient"
  vtable_layout {
    vtable_components {
      kind: VBaseOffset
      mangled_component_name: ""
      component_value: 4
    }
    vtable_components {
      kind: OffsetToTop
      mangled_component_name: ""
      component_value: 0
    }
    vtable_components {
      kind: RTTI
      mangled_component_name: "android::hardware::graphics::composer::V2_1::IComposerClient"
      component_value: 0
    }
    vtable_components {
      kind: FunctionPointer
      mangled_component_name: "_ZNK7android8hardware8graphics8composer4V2_115IComposerClient8isRemoteEv"
      component_value: 0
    }
    vtable_components {
      kind: FunctionPointer
      mangled_component_name: "_ZN7android8hardware8graphics8composer4V2_115IComposerClient14interfaceChainENSt3__18functionIFvRKNS0_8hidl_vecINS0_11hidl_stringEEEEEE"
      component_value: 0
    }
    vtable_components {
      kind: FunctionPointer
      mangled_component_name: "_ZN7android8hardware8graphics8composer4V2_115IComposerClient5debugERKNS0_11hidl_handleERKNS0_8hidl_vecINS0_11hidl_stringEEE"
      component_value: 0
    }
    vtable_components {
      kind: FunctionPointer
      mangled_component_name: "_ZN7android8hardware8graphics8composer4V2_115IComposerClient19interfaceDescriptorENSt3__18functionIFvRKNS0_11hidl_stringEEEE"
      component_value: 0
    }
    vtable_components {
      kind: FunctionPointer
      mangled_component_name: "_ZN7android8hardware8graphics8composer4V2_115IComposerClient12getHashChainENSt3__18functionIFvRKNS0_8hidl_vecINS0_10hidl_arrayIhLj32EJEEEEEEEE"
      component_value: 0
    }
    vtable_components {
      kind: FunctionPointer
      mangled_component_name: "_ZN7android8hardware8graphics8composer4V2_115IComposerClient21setHALInstrumentationEv"
      component_value: 0
    }
    vtable_components {
      kind: FunctionPointer
      mangled_component_name: "_ZN7android8hardware8graphics8composer4V2_115IComposerClient11linkToDeathERKNS_2spINS0_20hidl_death_recipientEEEy"
      component_value: 0
    }
    vtable_components {
      kind: FunctionPointer
      mangled_component_name: "_ZN7android8hardware8graphics8composer4V2_115IComposerClient4pingEv"
      component_value: 0
    }
    vtable_components {
      kind: FunctionPointer
      mangled_component_name: "_ZN7android8hardware8graphics8composer4V2_115IComposerClient12getDebugInfoENSt3__18functionIFvRKNS_4hidl4base4V1_09DebugInfoEEEE"
      component_value: 0
    }
    vtable_components {
      kind: FunctionPointer
      mangled_component_name: "_ZN7android8hardware8graphics8composer4V2_115IComposerClient21notifySyspropsChangedEv"
      component_value: 0
    }
    vtable_components {
      kind: FunctionPointer
      mangled_component_name: "_ZN7android8hardware8graphics8composer4V2_115IComposerClient13unlinkToDeathERKNS_2spINS0_20hidl_death_recipientEEE"
      component_value: 0
    }
    vtable_components {
      kind: CompleteDtorPointer
      mangled_component_name: "_ZN7android8hardware8graphics8composer4V2_115IComposerClientD1Ev"
      component_value: 0
    }
    vtable_components {
      kind: DeletingDtorPointer
      mangled_component_name: "_ZN7android8hardware8graphics8composer4V2_115IComposerClientD0Ev"
      component_value: 0
    }
    vtable_components {
      kind: FunctionPointer
      mangled_component_name: "_ZN7android8hardware8graphics8composer4V2_115IComposerClient16registerCallbackERKNS_2spINS3_17IComposerCallbackEEE"
      component_value: 0
    }
    vtable_components {
      kind: FunctionPointer
      mangled_component_name: "_ZN7android8hardware8graphics8composer4V2_115IComposerClient25getMaxVirtualDisplayCountEv"
      component_value: 0
    }
    vtable_components {
      kind: FunctionPointer
      mangled_component_name: "_ZN7android8hardware8graphics8composer4V2_115IComposerClient20createVirtualDisplayEjjNS1_6common4V1_011PixelFormatEjNSt3__18functionIFvNS3_5ErrorEyS7_EEE"
      component_value: 0
    }
    vtable_components {
      kind: FunctionPointer
      mangled_component_name: "_ZN7android8hardware8graphics8composer4V2_115IComposerClient21destroyVirtualDisplayEy"
      component_value: 0
    }
    vtable_components {
      kind: FunctionPointer
      mangled_component_name: "_ZN7android8hardware8graphics8composer4V2_115IComposerClient11createLayerEyjNSt3__18functionIFvNS3_5ErrorEyEEE"
      component_value: 0
    }
    vtable_components {
      kind: FunctionPointer
      mangled_component_name: "_ZN7android8hardware8graphics8composer4V2_115IComposerClient12destroyLayerEyy"
      component_value: 0
    }
    vtable_components {
      kind: FunctionPointer
      mangled_component_name: "_ZN7android8hardware8graphics8composer4V2_115IComposerClient15getActiveConfigEyNSt3__18functionIFvNS3_5ErrorEjEEE"
      component_value: 0
    }
    vtable_components {
      kind: FunctionPointer
      mangled_component_name: "_ZN7android8hardware8graphics8composer4V2_115IComposerClient22getClientTargetSupportEyjjNS1_6common4V1_011PixelFormatENS6_9DataspaceE"
      component_value: 0
    }
    vtable_components {
      kind: FunctionPointer
      mangled_component_name: "_ZN7android8hardware8graphics8composer4V2_115IComposerClient13getColorModesEyNSt3__18functionIFvNS3_5ErrorERKNS0_8hidl_vecINS1_6common4V1_09ColorModeEEEEEE"
      component_value: 0
    }
    vtable_components {
      kind: FunctionPointer
      mangled_component_name: "_ZN7android8hardware8graphics8composer4V2_115IComposerClient19getDisplayAttributeEyjNS4_9AttributeENSt3__18functionIFvNS3_5ErrorEiEEE"
      component_value: 0
    }
    vtable_components {
      kind: FunctionPointer
      mangled_component_name: "_ZN7android8hardware8graphics8composer4V2_115IComposerClient17getDisplayConfigsEyNSt3__18functionIFvNS3_5ErrorERKNS0_8hidl_vecIjEEEEE"
      component_value: 0
    }
    vtable_components {
      kind: FunctionPointer
      mangled_component_name: "_ZN7android8hardware8graphics8composer4V2_115IComposerClient14getDisplayNameEyNSt3__18functionIFvNS3_5ErrorERKNS0_11hidl_stringEEEE"
      component_value: 0
    }
    vtable_components {
      kind: FunctionPointer
      mangled_component_name: "_ZN7android8hardware8graphics8composer4V2_115IComposerClient14getDisplayTypeEyNSt3__18functionIFvNS3_5ErrorENS4_11DisplayTypeEEEE"
      component_value: 0
    }
    vtable_components {
      kind: FunctionPointer
      mangled_component_name: "_ZN7android8hardware8graphics8composer4V2_115IComposerClient14getDozeSupportEyNSt3__18functionIFvNS3_5ErrorEbEEE"
      component_value: 0
    }
    vtable_components {
      kind: FunctionPointer
      mangled_component_name: "_ZN7android8hardware8graphics8composer4V2_115IComposerClient18getHdrCapabilitiesEyNSt3__18functionIFvNS3_5ErrorERKNS0_8hidl_vecINS1_6common4V1_03HdrEEEfffEEE"
      component_value: 0
    }
    vtable_components {
      kind: FunctionPointer
      mangled_component_name: "_ZN7android8hardware8graphics8composer4V2_115IComposerClient24setClientTargetSlotCountEyj"
      component_value: 0
    }
    vtable_components {
      kind: FunctionPointer
      mangled_component_name: "_ZN7android8hardware8graphics8composer4V2_115IComposerClient15setActiveConfigEyj"
      component_value: 0
    }
    vtable_components {
      kind: FunctionPointer
      mangled_component_name: "_ZN7android8hardware8graphics8composer4V2_115IComposerClient12setColorModeEyNS1_6common4V1_09ColorModeE"
      component_value: 0
    }
    vtable_components {
      kind: FunctionPointer
      mangled_component_name: "_ZN7android8hardware8graphics8composer4V2_115IComposerClient12setPowerModeEyNS4_9PowerModeE"
      component_value: 0
    }
    vtable_components {
      kind: FunctionPointer
      mangled_component_name: "_ZN7android8hardware8graphics8composer4V2_115IComposerClient15setVsyncEnabledEyNS4_5VsyncE"
      component_value: 0
    }
    vtable_components {
      kind: FunctionPointer
      mangled_component_name: "_ZN7android8hardware8graphics8composer4V2_115IComposerClient20setInputCommandQueueERKNS0_12MQDescriptorIjLNS0_8MQFlavorE1EEE"
      component_value: 0
    }
    vtable_components {
      kind: FunctionPointer
      mangled_component_name: "_ZN7android8hardware8graphics8composer4V2_115IComposerClient21getOutputCommandQueueENSt3__18functionIFvNS3_5ErrorERKNS0_12MQDescriptorIjLNS0_8MQFlavorE1EEEEEE"
      component_value: 0
    }
    vtable_components {
      kind: FunctionPointer
      mangled_component_name: "_ZN7android8hardware8graphics8composer4V2_115IComposerClient15executeCommandsEjRKNS0_8hidl_vecINS0_11hidl_handleEEENSt3__18functionIFvNS3_5ErrorEbjS9_EEE"
      component_value: 0
    }
    vtable_components {
      kind: VCallOffset
      mangled_component_name: ""
      component_value: 0
    }
    vtable_components {
      kind: VCallOffset
      mangled_component_name: ""
      component_value: 0
    }
    vtable_components {
      kind: VCallOffset
      mangled_component_name: ""
      component_value: 0
    }
    vtable_components {
      kind: VCallOffset
      mangled_component_name: ""
      component_value: 0
    }
    vtable_components {
      kind: VCallOffset
      mangled_component_name: ""
      component_value: -4
    }
    vtable_components {
      kind: OffsetToTop
      mangled_component_name: ""
      component_value: -4
    }
    vtable_components {
      kind: RTTI
      mangled_component_name: "android::hardware::graphics::composer::V2_1::IComposerClient"
      component_value: 0
    }
    vtable_components {
      kind: CompleteDtorPointer
      mangled_component_name: "_ZN7android8hardware8graphics8composer4V2_115IComposerClientD1Ev"
      component_value: 0
    }
    vtable_components {
      kind: DeletingDtorPointer
      mangled_component_name: "_ZN7android8hardware8graphics8composer4V2_115IComposerClientD0Ev"
      component_value: 0
    }
    vtable_components {
      kind: FunctionPointer
      mangled_component_name: "_ZN7android7RefBase10onFirstRefEv"
      component_value: 0
    }
    vtable_components {
      kind: FunctionPointer
      mangled_component_name: "_ZN7android7RefBase15onLastStrongRefEPKv"
      component_value: 0
    }
    vtable_components {
      kind: FunctionPointer
      mangled_component_name: "_ZN7android7RefBase20onIncStrongAttemptedEjPKv"
      component_value: 0
    }
    vtable_components {
      kind: FunctionPointer
      mangled_component_name: "_ZN7android7RefBase13onLastWeakRefEPKv"
      component_value: 0
    }
  }
}
records {
  basic_abi {
    type_abi {
      name: "android::hardware::graphics::composer::V2_1::IComposerClient::Rect"
      size: 16
      alignment: 4
    }
    name: "android::hardware::graphics::composer::V2_1::IComposerClient::Rect"
    access: public_access
    linker_set_key: "android::hardware::graphics::composer::V2_1::IComposerClient::Rect"
  }
  fields {
    basic_abi {
      type_abi {
        name: "int"
        size: 4
        alignment: 4
      }
      name: "left"
      access: public_access
    }
  }
  fields {
    basic_abi {
      type_abi {
        name: "int"
        size: 4
        alignment: 4
      }
      name: "top"
      access: public_access
    }
  }
  fields {
    basic_abi {
      type_abi {
        name: "int"
        size: 4
        alignment: 4
      }
      name: "right"
      access: public_access
    }
  }
  fields {
    basic_abi {
      type_abi {
        name: "int"
        size: 4
        alignment: 4
      }
      name: "bottom"
      access: public_access
    }
  }
  source_file: "/out/soong/.intermediates/hardware/interfaces/graphics/composer/2.1/android.hardware.graphics.composer@2.1_genc++_headers/gen/android/hardware/graphics/composer/2.1/IComposerClient.h"
  mangled_record_name: "android::hardware::graphics::composer::V2_1::IComposerClient::Rect"
}
records {
  basic_abi {
    type_abi {
      name: "android::hardware::graphics::composer::V2_1::IComposerClient::FRect"
      size: 16
      alignment: 4
    }
    name: "android::hardware::graphics::composer::V2_1::IComposerClient::FRect"
    access: public_access
    linker_set_key: "android::hardware::graphics::composer::V2_1::IComposerClient::FRect"
  }
  fields {
    basic_abi {
      type_abi {
        name: "float"
        size: 4
        alignment: 4
      }
      name: "left"
      access: public_access
    }
  }
  fields {
    basic_abi {
      type_abi {
        name: "float"
        size: 4
        alignment: 4
      }
      name: "top"
      access: public_access
    }
  }
  fields {
    basic_abi {
      type_abi {
        name: "float"
        size: 4
        alignment: 4
      }
      name: "right"
      access: public_access
    }
  }
  fields {
    basic_abi {
      type_abi {
        name: "float"
        size: 4
        alignment: 4
      }
      name: "bottom"
      access: public_access
    }
  }
  source_file: "/out/soong/.intermediates/hardware/interfaces/graphics/composer/2.1/android.hardware.graphics.composer@2.1_genc++_headers/gen/android/hardware/graphics/composer/2.1/IComposerClient.h"
  mangled_record_name: "android::hardware::graphics::composer::V2_1::IComposerClient::FRect"
}
records {
  basic_abi {
    type_abi {
      name: "android::hardware::graphics::composer::V2_1::IComposerClient::Color"
      size: 4
      alignment: 1
    }
    name: "android::hardware::graphics::composer::V2_1::IComposerClient::Color"
    access: public_access
    linker_set_key: "android::hardware::graphics::composer::V2_1::IComposerClient::Color"
  }
  fields {
    basic_abi {
      type_abi {
        name: "unsigned char"
        size: 1
        alignment: 1
      }
      name: "r"
      access: public_access
    }
  }
  fields {
    basic_abi {
      type_abi {
        name: "unsigned char"
        size: 1
        alignment: 1
      }
      name: "g"
      access: public_access
    }
  }
  fields {
    basic_abi {
      type_abi {
        name: "unsigned char"
        size: 1
        alignment: 1
      }
      name: "b"
      access: public_access
    }
  }
  fields {
    basic_abi {
      type_abi {
        name: "unsigned char"
        size: 1
        alignment: 1
      }
      name: "a"
      access: public_access
    }
  }
  source_file: "/out/soong/.intermediates/hardware/interfaces/graphics/composer/2.1/android.hardware.graphics.composer@2.1_genc++_headers/gen/android/hardware/graphics/composer/2.1/IComposerClient.h"
  mangled_record_name: "android::hardware::graphics::composer::V2_1::IComposerClient::Color"
}
records {
  basic_abi {
    type_abi {
      name: "android::hardware::graphics::composer::V2_1::IComposer"
      size: 12
      alignment: 4
    }
    name: "android::hardware::graphics::composer::V2_1::IComposer"
    access: public_access
    linker_set_key: "android::hardware::graphics::composer::V2_1::IComposer"
  }
  base_specifiers {
    basic_abi {
      type_abi {
        name: "android::hidl::base::V1_0::IBase"
      }
      name: ""
      access: public_access
    }
    is_virtual: false
  }
  source_file: "/out/soong/.intermediates/hardware/interfaces/graphics/composer/2.1/android.hardware.graphics.composer@2.1_genc++_headers/gen/android/hardware/graphics/composer/2.1/IComposer.h"
  mangled_record_name: "android::hardware::graphics::composer::V2_1::IComposer"
  vtable_layout {
    vtable_components {
      kind: VBaseOffset
      mangled_component_name: ""
      component_value: 4
    }
    vtable_components {
      kind: OffsetToTop
      mangled_component_name: ""
      component_value: 0
    }
    vtable_components {
      kind: RTTI
      mangled_component_name: "android::hardware::graphics::composer::V2_1::IComposer"
      component_value: 0
    }
    vtable_components {
      kind: FunctionPointer
      mangled_component_name: "_ZNK7android8hardware8graphics8composer4V2_19IComposer8isRemoteEv"
      component_value: 0
    }
    vtable_components {
      kind: FunctionPointer
      mangled_component_name: "_ZN7android8hardware8graphics8composer4V2_19IComposer14interfaceChainENSt3__18functionIFvRKNS0_8hidl_vecINS0_11hidl_stringEEEEEE"
      component_value: 0
    }
    vtable_components {
      kind: FunctionPointer
      mangled_component_name: "_ZN7android8hardware8graphics8composer4V2_19IComposer5debugERKNS0_11hidl_handleERKNS0_8hidl_vecINS0_11hidl_stringEEE"
      component_value: 0
    }
    vtable_components {
      kind: FunctionPointer
      mangled_component_name: "_ZN7android8hardware8graphics8composer4V2_19IComposer19interfaceDescriptorENSt3__18functionIFvRKNS0_11hidl_stringEEEE"
      component_value: 0
    }
    vtable_components {
      kind: FunctionPointer
      mangled_component_name: "_ZN7android8hardware8graphics8composer4V2_19IComposer12getHashChainENSt3__18functionIFvRKNS0_8hidl_vecINS0_10hidl_arrayIhLj32EJEEEEEEEE"
      component_value: 0
    }
    vtable_components {
      kind: FunctionPointer
      mangled_component_name: "_ZN7android8hardware8graphics8composer4V2_19IComposer21setHALInstrumentationEv"
      component_value: 0
    }
    vtable_components {
      kind: FunctionPointer
      mangled_component_name: "_ZN7android8hardware8graphics8composer4V2_19IComposer11linkToDeathERKNS_2spINS0_20hidl_death_recipientEEEy"
      component_value: 0
    }
    vtable_components {
      kind: FunctionPointer
      mangled_component_name: "_ZN7android8hardware8graphics8composer4V2_19IComposer4pingEv"
      component_value: 0
    }
    vtable_components {
      kind: FunctionPointer
      mangled_component_name: "_ZN7android8hardware8graphics8composer4V2_19IComposer12getDebugInfoENSt3__18functionIFvRKNS_4hidl4base4V1_09DebugInfoEEEE"
      component_value: 0
    }
    vtable_components {
      kind: FunctionPointer
      mangled_component_name: "_ZN7android8hardware8graphics8composer4V2_19IComposer21notifySyspropsChangedEv"
      component_value: 0
    }
    vtable_components {
      kind: FunctionPointer
      mangled_component_name: "_ZN7android8hardware8graphics8composer4V2_19IComposer13unlinkToDeathERKNS_2spINS0_20hidl_death_recipientEEE"
      component_value: 0
    }
    vtable_components {
      kind: CompleteDtorPointer
      mangled_component_name: "_ZN7android8hardware8graphics8composer4V2_19IComposerD1Ev"
      component_value: 0
    }
    vtable_components {
      kind: DeletingDtorPointer
      mangled_component_name: "_ZN7android8hardware8graphics8composer4V2_19IComposerD0Ev"
      component_value: 0
    }
    vtable_components {
      kind: FunctionPointer
      mangled_component_name: "_ZN7android8hardware8graphics8composer4V2_19IComposer15getCapabilitiesENSt3__18functionIFvRKNS0_8hidl_vecINS4_10CapabilityEEEEEE"
      component_value: 0
    }
    vtable_components {
      kind: FunctionPointer
      mangled_component_name: "_ZN7android8hardware8graphics8composer4V2_19IComposer13dumpDebugInfoENSt3__18functionIFvRKNS0_11hidl_stringEEEE"
      component_value: 0
    }
    vtable_components {
      kind: FunctionPointer
      mangled_component_name: "_ZN7android8hardware8graphics8composer4V2_19IComposer12createClientENSt3__18functionIFvNS3_5ErrorERKNS_2spINS3_15IComposerClientEEEEEE"
      component_value: 0
    }
    vtable_components {
      kind: VCallOffset
      mangled_component_name: ""
      component_value: 0
    }
    vtable_components {
      kind: VCallOffset
      mangled_component_name: ""
      component_value: 0
    }
    vtable_components {
      kind: VCallOffset
      mangled_component_name: ""
      component_value: 0
    }
    vtable_components {
      kind: VCallOffset
      mangled_component_name: ""
      component_value: 0
    }
    vtable_components {
      kind: VCallOffset
      mangled_component_name: ""
      component_value: -4
    }
    vtable_components {
      kind: OffsetToTop
      mangled_component_name: ""
      component_value: -4
    }
    vtable_components {
      kind: RTTI
      mangled_component_name: "android::hardware::graphics::composer::V2_1::IComposer"
      component_value: 0
    }
    vtable_components {
      kind: CompleteDtorPointer
      mangled_component_name: "_ZN7android8hardware8graphics8composer4V2_19IComposerD1Ev"
      component_value: 0
    }
    vtable_components {
      kind: DeletingDtorPointer
      mangled_component_name: "_ZN7android8hardware8graphics8composer4V2_19IComposerD0Ev"
      component_value: 0
    }
    vtable_components {
      kind: FunctionPointer
      mangled_component_name: "_ZN7android7RefBase10onFirstRefEv"
      component_value: 0
    }
    vtable_components {
      kind: FunctionPointer
      mangled_component_name: "_ZN7android7RefBase15onLastStrongRefEPKv"
      component_value: 0
    }
    vtable_components {
      kind: FunctionPointer
      mangled_component_name: "_ZN7android7RefBase20onIncStrongAttemptedEjPKv"
      component_value: 0
    }
    vtable_components {
      kind: FunctionPointer
      mangled_component_name: "_ZN7android7RefBase13onLastWeakRefEPKv"
      component_value: 0
    }
  }
}
records {
  basic_abi {
    type_abi {
      name: "android::hardware::graphics::composer::V2_1::BnHwComposerCallback"
      size: 80
      alignment: 4
    }
    name: "android::hardware::graphics::composer::V2_1::BnHwComposerCallback"
    access: public_access
    linker_set_key: "android::hardware::graphics::composer::V2_1::BnHwComposerCallback"
  }
  fields {
    basic_abi {
      type_abi {
        name: "android::sp<android::hardware::graphics::composer::V2_1::IComposerCallback>"
        size: 4
        alignment: 4
      }
      name: "_hidl_mImpl"
      access: private_access
    }
  }
  base_specifiers {
    basic_abi {
      type_abi {
        name: "android::hidl::base::V1_0::BnHwBase"
      }
      name: ""
      access: public_access
    }
    is_virtual: false
  }
  source_file: "/out/soong/.intermediates/hardware/interfaces/graphics/composer/2.1/android.hardware.graphics.composer@2.1_genc++_headers/gen/android/hardware/graphics/composer/2.1/BnHwComposerCallback.h"
  mangled_record_name: "android::hardware::graphics::composer::V2_1::BnHwComposerCallback"
  vtable_layout {
    vtable_components {
      kind: VBaseOffset
      mangled_component_name: ""
      component_value: 72
    }
    vtable_components {
      kind: OffsetToTop
      mangled_component_name: ""
      component_value: 0
    }
    vtable_components {
      kind: RTTI
      mangled_component_name: "android::hardware::graphics::composer::V2_1::BnHwComposerCallback"
      component_value: 0
    }
    vtable_components {
      kind: FunctionPointer
      mangled_component_name: "_ZN7android8hardware9BHwBinder8transactEjRKNS0_6ParcelEPS2_jNSt3__18functionIFvRS2_EEE"
      component_value: 0
    }
    vtable_components {
      kind: FunctionPointer
      mangled_component_name: "_ZN7android8hardware9BHwBinder11linkToDeathERKNS_2spINS0_7IBinder14DeathRecipientEEEPvj"
      component_value: 0
    }
    vtable_components {
      kind: FunctionPointer
      mangled_component_name: "_ZN7android8hardware9BHwBinder13unlinkToDeathERKNS_2wpINS0_7IBinder14DeathRecipientEEEPvjPS5_"
      component_value: 0
    }
    vtable_components {
      kind: FunctionPointer
      mangled_component_name: "_ZNK7android8hardware7IBinder13checkSubclassEPKv"
      component_value: 0
    }
    vtable_components {
      kind: FunctionPointer
      mangled_component_name: "_ZN7android8hardware9BHwBinder12attachObjectEPKvPvS4_PFvS3_S4_S4_E"
      component_value: 0
    }
    vtable_components {
      kind: FunctionPointer
      mangled_component_name: "_ZNK7android8hardware9BHwBinder10findObjectEPKv"
      component_value: 0
    }
    vtable_components {
      kind: FunctionPointer
      mangled_component_name: "_ZN7android8hardware9BHwBinder12detachObjectEPKv"
      component_value: 0
    }
    vtable_components {
      kind: FunctionPointer
      mangled_component_name: "_ZN7android8hardware9BHwBinder11localBinderEv"
      component_value: 0
    }
    vtable_components {
      kind: FunctionPointer
      mangled_component_name: "_ZN7android8hardware7IBinder12remoteBinderEv"
      component_value: 0
    }
    vtable_components {
      kind: CompleteDtorPointer
      mangled_component_name: "_ZN7android8hardware8graphics8composer4V2_120BnHwComposerCallbackD1Ev"
      component_value: 0
    }
    vtable_components {
      kind: DeletingDtorPointer
      mangled_component_name: "_ZN7android8hardware8graphics8composer4V2_120BnHwComposerCallbackD0Ev"
      component_value: 0
    }
    vtable_components {
      kind: FunctionPointer
      mangled_component_name: "_ZN7android8hardware8graphics8composer4V2_120BnHwComposerCallback10onTransactEjRKNS0_6ParcelEPS5_jNSt3__18functionIFvRS5_EEE"
      component_value: 0
    }
    vtable_components {
      kind: OffsetToTop
      mangled_component_name: ""
      component_value: -20
    }
    vtable_components {
      kind: RTTI
      mangled_component_name: "android::hardware::graphics::composer::V2_1::BnHwComposerCallback"
      component_value: 0
    }
    vtable_components {
      kind: CompleteDtorPointer
      mangled_component_name: "_ZN7android8hardware8graphics8composer4V2_120BnHwComposerCallbackD1Ev"
      component_value: 0
    }
    vtable_components {
      kind: DeletingDtorPointer
      mangled_component_name: "_ZN7android8hardware8graphics8composer4V2_120BnHwComposerCallbackD0Ev"
      component_value: 0
    }
    vtable_components {
      kind: VCallOffset
      mangled_component_name: ""
      component_value: 0
    }
    vtable_components {
      kind: VCallOffset
      mangled_component_name: ""
      component_value: 0
    }
    vtable_components {
      kind: VCallOffset
      mangled_component_name: ""
      component_value: 0
    }
    vtable_components {
      kind: VCallOffset
      mangled_component_name: ""
      component_value: 0
    }
    vtable_components {
      kind: VCallOffset
      mangled_component_name: ""
      component_value: -72
    }
    vtable_components {
      kind: OffsetToTop
      mangled_component_name: ""
      component_value: -72
    }
    vtable_components {
      kind: RTTI
      mangled_component_name: "android::hardware::graphics::composer::V2_1::BnHwComposerCallback"
      component_value: 0
    }
    vtable_components {
      kind: CompleteDtorPointer
      mangled_component_name: "_ZN7android8hardware8graphics8composer4V2_120BnHwComposerCallbackD1Ev"
      component_value: 0
    }
    vtable_components {
      kind: DeletingDtorPointer
      mangled_component_name: "_ZN7android8hardware8graphics8composer4V2_120BnHwComposerCallbackD0Ev"
      component_value: 0
    }
    vtable_components {
      kind: FunctionPointer
      mangled_component_name: "_ZN7android7RefBase10onFirstRefEv"
      component_value: 0
    }
    vtable_components {
      kind: FunctionPointer
      mangled_component_name: "_ZN7android7RefBase15onLastStrongRefEPKv"
      component_value: 0
    }
    vtable_components {
      kind: FunctionPointer
      mangled_component_name: "_ZN7android7RefBase20onIncStrongAttemptedEjPKv"
      component_value: 0
    }
    vtable_components {
      kind: FunctionPointer
      mangled_component_name: "_ZN7android7RefBase13onLastWeakRefEPKv"
      component_value: 0
    }
  }
}
records {
  basic_abi {
    type_abi {
      name: "android::hardware::graphics::composer::V2_1::BpHwComposerCallback"
      size: 92
      alignment: 4
    }
    name: "android::hardware::graphics::composer::V2_1::BpHwComposerCallback"
    access: public_access
    linker_set_key: "android::hardware::graphics::composer::V2_1::BpHwComposerCallback"
  }
  fields {
    basic_abi {
      type_abi {
        name: "std::mutex"
        size: 4
        alignment: 4
      }
      name: "_hidl_mMutex"
      access: private_access
    }
  }
  fields {
    basic_abi {
      type_abi {
        name: "std::vector<android::sp<android::hardware::hidl_binder_death_recipient>, std::allocator<android::sp<android::hardware::hidl_binder_death_recipient> > >"
        size: 12
        alignment: 4
      }
      name: "_hidl_mDeathRecipients"
      access: private_access
    }
  }
  base_specifiers {
    basic_abi {
      type_abi {
        name: "android::hardware::BpInterface<android::hardware::graphics::composer::V2_1::IComposerCallback>"
      }
      name: ""
      access: public_access
    }
    is_virtual: false
  }
  base_specifiers {
    basic_abi {
      type_abi {
        name: "android::hardware::details::HidlInstrumentor"
      }
      name: ""
      access: public_access
    }
    is_virtual: false
  }
  source_file: "/out/soong/.intermediates/hardware/interfaces/graphics/composer/2.1/android.hardware.graphics.composer@2.1_genc++_headers/gen/android/hardware/graphics/composer/2.1/BpHwComposerCallback.h"
  mangled_record_name: "android::hardware::graphics::composer::V2_1::BpHwComposerCallback"
  vtable_layout {
    vtable_components {
      kind: VBaseOffset
      mangled_component_name: ""
      component_value: 84
    }
    vtable_components {
      kind: OffsetToTop
      mangled_component_name: ""
      component_value: 0
    }
    vtable_components {
      kind: RTTI
      mangled_component_name: "android::hardware::graphics::composer::V2_1::BpHwComposerCallback"
      component_value: 0
    }
    vtable_components {
      kind: FunctionPointer
      mangled_component_name: "_ZNK7android8hardware8graphics8composer4V2_120BpHwComposerCallback8isRemoteEv"
      component_value: 0
    }
    vtable_components {
      kind: FunctionPointer
      mangled_component_name: "_ZN7android8hardware8graphics8composer4V2_120BpHwComposerCallback14interfaceChainENSt3__18functionIFvRKNS0_8hidl_vecINS0_11hidl_stringEEEEEE"
      component_value: 0
    }
    vtable_components {
      kind: FunctionPointer
      mangled_component_name: "_ZN7android8hardware8graphics8composer4V2_120BpHwComposerCallback5debugERKNS0_11hidl_handleERKNS0_8hidl_vecINS0_11hidl_stringEEE"
      component_value: 0
    }
    vtable_components {
      kind: FunctionPointer
      mangled_component_name: "_ZN7android8hardware8graphics8composer4V2_120BpHwComposerCallback19interfaceDescriptorENSt3__18functionIFvRKNS0_11hidl_stringEEEE"
      component_value: 0
    }
    vtable_components {
      kind: FunctionPointer
      mangled_component_name: "_ZN7android8hardware8graphics8composer4V2_120BpHwComposerCallback12getHashChainENSt3__18functionIFvRKNS0_8hidl_vecINS0_10hidl_arrayIhLj32EJEEEEEEEE"
      component_value: 0
    }
    vtable_components {
      kind: FunctionPointer
      mangled_component_name: "_ZN7android8hardware8graphics8composer4V2_120BpHwComposerCallback21setHALInstrumentationEv"
      component_value: 0
    }
    vtable_components {
      kind: FunctionPointer
      mangled_component_name: "_ZN7android8hardware8graphics8composer4V2_120BpHwComposerCallback11linkToDeathERKNS_2spINS0_20hidl_death_recipientEEEy"
      component_value: 0
    }
    vtable_components {
      kind: FunctionPointer
      mangled_component_name: "_ZN7android8hardware8graphics8composer4V2_120BpHwComposerCallback4pingEv"
      component_value: 0
    }
    vtable_components {
      kind: FunctionPointer
      mangled_component_name: "_ZN7android8hardware8graphics8composer4V2_120BpHwComposerCallback12getDebugInfoENSt3__18functionIFvRKNS_4hidl4base4V1_09DebugInfoEEEE"
      component_value: 0
    }
    vtable_components {
      kind: FunctionPointer
      mangled_component_name: "_ZN7android8hardware8graphics8composer4V2_120BpHwComposerCallback21notifySyspropsChangedEv"
      component_value: 0
    }
    vtable_components {
      kind: FunctionPointer
      mangled_component_name: "_ZN7android8hardware8graphics8composer4V2_120BpHwComposerCallback13unlinkToDeathERKNS_2spINS0_20hidl_death_recipientEEE"
      component_value: 0
    }
    vtable_components {
      kind: CompleteDtorPointer
      mangled_component_name: "_ZN7android8hardware8graphics8composer4V2_120BpHwComposerCallbackD1Ev"
      component_value: 0
    }
    vtable_components {
      kind: DeletingDtorPointer
      mangled_component_name: "_ZN7android8hardware8graphics8composer4V2_120BpHwComposerCallbackD0Ev"
      component_value: 0
    }
    vtable_components {
      kind: FunctionPointer
      mangled_component_name: "_ZN7android8hardware8graphics8composer4V2_120BpHwComposerCallback9onHotplugEyNS3_17IComposerCallback10ConnectionE"
      component_value: 0
    }
    vtable_components {
      kind: FunctionPointer
      mangled_component_name: "_ZN7android8hardware8graphics8composer4V2_120BpHwComposerCallback9onRefreshEy"
      component_value: 0
    }
    vtable_components {
      kind: FunctionPointer
      mangled_component_name: "_ZN7android8hardware8graphics8composer4V2_120BpHwComposerCallback7onVsyncEyx"
      component_value: 0
    }
    vtable_components {
      kind: FunctionPointer
      mangled_component_name: "_ZN7android8hardware11BpInterfaceINS0_8graphics8composer4V2_117IComposerCallbackEE10onAsBinderEv"
      component_value: 0
    }
    vtable_components {
      kind: VBaseOffset
      mangled_component_name: ""
      component_value: 80
    }
    vtable_components {
      kind: OffsetToTop
      mangled_component_name: ""
      component_value: -4
    }
    vtable_components {
      kind: RTTI
      mangled_component_name: "android::hardware::graphics::composer::V2_1::BpHwComposerCallback"
      component_value: 0
    }
    vtable_components {
      kind: CompleteDtorPointer
      mangled_component_name: "_ZN7android8hardware8graphics8composer4V2_120BpHwComposerCallbackD1Ev"
      component_value: 0
    }
    vtable_components {
      kind: DeletingDtorPointer
      mangled_component_name: "_ZN7android8hardware8graphics8composer4V2_120BpHwComposerCallbackD0Ev"
      component_value: 0
    }
    vtable_components {
      kind: FunctionPointer
      mangled_component_name: "_ZN7android8hardware11BpInterfaceINS0_8graphics8composer4V2_117IComposerCallbackEE10onAsBinderEv"
      component_value: 0
    }
    vtable_components {
      kind: VBaseOffset
      mangled_component_name: ""
      component_value: 76
    }
    vtable_components {
      kind: OffsetToTop
      mangled_component_name: ""
      component_value: -8
    }
    vtable_components {
      kind: RTTI
      mangled_component_name: "android::hardware::graphics::composer::V2_1::BpHwComposerCallback"
      component_value: 0
    }
    vtable_components {
      kind: CompleteDtorPointer
      mangled_component_name: "_ZN7android8hardware8graphics8composer4V2_120BpHwComposerCallbackD1Ev"
      component_value: 0
    }
    vtable_components {
      kind: DeletingDtorPointer
      mangled_component_name: "_ZN7android8hardware8graphics8composer4V2_120BpHwComposerCallbackD0Ev"
      component_value: 0
    }
    vtable_components {
      kind: FunctionPointer
      mangled_component_name: "_ZN7android8hardware11BpHwRefBase10onFirstRefEv"
      component_value: 0
    }
    vtable_components {
      kind: FunctionPointer
      mangled_component_name: "_ZN7android8hardware11BpHwRefBase15onLastStrongRefEPKv"
      component_value: 0
    }
    vtable_components {
      kind: FunctionPointer
      mangled_component_name: "_ZN7android8hardware11BpHwRefBase20onIncStrongAttemptedEjPKv"
      component_value: 0
    }
    vtable_components {
      kind: OffsetToTop
      mangled_component_name: ""
      component_value: -24
    }
    vtable_components {
      kind: RTTI
      mangled_component_name: "android::hardware::graphics::composer::V2_1::BpHwComposerCallback"
      component_value: 0
    }
    vtable_components {
      kind: CompleteDtorPointer
      mangled_component_name: "_ZN7android8hardware8graphics8composer4V2_120BpHwComposerCallbackD1Ev"
      component_value: 0
    }
    vtable_components {
      kind: DeletingDtorPointer
      mangled_component_name: "_ZN7android8hardware8graphics8composer4V2_120BpHwComposerCallbackD0Ev"
      component_value: 0
    }
    vtable_components {
      kind: VCallOffset
      mangled_component_name: ""
      component_value: 0
    }
    vtable_components {
      kind: VCallOffset
      mangled_component_name: ""
      component_value: -76
    }
    vtable_components {
      kind: VCallOffset
      mangled_component_name: ""
      component_value: -76
    }
    vtable_components {
      kind: VCallOffset
      mangled_component_name: ""
      component_value: -76
    }
    vtable_components {
      kind: VCallOffset
      mangled_component_name: ""
      component_value: -84
    }
    vtable_components {
      kind: OffsetToTop
      mangled_component_name: ""
      component_value: -84
    }
    vtable_components {
      kind: RTTI
      mangled_component_name: "android::hardware::graphics::composer::V2_1::BpHwComposerCallback"
      component_value: 0
    }
    vtable_components {
      kind: CompleteDtorPointer
      mangled_component_name: "_ZN7android8hardware8graphics8composer4V2_120BpHwComposerCallbackD1Ev"
      component_value: 0
    }
    vtable_components {
      kind: DeletingDtorPointer
      mangled_component_name: "_ZN7android8hardware8graphics8composer4V2_120BpHwComposerCallbackD0Ev"
      component_value: 0
    }
    vtable_components {
      kind: FunctionPointer
      mangled_component_name: "_ZN7android8hardware11BpHwRefBase10onFirstRefEv"
      component_value: 0
    }
    vtable_components {
      kind: FunctionPointer
      mangled_component_name: "_ZN7android8hardware11BpHwRefBase15onLastStrongRefEPKv"
      component_value: 0
    }
    vtable_components {
      kind: FunctionPointer
      mangled_component_name: "_ZN7android8hardware11BpHwRefBase20onIncStrongAttemptedEjPKv"
      component_value: 0
    }
    vtable_components {
      kind: FunctionPointer
      mangled_component_name: "_ZN7android7RefBase13onLastWeakRefEPKv"
      component_value: 0
    }
  }
}
records {
  basic_abi {
    type_abi {
      name: "android::hardware::graphics::composer::V2_1::BnHwComposerClient"
      size: 80
      alignment: 4
    }
    name: "android::hardware::graphics::composer::V2_1::BnHwComposerClient"
    access: public_access
    linker_set_key: "android::hardware::graphics::composer::V2_1::BnHwComposerClient"
  }
  fields {
    basic_abi {
      type_abi {
        name: "android::sp<android::hardware::graphics::composer::V2_1::IComposerClient>"
        size: 4
        alignment: 4
      }
      name: "_hidl_mImpl"
      access: private_access
    }
  }
  base_specifiers {
    basic_abi {
      type_abi {
        name: "android::hidl::base::V1_0::BnHwBase"
      }
      name: ""
      access: public_access
    }
    is_virtual: false
  }
  source_file: "/out/soong/.intermediates/hardware/interfaces/graphics/composer/2.1/android.hardware.graphics.composer@2.1_genc++_headers/gen/android/hardware/graphics/composer/2.1/BnHwComposerClient.h"
  mangled_record_name: "android::hardware::graphics::composer::V2_1::BnHwComposerClient"
  vtable_layout {
    vtable_components {
      kind: VBaseOffset
      mangled_component_name: ""
      component_value: 72
    }
    vtable_components {
      kind: OffsetToTop
      mangled_component_name: ""
      component_value: 0
    }
    vtable_components {
      kind: RTTI
      mangled_component_name: "android::hardware::graphics::composer::V2_1::BnHwComposerClient"
      component_value: 0
    }
    vtable_components {
      kind: FunctionPointer
      mangled_component_name: "_ZN7android8hardware9BHwBinder8transactEjRKNS0_6ParcelEPS2_jNSt3__18functionIFvRS2_EEE"
      component_value: 0
    }
    vtable_components {
      kind: FunctionPointer
      mangled_component_name: "_ZN7android8hardware9BHwBinder11linkToDeathERKNS_2spINS0_7IBinder14DeathRecipientEEEPvj"
      component_value: 0
    }
    vtable_components {
      kind: FunctionPointer
      mangled_component_name: "_ZN7android8hardware9BHwBinder13unlinkToDeathERKNS_2wpINS0_7IBinder14DeathRecipientEEEPvjPS5_"
      component_value: 0
    }
    vtable_components {
      kind: FunctionPointer
      mangled_component_name: "_ZNK7android8hardware7IBinder13checkSubclassEPKv"
      component_value: 0
    }
    vtable_components {
      kind: FunctionPointer
      mangled_component_name: "_ZN7android8hardware9BHwBinder12attachObjectEPKvPvS4_PFvS3_S4_S4_E"
      component_value: 0
    }
    vtable_components {
      kind: FunctionPointer
      mangled_component_name: "_ZNK7android8hardware9BHwBinder10findObjectEPKv"
      component_value: 0
    }
    vtable_components {
      kind: FunctionPointer
      mangled_component_name: "_ZN7android8hardware9BHwBinder12detachObjectEPKv"
      component_value: 0
    }
    vtable_components {
      kind: FunctionPointer
      mangled_component_name: "_ZN7android8hardware9BHwBinder11localBinderEv"
      component_value: 0
    }
    vtable_components {
      kind: FunctionPointer
      mangled_component_name: "_ZN7android8hardware7IBinder12remoteBinderEv"
      component_value: 0
    }
    vtable_components {
      kind: CompleteDtorPointer
      mangled_component_name: "_ZN7android8hardware8graphics8composer4V2_118BnHwComposerClientD1Ev"
      component_value: 0
    }
    vtable_components {
      kind: DeletingDtorPointer
      mangled_component_name: "_ZN7android8hardware8graphics8composer4V2_118BnHwComposerClientD0Ev"
      component_value: 0
    }
    vtable_components {
      kind: FunctionPointer
      mangled_component_name: "_ZN7android8hardware8graphics8composer4V2_118BnHwComposerClient10onTransactEjRKNS0_6ParcelEPS5_jNSt3__18functionIFvRS5_EEE"
      component_value: 0
    }
    vtable_components {
      kind: OffsetToTop
      mangled_component_name: ""
      component_value: -20
    }
    vtable_components {
      kind: RTTI
      mangled_component_name: "android::hardware::graphics::composer::V2_1::BnHwComposerClient"
      component_value: 0
    }
    vtable_components {
      kind: CompleteDtorPointer
      mangled_component_name: "_ZN7android8hardware8graphics8composer4V2_118BnHwComposerClientD1Ev"
      component_value: 0
    }
    vtable_components {
      kind: DeletingDtorPointer
      mangled_component_name: "_ZN7android8hardware8graphics8composer4V2_118BnHwComposerClientD0Ev"
      component_value: 0
    }
    vtable_components {
      kind: VCallOffset
      mangled_component_name: ""
      component_value: 0
    }
    vtable_components {
      kind: VCallOffset
      mangled_component_name: ""
      component_value: 0
    }
    vtable_components {
      kind: VCallOffset
      mangled_component_name: ""
      component_value: 0
    }
    vtable_components {
      kind: VCallOffset
      mangled_component_name: ""
      component_value: 0
    }
    vtable_components {
      kind: VCallOffset
      mangled_component_name: ""
      component_value: -72
    }
    vtable_components {
      kind: OffsetToTop
      mangled_component_name: ""
      component_value: -72
    }
    vtable_components {
      kind: RTTI
      mangled_component_name: "android::hardware::graphics::composer::V2_1::BnHwComposerClient"
      component_value: 0
    }
    vtable_components {
      kind: CompleteDtorPointer
      mangled_component_name: "_ZN7android8hardware8graphics8composer4V2_118BnHwComposerClientD1Ev"
      component_value: 0
    }
    vtable_components {
      kind: DeletingDtorPointer
      mangled_component_name: "_ZN7android8hardware8graphics8composer4V2_118BnHwComposerClientD0Ev"
      component_value: 0
    }
    vtable_components {
      kind: FunctionPointer
      mangled_component_name: "_ZN7android7RefBase10onFirstRefEv"
      component_value: 0
    }
    vtable_components {
      kind: FunctionPointer
      mangled_component_name: "_ZN7android7RefBase15onLastStrongRefEPKv"
      component_value: 0
    }
    vtable_components {
      kind: FunctionPointer
      mangled_component_name: "_ZN7android7RefBase20onIncStrongAttemptedEjPKv"
      component_value: 0
    }
    vtable_components {
      kind: FunctionPointer
      mangled_component_name: "_ZN7android7RefBase13onLastWeakRefEPKv"
      component_value: 0
    }
  }
}
records {
  basic_abi {
    type_abi {
      name: "android::hardware::graphics::composer::V2_1::BpHwComposerClient"
      size: 92
      alignment: 4
    }
    name: "android::hardware::graphics::composer::V2_1::BpHwComposerClient"
    access: public_access
    linker_set_key: "android::hardware::graphics::composer::V2_1::BpHwComposerClient"
  }
  fields {
    basic_abi {
      type_abi {
        name: "std::mutex"
        size: 4
        alignment: 4
      }
      name: "_hidl_mMutex"
      access: private_access
    }
  }
  fields {
    basic_abi {
      type_abi {
        name: "std::vector<android::sp<android::hardware::hidl_binder_death_recipient>, std::allocator<android::sp<android::hardware::hidl_binder_death_recipient> > >"
        size: 12
        alignment: 4
      }
      name: "_hidl_mDeathRecipients"
      access: private_access
    }
  }
  base_specifiers {
    basic_abi {
      type_abi {
        name: "android::hardware::BpInterface<android::hardware::graphics::composer::V2_1::IComposerClient>"
      }
      name: ""
      access: public_access
    }
    is_virtual: false
  }
  base_specifiers {
    basic_abi {
      type_abi {
        name: "android::hardware::details::HidlInstrumentor"
      }
      name: ""
      access: public_access
    }
    is_virtual: false
  }
  source_file: "/out/soong/.intermediates/hardware/interfaces/graphics/composer/2.1/android.hardware.graphics.composer@2.1_genc++_headers/gen/android/hardware/graphics/composer/2.1/BpHwComposerClient.h"
  mangled_record_name: "android::hardware::graphics::composer::V2_1::BpHwComposerClient"
  vtable_layout {
    vtable_components {
      kind: VBaseOffset
      mangled_component_name: ""
      component_value: 84
    }
    vtable_components {
      kind: OffsetToTop
      mangled_component_name: ""
      component_value: 0
    }
    vtable_components {
      kind: RTTI
      mangled_component_name: "android::hardware::graphics::composer::V2_1::BpHwComposerClient"
      component_value: 0
    }
    vtable_components {
      kind: FunctionPointer
      mangled_component_name: "_ZNK7android8hardware8graphics8composer4V2_118BpHwComposerClient8isRemoteEv"
      component_value: 0
    }
    vtable_components {
      kind: FunctionPointer
      mangled_component_name: "_ZN7android8hardware8graphics8composer4V2_118BpHwComposerClient14interfaceChainENSt3__18functionIFvRKNS0_8hidl_vecINS0_11hidl_stringEEEEEE"
      component_value: 0
    }
    vtable_components {
      kind: FunctionPointer
      mangled_component_name: "_ZN7android8hardware8graphics8composer4V2_118BpHwComposerClient5debugERKNS0_11hidl_handleERKNS0_8hidl_vecINS0_11hidl_stringEEE"
      component_value: 0
    }
    vtable_components {
      kind: FunctionPointer
      mangled_component_name: "_ZN7android8hardware8graphics8composer4V2_118BpHwComposerClient19interfaceDescriptorENSt3__18functionIFvRKNS0_11hidl_stringEEEE"
      component_value: 0
    }
    vtable_components {
      kind: FunctionPointer
      mangled_component_name: "_ZN7android8hardware8graphics8composer4V2_118BpHwComposerClient12getHashChainENSt3__18functionIFvRKNS0_8hidl_vecINS0_10hidl_arrayIhLj32EJEEEEEEEE"
      component_value: 0
    }
    vtable_components {
      kind: FunctionPointer
      mangled_component_name: "_ZN7android8hardware8graphics8composer4V2_118BpHwComposerClient21setHALInstrumentationEv"
      component_value: 0
    }
    vtable_components {
      kind: FunctionPointer
      mangled_component_name: "_ZN7android8hardware8graphics8composer4V2_118BpHwComposerClient11linkToDeathERKNS_2spINS0_20hidl_death_recipientEEEy"
      component_value: 0
    }
    vtable_components {
      kind: FunctionPointer
      mangled_component_name: "_ZN7android8hardware8graphics8composer4V2_118BpHwComposerClient4pingEv"
      component_value: 0
    }
    vtable_components {
      kind: FunctionPointer
      mangled_component_name: "_ZN7android8hardware8graphics8composer4V2_118BpHwComposerClient12getDebugInfoENSt3__18functionIFvRKNS_4hidl4base4V1_09DebugInfoEEEE"
      component_value: 0
    }
    vtable_components {
      kind: FunctionPointer
      mangled_component_name: "_ZN7android8hardware8graphics8composer4V2_118BpHwComposerClient21notifySyspropsChangedEv"
      component_value: 0
    }
    vtable_components {
      kind: FunctionPointer
      mangled_component_name: "_ZN7android8hardware8graphics8composer4V2_118BpHwComposerClient13unlinkToDeathERKNS_2spINS0_20hidl_death_recipientEEE"
      component_value: 0
    }
    vtable_components {
      kind: CompleteDtorPointer
      mangled_component_name: "_ZN7android8hardware8graphics8composer4V2_118BpHwComposerClientD1Ev"
      component_value: 0
    }
    vtable_components {
      kind: DeletingDtorPointer
      mangled_component_name: "_ZN7android8hardware8graphics8composer4V2_118BpHwComposerClientD0Ev"
      component_value: 0
    }
    vtable_components {
      kind: FunctionPointer
      mangled_component_name: "_ZN7android8hardware8graphics8composer4V2_118BpHwComposerClient16registerCallbackERKNS_2spINS3_17IComposerCallbackEEE"
      component_value: 0
    }
    vtable_components {
      kind: FunctionPointer
      mangled_component_name: "_ZN7android8hardware8graphics8composer4V2_118BpHwComposerClient25getMaxVirtualDisplayCountEv"
      component_value: 0
    }
    vtable_components {
      kind: FunctionPointer
      mangled_component_name: "_ZN7android8hardware8graphics8composer4V2_118BpHwComposerClient20createVirtualDisplayEjjNS1_6common4V1_011PixelFormatEjNSt3__18functionIFvNS3_5ErrorEyS7_EEE"
      component_value: 0
    }
    vtable_components {
      kind: FunctionPointer
      mangled_component_name: "_ZN7android8hardware8graphics8composer4V2_118BpHwComposerClient21destroyVirtualDisplayEy"
      component_value: 0
    }
    vtable_components {
      kind: FunctionPointer
      mangled_component_name: "_ZN7android8hardware8graphics8composer4V2_118BpHwComposerClient11createLayerEyjNSt3__18functionIFvNS3_5ErrorEyEEE"
      component_value: 0
    }
    vtable_components {
      kind: FunctionPointer
      mangled_component_name: "_ZN7android8hardware8graphics8composer4V2_118BpHwComposerClient12destroyLayerEyy"
      component_value: 0
    }
    vtable_components {
      kind: FunctionPointer
      mangled_component_name: "_ZN7android8hardware8graphics8composer4V2_118BpHwComposerClient15getActiveConfigEyNSt3__18functionIFvNS3_5ErrorEjEEE"
      component_value: 0
    }
    vtable_components {
      kind: FunctionPointer
      mangled_component_name: "_ZN7android8hardware8graphics8composer4V2_118BpHwComposerClient22getClientTargetSupportEyjjNS1_6common4V1_011PixelFormatENS6_9DataspaceE"
      component_value: 0
    }
    vtable_components {
      kind: FunctionPointer
      mangled_component_name: "_ZN7android8hardware8graphics8composer4V2_118BpHwComposerClient13getColorModesEyNSt3__18functionIFvNS3_5ErrorERKNS0_8hidl_vecINS1_6common4V1_09ColorModeEEEEEE"
      component_value: 0
    }
    vtable_components {
      kind: FunctionPointer
      mangled_component_name: "_ZN7android8hardware8graphics8composer4V2_118BpHwComposerClient19getDisplayAttributeEyjNS3_15IComposerClient9AttributeENSt3__18functionIFvNS3_5ErrorEiEEE"
      component_value: 0
    }
    vtable_components {
      kind: FunctionPointer
      mangled_component_name: "_ZN7android8hardware8graphics8composer4V2_118BpHwComposerClient17getDisplayConfigsEyNSt3__18functionIFvNS3_5ErrorERKNS0_8hidl_vecIjEEEEE"
      component_value: 0
    }
    vtable_components {
      kind: FunctionPointer
      mangled_component_name: "_ZN7android8hardware8graphics8composer4V2_118BpHwComposerClient14getDisplayNameEyNSt3__18functionIFvNS3_5ErrorERKNS0_11hidl_stringEEEE"
      component_value: 0
    }
    vtable_components {
      kind: FunctionPointer
      mangled_component_name: "_ZN7android8hardware8graphics8composer4V2_118BpHwComposerClient14getDisplayTypeEyNSt3__18functionIFvNS3_5ErrorENS3_15IComposerClient11DisplayTypeEEEE"
      component_value: 0
    }
    vtable_components {
      kind: FunctionPointer
      mangled_component_name: "_ZN7android8hardware8graphics8composer4V2_118BpHwComposerClient14getDozeSupportEyNSt3__18functionIFvNS3_5ErrorEbEEE"
      component_value: 0
    }
    vtable_components {
      kind: FunctionPointer
      mangled_component_name: "_ZN7android8hardware8graphics8composer4V2_118BpHwComposerClient18getHdrCapabilitiesEyNSt3__18functionIFvNS3_5ErrorERKNS0_8hidl_vecINS1_6common4V1_03HdrEEEfffEEE"
      component_value: 0
    }
    vtable_components {
      kind: FunctionPointer
      mangled_component_name: "_ZN7android8hardware8graphics8composer4V2_118BpHwComposerClient24setClientTargetSlotCountEyj"
      component_value: 0
    }
    vtable_components {
      kind: FunctionPointer
      mangled_component_name: "_ZN7android8hardware8graphics8composer4V2_118BpHwComposerClient15setActiveConfigEyj"
      component_value: 0
    }
    vtable_components {
      kind: FunctionPointer
      mangled_component_name: "_ZN7android8hardware8graphics8composer4V2_118BpHwComposerClient12setColorModeEyNS1_6common4V1_09ColorModeE"
      component_value: 0
    }
    vtable_components {
      kind: FunctionPointer
      mangled_component_name: "_ZN7android8hardware8graphics8composer4V2_118BpHwComposerClient12setPowerModeEyNS3_15IComposerClient9PowerModeE"
      component_value: 0
    }
    vtable_components {
      kind: FunctionPointer
      mangled_component_name: "_ZN7android8hardware8graphics8composer4V2_118BpHwComposerClient15setVsyncEnabledEyNS3_15IComposerClient5VsyncE"
      component_value: 0
    }
    vtable_components {
      kind: FunctionPointer
      mangled_component_name: "_ZN7android8hardware8graphics8composer4V2_118BpHwComposerClient20setInputCommandQueueERKNS0_12MQDescriptorIjLNS0_8MQFlavorE1EEE"
      component_value: 0
    }
    vtable_components {
      kind: FunctionPointer
      mangled_component_name: "_ZN7android8hardware8graphics8composer4V2_118BpHwComposerClient21getOutputCommandQueueENSt3__18functionIFvNS3_5ErrorERKNS0_12MQDescriptorIjLNS0_8MQFlavorE1EEEEEE"
      component_value: 0
    }
    vtable_components {
      kind: FunctionPointer
      mangled_component_name: "_ZN7android8hardware8graphics8composer4V2_118BpHwComposerClient15executeCommandsEjRKNS0_8hidl_vecINS0_11hidl_handleEEENSt3__18functionIFvNS3_5ErrorEbjS9_EEE"
      component_value: 0
    }
    vtable_components {
      kind: FunctionPointer
      mangled_component_name: "_ZN7android8hardware11BpInterfaceINS0_8graphics8composer4V2_115IComposerClientEE10onAsBinderEv"
      component_value: 0
    }
    vtable_components {
      kind: VBaseOffset
      mangled_component_name: ""
      component_value: 80
    }
    vtable_components {
      kind: OffsetToTop
      mangled_component_name: ""
      component_value: -4
    }
    vtable_components {
      kind: RTTI
      mangled_component_name: "android::hardware::graphics::composer::V2_1::BpHwComposerClient"
      component_value: 0
    }
    vtable_components {
      kind: CompleteDtorPointer
      mangled_component_name: "_ZN7android8hardware8graphics8composer4V2_118BpHwComposerClientD1Ev"
      component_value: 0
    }
    vtable_components {
      kind: DeletingDtorPointer
      mangled_component_name: "_ZN7android8hardware8graphics8composer4V2_118BpHwComposerClientD0Ev"
      component_value: 0
    }
    vtable_components {
      kind: FunctionPointer
      mangled_component_name: "_ZN7android8hardware11BpInterfaceINS0_8graphics8composer4V2_115IComposerClientEE10onAsBinderEv"
      component_value: 0
    }
    vtable_components {
      kind: VBaseOffset
      mangled_component_name: ""
      component_value: 76
    }
    vtable_components {
      kind: OffsetToTop
      mangled_component_name: ""
      component_value: -8
    }
    vtable_components {
      kind: RTTI
      mangled_component_name: "android::hardware::graphics::composer::V2_1::BpHwComposerClient"
      component_value: 0
    }
    vtable_components {
      kind: CompleteDtorPointer
      mangled_component_name: "_ZN7android8hardware8graphics8composer4V2_118BpHwComposerClientD1Ev"
      component_value: 0
    }
    vtable_components {
      kind: DeletingDtorPointer
      mangled_component_name: "_ZN7android8hardware8graphics8composer4V2_118BpHwComposerClientD0Ev"
      component_value: 0
    }
    vtable_components {
      kind: FunctionPointer
      mangled_component_name: "_ZN7android8hardware11BpHwRefBase10onFirstRefEv"
      component_value: 0
    }
    vtable_components {
      kind: FunctionPointer
      mangled_component_name: "_ZN7android8hardware11BpHwRefBase15onLastStrongRefEPKv"
      component_value: 0
    }
    vtable_components {
      kind: FunctionPointer
      mangled_component_name: "_ZN7android8hardware11BpHwRefBase20onIncStrongAttemptedEjPKv"
      component_value: 0
    }
    vtable_components {
      kind: OffsetToTop
      mangled_component_name: ""
      component_value: -24
    }
    vtable_components {
      kind: RTTI
      mangled_component_name: "android::hardware::graphics::composer::V2_1::BpHwComposerClient"
      component_value: 0
    }
    vtable_components {
      kind: CompleteDtorPointer
      mangled_component_name: "_ZN7android8hardware8graphics8composer4V2_118BpHwComposerClientD1Ev"
      component_value: 0
    }
    vtable_components {
      kind: DeletingDtorPointer
      mangled_component_name: "_ZN7android8hardware8graphics8composer4V2_118BpHwComposerClientD0Ev"
      component_value: 0
    }
    vtable_components {
      kind: VCallOffset
      mangled_component_name: ""
      component_value: 0
    }
    vtable_components {
      kind: VCallOffset
      mangled_component_name: ""
      component_value: -76
    }
    vtable_components {
      kind: VCallOffset
      mangled_component_name: ""
      component_value: -76
    }
    vtable_components {
      kind: VCallOffset
      mangled_component_name: ""
      component_value: -76
    }
    vtable_components {
      kind: VCallOffset
      mangled_component_name: ""
      component_value: -84
    }
    vtable_components {
      kind: OffsetToTop
      mangled_component_name: ""
      component_value: -84
    }
    vtable_components {
      kind: RTTI
      mangled_component_name: "android::hardware::graphics::composer::V2_1::BpHwComposerClient"
      component_value: 0
    }
    vtable_components {
      kind: CompleteDtorPointer
      mangled_component_name: "_ZN7android8hardware8graphics8composer4V2_118BpHwComposerClientD1Ev"
      component_value: 0
    }
    vtable_components {
      kind: DeletingDtorPointer
      mangled_component_name: "_ZN7android8hardware8graphics8composer4V2_118BpHwComposerClientD0Ev"
      component_value: 0
    }
    vtable_components {
      kind: FunctionPointer
      mangled_component_name: "_ZN7android8hardware11BpHwRefBase10onFirstRefEv"
      component_value: 0
    }
    vtable_components {
      kind: FunctionPointer
      mangled_component_name: "_ZN7android8hardware11BpHwRefBase15onLastStrongRefEPKv"
      component_value: 0
    }
    vtable_components {
      kind: FunctionPointer
      mangled_component_name: "_ZN7android8hardware11BpHwRefBase20onIncStrongAttemptedEjPKv"
      component_value: 0
    }
    vtable_components {
      kind: FunctionPointer
      mangled_component_name: "_ZN7android7RefBase13onLastWeakRefEPKv"
      component_value: 0
    }
  }
}
records {
  basic_abi {
    type_abi {
      name: "android::hardware::graphics::composer::V2_1::BpHwComposer"
      size: 92
      alignment: 4
    }
    name: "android::hardware::graphics::composer::V2_1::BpHwComposer"
    access: public_access
    linker_set_key: "android::hardware::graphics::composer::V2_1::BpHwComposer"
  }
  fields {
    basic_abi {
      type_abi {
        name: "std::mutex"
        size: 4
        alignment: 4
      }
      name: "_hidl_mMutex"
      access: private_access
    }
  }
  fields {
    basic_abi {
      type_abi {
        name: "std::vector<android::sp<android::hardware::hidl_binder_death_recipient>, std::allocator<android::sp<android::hardware::hidl_binder_death_recipient> > >"
        size: 12
        alignment: 4
      }
      name: "_hidl_mDeathRecipients"
      access: private_access
    }
  }
  base_specifiers {
    basic_abi {
      type_abi {
        name: "android::hardware::BpInterface<android::hardware::graphics::composer::V2_1::IComposer>"
      }
      name: ""
      access: public_access
    }
    is_virtual: false
  }
  base_specifiers {
    basic_abi {
      type_abi {
        name: "android::hardware::details::HidlInstrumentor"
      }
      name: ""
      access: public_access
    }
    is_virtual: false
  }
  source_file: "/out/soong/.intermediates/hardware/interfaces/graphics/composer/2.1/android.hardware.graphics.composer@2.1_genc++_headers/gen/android/hardware/graphics/composer/2.1/BpHwComposer.h"
  mangled_record_name: "android::hardware::graphics::composer::V2_1::BpHwComposer"
  vtable_layout {
    vtable_components {
      kind: VBaseOffset
      mangled_component_name: ""
      component_value: 84
    }
    vtable_components {
      kind: OffsetToTop
      mangled_component_name: ""
      component_value: 0
    }
    vtable_components {
      kind: RTTI
      mangled_component_name: "android::hardware::graphics::composer::V2_1::BpHwComposer"
      component_value: 0
    }
    vtable_components {
      kind: FunctionPointer
      mangled_component_name: "_ZNK7android8hardware8graphics8composer4V2_112BpHwComposer8isRemoteEv"
      component_value: 0
    }
    vtable_components {
      kind: FunctionPointer
      mangled_component_name: "_ZN7android8hardware8graphics8composer4V2_112BpHwComposer14interfaceChainENSt3__18functionIFvRKNS0_8hidl_vecINS0_11hidl_stringEEEEEE"
      component_value: 0
    }
    vtable_components {
      kind: FunctionPointer
      mangled_component_name: "_ZN7android8hardware8graphics8composer4V2_112BpHwComposer5debugERKNS0_11hidl_handleERKNS0_8hidl_vecINS0_11hidl_stringEEE"
      component_value: 0
    }
    vtable_components {
      kind: FunctionPointer
      mangled_component_name: "_ZN7android8hardware8graphics8composer4V2_112BpHwComposer19interfaceDescriptorENSt3__18functionIFvRKNS0_11hidl_stringEEEE"
      component_value: 0
    }
    vtable_components {
      kind: FunctionPointer
      mangled_component_name: "_ZN7android8hardware8graphics8composer4V2_112BpHwComposer12getHashChainENSt3__18functionIFvRKNS0_8hidl_vecINS0_10hidl_arrayIhLj32EJEEEEEEEE"
      component_value: 0
    }
    vtable_components {
      kind: FunctionPointer
      mangled_component_name: "_ZN7android8hardware8graphics8composer4V2_112BpHwComposer21setHALInstrumentationEv"
      component_value: 0
    }
    vtable_components {
      kind: FunctionPointer
      mangled_component_name: "_ZN7android8hardware8graphics8composer4V2_112BpHwComposer11linkToDeathERKNS_2spINS0_20hidl_death_recipientEEEy"
      component_value: 0
    }
    vtable_components {
      kind: FunctionPointer
      mangled_component_name: "_ZN7android8hardware8graphics8composer4V2_112BpHwComposer4pingEv"
      component_value: 0
    }
    vtable_components {
      kind: FunctionPointer
      mangled_component_name: "_ZN7android8hardware8graphics8composer4V2_112BpHwComposer12getDebugInfoENSt3__18functionIFvRKNS_4hidl4base4V1_09DebugInfoEEEE"
      component_value: 0
    }
    vtable_components {
      kind: FunctionPointer
      mangled_component_name: "_ZN7android8hardware8graphics8composer4V2_112BpHwComposer21notifySyspropsChangedEv"
      component_value: 0
    }
    vtable_components {
      kind: FunctionPointer
      mangled_component_name: "_ZN7android8hardware8graphics8composer4V2_112BpHwComposer13unlinkToDeathERKNS_2spINS0_20hidl_death_recipientEEE"
      component_value: 0
    }
    vtable_components {
      kind: CompleteDtorPointer
      mangled_component_name: "_ZN7android8hardware8graphics8composer4V2_112BpHwComposerD1Ev"
      component_value: 0
    }
    vtable_components {
      kind: DeletingDtorPointer
      mangled_component_name: "_ZN7android8hardware8graphics8composer4V2_112BpHwComposerD0Ev"
      component_value: 0
    }
    vtable_components {
      kind: FunctionPointer
      mangled_component_name: "_ZN7android8hardware8graphics8composer4V2_112BpHwComposer15getCapabilitiesENSt3__18functionIFvRKNS0_8hidl_vecINS3_9IComposer10CapabilityEEEEEE"
      component_value: 0
    }
    vtable_components {
      kind: FunctionPointer
      mangled_component_name: "_ZN7android8hardware8graphics8composer4V2_112BpHwComposer13dumpDebugInfoENSt3__18functionIFvRKNS0_11hidl_stringEEEE"
      component_value: 0
    }
    vtable_components {
      kind: FunctionPointer
      mangled_component_name: "_ZN7android8hardware8graphics8composer4V2_112BpHwComposer12createClientENSt3__18functionIFvNS3_5ErrorERKNS_2spINS3_15IComposerClientEEEEEE"
      component_value: 0
    }
    vtable_components {
      kind: FunctionPointer
      mangled_component_name: "_ZN7android8hardware11BpInterfaceINS0_8graphics8composer4V2_19IComposerEE10onAsBinderEv"
      component_value: 0
    }
    vtable_components {
      kind: VBaseOffset
      mangled_component_name: ""
      component_value: 80
    }
    vtable_components {
      kind: OffsetToTop
      mangled_component_name: ""
      component_value: -4
    }
    vtable_components {
      kind: RTTI
      mangled_component_name: "android::hardware::graphics::composer::V2_1::BpHwComposer"
      component_value: 0
    }
    vtable_components {
      kind: CompleteDtorPointer
      mangled_component_name: "_ZN7android8hardware8graphics8composer4V2_112BpHwComposerD1Ev"
      component_value: 0
    }
    vtable_components {
      kind: DeletingDtorPointer
      mangled_component_name: "_ZN7android8hardware8graphics8composer4V2_112BpHwComposerD0Ev"
      component_value: 0
    }
    vtable_components {
      kind: FunctionPointer
      mangled_component_name: "_ZN7android8hardware11BpInterfaceINS0_8graphics8composer4V2_19IComposerEE10onAsBinderEv"
      component_value: 0
    }
    vtable_components {
      kind: VBaseOffset
      mangled_component_name: ""
      component_value: 76
    }
    vtable_components {
      kind: OffsetToTop
      mangled_component_name: ""
      component_value: -8
    }
    vtable_components {
      kind: RTTI
      mangled_component_name: "android::hardware::graphics::composer::V2_1::BpHwComposer"
      component_value: 0
    }
    vtable_components {
      kind: CompleteDtorPointer
      mangled_component_name: "_ZN7android8hardware8graphics8composer4V2_112BpHwComposerD1Ev"
      component_value: 0
    }
    vtable_components {
      kind: DeletingDtorPointer
      mangled_component_name: "_ZN7android8hardware8graphics8composer4V2_112BpHwComposerD0Ev"
      component_value: 0
    }
    vtable_components {
      kind: FunctionPointer
      mangled_component_name: "_ZN7android8hardware11BpHwRefBase10onFirstRefEv"
      component_value: 0
    }
    vtable_components {
      kind: FunctionPointer
      mangled_component_name: "_ZN7android8hardware11BpHwRefBase15onLastStrongRefEPKv"
      component_value: 0
    }
    vtable_components {
      kind: FunctionPointer
      mangled_component_name: "_ZN7android8hardware11BpHwRefBase20onIncStrongAttemptedEjPKv"
      component_value: 0
    }
    vtable_components {
      kind: OffsetToTop
      mangled_component_name: ""
      component_value: -24
    }
    vtable_components {
      kind: RTTI
      mangled_component_name: "android::hardware::graphics::composer::V2_1::BpHwComposer"
      component_value: 0
    }
    vtable_components {
      kind: CompleteDtorPointer
      mangled_component_name: "_ZN7android8hardware8graphics8composer4V2_112BpHwComposerD1Ev"
      component_value: 0
    }
    vtable_components {
      kind: DeletingDtorPointer
      mangled_component_name: "_ZN7android8hardware8graphics8composer4V2_112BpHwComposerD0Ev"
      component_value: 0
    }
    vtable_components {
      kind: VCallOffset
      mangled_component_name: ""
      component_value: 0
    }
    vtable_components {
      kind: VCallOffset
      mangled_component_name: ""
      component_value: -76
    }
    vtable_components {
      kind: VCallOffset
      mangled_component_name: ""
      component_value: -76
    }
    vtable_components {
      kind: VCallOffset
      mangled_component_name: ""
      component_value: -76
    }
    vtable_components {
      kind: VCallOffset
      mangled_component_name: ""
      component_value: -84
    }
    vtable_components {
      kind: OffsetToTop
      mangled_component_name: ""
      component_value: -84
    }
    vtable_components {
      kind: RTTI
      mangled_component_name: "android::hardware::graphics::composer::V2_1::BpHwComposer"
      component_value: 0
    }
    vtable_components {
      kind: CompleteDtorPointer
      mangled_component_name: "_ZN7android8hardware8graphics8composer4V2_112BpHwComposerD1Ev"
      component_value: 0
    }
    vtable_components {
      kind: DeletingDtorPointer
      mangled_component_name: "_ZN7android8hardware8graphics8composer4V2_112BpHwComposerD0Ev"
      component_value: 0
    }
    vtable_components {
      kind: FunctionPointer
      mangled_component_name: "_ZN7android8hardware11BpHwRefBase10onFirstRefEv"
      component_value: 0
    }
    vtable_components {
      kind: FunctionPointer
      mangled_component_name: "_ZN7android8hardware11BpHwRefBase15onLastStrongRefEPKv"
      component_value: 0
    }
    vtable_components {
      kind: FunctionPointer
      mangled_component_name: "_ZN7android8hardware11BpHwRefBase20onIncStrongAttemptedEjPKv"
      component_value: 0
    }
    vtable_components {
      kind: FunctionPointer
      mangled_component_name: "_ZN7android7RefBase13onLastWeakRefEPKv"
      component_value: 0
    }
  }
}
records {
  basic_abi {
    type_abi {
      name: "android::hardware::graphics::composer::V2_1::BnHwComposer"
      size: 80
      alignment: 4
    }
    name: "android::hardware::graphics::composer::V2_1::BnHwComposer"
    access: public_access
    linker_set_key: "android::hardware::graphics::composer::V2_1::BnHwComposer"
  }
  fields {
    basic_abi {
      type_abi {
        name: "android::sp<android::hardware::graphics::composer::V2_1::IComposer>"
        size: 4
        alignment: 4
      }
      name: "_hidl_mImpl"
      access: private_access
    }
  }
  base_specifiers {
    basic_abi {
      type_abi {
        name: "android::hidl::base::V1_0::BnHwBase"
      }
      name: ""
      access: public_access
    }
    is_virtual: false
  }
  source_file: "/out/soong/.intermediates/hardware/interfaces/graphics/composer/2.1/android.hardware.graphics.composer@2.1_genc++_headers/gen/android/hardware/graphics/composer/2.1/BnHwComposer.h"
  mangled_record_name: "android::hardware::graphics::composer::V2_1::BnHwComposer"
  vtable_layout {
    vtable_components {
      kind: VBaseOffset
      mangled_component_name: ""
      component_value: 72
    }
    vtable_components {
      kind: OffsetToTop
      mangled_component_name: ""
      component_value: 0
    }
    vtable_components {
      kind: RTTI
      mangled_component_name: "android::hardware::graphics::composer::V2_1::BnHwComposer"
      component_value: 0
    }
    vtable_components {
      kind: FunctionPointer
      mangled_component_name: "_ZN7android8hardware9BHwBinder8transactEjRKNS0_6ParcelEPS2_jNSt3__18functionIFvRS2_EEE"
      component_value: 0
    }
    vtable_components {
      kind: FunctionPointer
      mangled_component_name: "_ZN7android8hardware9BHwBinder11linkToDeathERKNS_2spINS0_7IBinder14DeathRecipientEEEPvj"
      component_value: 0
    }
    vtable_components {
      kind: FunctionPointer
      mangled_component_name: "_ZN7android8hardware9BHwBinder13unlinkToDeathERKNS_2wpINS0_7IBinder14DeathRecipientEEEPvjPS5_"
      component_value: 0
    }
    vtable_components {
      kind: FunctionPointer
      mangled_component_name: "_ZNK7android8hardware7IBinder13checkSubclassEPKv"
      component_value: 0
    }
    vtable_components {
      kind: FunctionPointer
      mangled_component_name: "_ZN7android8hardware9BHwBinder12attachObjectEPKvPvS4_PFvS3_S4_S4_E"
      component_value: 0
    }
    vtable_components {
      kind: FunctionPointer
      mangled_component_name: "_ZNK7android8hardware9BHwBinder10findObjectEPKv"
      component_value: 0
    }
    vtable_components {
      kind: FunctionPointer
      mangled_component_name: "_ZN7android8hardware9BHwBinder12detachObjectEPKv"
      component_value: 0
    }
    vtable_components {
      kind: FunctionPointer
      mangled_component_name: "_ZN7android8hardware9BHwBinder11localBinderEv"
      component_value: 0
    }
    vtable_components {
      kind: FunctionPointer
      mangled_component_name: "_ZN7android8hardware7IBinder12remoteBinderEv"
      component_value: 0
    }
    vtable_components {
      kind: CompleteDtorPointer
      mangled_component_name: "_ZN7android8hardware8graphics8composer4V2_112BnHwComposerD1Ev"
      component_value: 0
    }
    vtable_components {
      kind: DeletingDtorPointer
      mangled_component_name: "_ZN7android8hardware8graphics8composer4V2_112BnHwComposerD0Ev"
      component_value: 0
    }
    vtable_components {
      kind: FunctionPointer
      mangled_component_name: "_ZN7android8hardware8graphics8composer4V2_112BnHwComposer10onTransactEjRKNS0_6ParcelEPS5_jNSt3__18functionIFvRS5_EEE"
      component_value: 0
    }
    vtable_components {
      kind: OffsetToTop
      mangled_component_name: ""
      component_value: -20
    }
    vtable_components {
      kind: RTTI
      mangled_component_name: "android::hardware::graphics::composer::V2_1::BnHwComposer"
      component_value: 0
    }
    vtable_components {
      kind: CompleteDtorPointer
      mangled_component_name: "_ZN7android8hardware8graphics8composer4V2_112BnHwComposerD1Ev"
      component_value: 0
    }
    vtable_components {
      kind: DeletingDtorPointer
      mangled_component_name: "_ZN7android8hardware8graphics8composer4V2_112BnHwComposerD0Ev"
      component_value: 0
    }
    vtable_components {
      kind: VCallOffset
      mangled_component_name: ""
      component_value: 0
    }
    vtable_components {
      kind: VCallOffset
      mangled_component_name: ""
      component_value: 0
    }
    vtable_components {
      kind: VCallOffset
      mangled_component_name: ""
      component_value: 0
    }
    vtable_components {
      kind: VCallOffset
      mangled_component_name: ""
      component_value: 0
    }
    vtable_components {
      kind: VCallOffset
      mangled_component_name: ""
      component_value: -72
    }
    vtable_components {
      kind: OffsetToTop
      mangled_component_name: ""
      component_value: -72
    }
    vtable_components {
      kind: RTTI
      mangled_component_name: "android::hardware::graphics::composer::V2_1::BnHwComposer"
      component_value: 0
    }
    vtable_components {
      kind: CompleteDtorPointer
      mangled_component_name: "_ZN7android8hardware8graphics8composer4V2_112BnHwComposerD1Ev"
      component_value: 0
    }
    vtable_components {
      kind: DeletingDtorPointer
      mangled_component_name: "_ZN7android8hardware8graphics8composer4V2_112BnHwComposerD0Ev"
      component_value: 0
    }
    vtable_components {
      kind: FunctionPointer
      mangled_component_name: "_ZN7android7RefBase10onFirstRefEv"
      component_value: 0
    }
    vtable_components {
      kind: FunctionPointer
      mangled_component_name: "_ZN7android7RefBase15onLastStrongRefEPKv"
      component_value: 0
    }
    vtable_components {
      kind: FunctionPointer
      mangled_component_name: "_ZN7android7RefBase20onIncStrongAttemptedEjPKv"
      component_value: 0
    }
    vtable_components {
      kind: FunctionPointer
      mangled_component_name: "_ZN7android7RefBase13onLastWeakRefEPKv"
      component_value: 0
    }
  }
}
records {
  basic_abi {
    type_abi {
      name: "android::hardware::graphics::composer::V2_1::BsComposer"
      size: 68
      alignment: 4
    }
    name: "android::hardware::graphics::composer::V2_1::BsComposer"
    access: public_access
    linker_set_key: "android::hardware::graphics::composer::V2_1::BsComposer"
  }
  fields {
    basic_abi {
      type_abi {
        name: "const android::sp<android::hardware::graphics::composer::V2_1::IComposer>"
        size: 4
        alignment: 4
      }
      name: "mImpl"
      access: private_access
    }
  }
  fields {
    basic_abi {
      type_abi {
        name: "android::hardware::details::TaskRunner"
        size: 8
        alignment: 4
      }
      name: "mOnewayQueue"
      access: private_access
    }
  }
  base_specifiers {
    basic_abi {
      type_abi {
        name: "android::hardware::graphics::composer::V2_1::IComposer"
      }
      name: ""
      access: public_access
    }
    is_virtual: false
  }
  base_specifiers {
    basic_abi {
      type_abi {
        name: "android::hardware::details::HidlInstrumentor"
      }
      name: ""
      access: public_access
    }
    is_virtual: false
  }
  source_file: "/out/soong/.intermediates/hardware/interfaces/graphics/composer/2.1/android.hardware.graphics.composer@2.1_genc++_headers/gen/android/hardware/graphics/composer/2.1/BsComposer.h"
  mangled_record_name: "android::hardware::graphics::composer::V2_1::BsComposer"
  vtable_layout {
    vtable_components {
      kind: VBaseOffset
      mangled_component_name: ""
      component_value: 60
    }
    vtable_components {
      kind: OffsetToTop
      mangled_component_name: ""
      component_value: 0
    }
    vtable_components {
      kind: RTTI
      mangled_component_name: "android::hardware::graphics::composer::V2_1::BsComposer"
      component_value: 0
    }
    vtable_components {
      kind: FunctionPointer
      mangled_component_name: "_ZNK7android8hardware8graphics8composer4V2_19IComposer8isRemoteEv"
      component_value: 0
    }
    vtable_components {
      kind: FunctionPointer
      mangled_component_name: "_ZN7android8hardware8graphics8composer4V2_110BsComposer14interfaceChainENSt3__18functionIFvRKNS0_8hidl_vecINS0_11hidl_stringEEEEEE"
      component_value: 0
    }
    vtable_components {
      kind: FunctionPointer
      mangled_component_name: "_ZN7android8hardware8graphics8composer4V2_110BsComposer5debugERKNS0_11hidl_handleERKNS0_8hidl_vecINS0_11hidl_stringEEE"
      component_value: 0
    }
    vtable_components {
      kind: FunctionPointer
      mangled_component_name: "_ZN7android8hardware8graphics8composer4V2_110BsComposer19interfaceDescriptorENSt3__18functionIFvRKNS0_11hidl_stringEEEE"
      component_value: 0
    }
    vtable_components {
      kind: FunctionPointer
      mangled_component_name: "_ZN7android8hardware8graphics8composer4V2_110BsComposer12getHashChainENSt3__18functionIFvRKNS0_8hidl_vecINS0_10hidl_arrayIhLj32EJEEEEEEEE"
      component_value: 0
    }
    vtable_components {
      kind: FunctionPointer
      mangled_component_name: "_ZN7android8hardware8graphics8composer4V2_110BsComposer21setHALInstrumentationEv"
      component_value: 0
    }
    vtable_components {
      kind: FunctionPointer
      mangled_component_name: "_ZN7android8hardware8graphics8composer4V2_110BsComposer11linkToDeathERKNS_2spINS0_20hidl_death_recipientEEEy"
      component_value: 0
    }
    vtable_components {
      kind: FunctionPointer
      mangled_component_name: "_ZN7android8hardware8graphics8composer4V2_110BsComposer4pingEv"
      component_value: 0
    }
    vtable_components {
      kind: FunctionPointer
      mangled_component_name: "_ZN7android8hardware8graphics8composer4V2_110BsComposer12getDebugInfoENSt3__18functionIFvRKNS_4hidl4base4V1_09DebugInfoEEEE"
      component_value: 0
    }
    vtable_components {
      kind: FunctionPointer
      mangled_component_name: "_ZN7android8hardware8graphics8composer4V2_110BsComposer21notifySyspropsChangedEv"
      component_value: 0
    }
    vtable_components {
      kind: FunctionPointer
      mangled_component_name: "_ZN7android8hardware8graphics8composer4V2_110BsComposer13unlinkToDeathERKNS_2spINS0_20hidl_death_recipientEEE"
      component_value: 0
    }
    vtable_components {
      kind: CompleteDtorPointer
      mangled_component_name: "_ZN7android8hardware8graphics8composer4V2_110BsComposerD1Ev"
      component_value: 0
    }
    vtable_components {
      kind: DeletingDtorPointer
      mangled_component_name: "_ZN7android8hardware8graphics8composer4V2_110BsComposerD0Ev"
      component_value: 0
    }
    vtable_components {
      kind: FunctionPointer
      mangled_component_name: "_ZN7android8hardware8graphics8composer4V2_110BsComposer15getCapabilitiesENSt3__18functionIFvRKNS0_8hidl_vecINS3_9IComposer10CapabilityEEEEEE"
      component_value: 0
    }
    vtable_components {
      kind: FunctionPointer
      mangled_component_name: "_ZN7android8hardware8graphics8composer4V2_110BsComposer13dumpDebugInfoENSt3__18functionIFvRKNS0_11hidl_stringEEEE"
      component_value: 0
    }
    vtable_components {
      kind: FunctionPointer
      mangled_component_name: "_ZN7android8hardware8graphics8composer4V2_110BsComposer12createClientENSt3__18functionIFvNS3_5ErrorERKNS_2spINS3_15IComposerClientEEEEEE"
      component_value: 0
    }
    vtable_components {
      kind: OffsetToTop
      mangled_component_name: ""
      component_value: -4
    }
    vtable_components {
      kind: RTTI
      mangled_component_name: "android::hardware::graphics::composer::V2_1::BsComposer"
      component_value: 0
    }
    vtable_components {
      kind: CompleteDtorPointer
      mangled_component_name: "_ZN7android8hardware8graphics8composer4V2_110BsComposerD1Ev"
      component_value: 0
    }
    vtable_components {
      kind: DeletingDtorPointer
      mangled_component_name: "_ZN7android8hardware8graphics8composer4V2_110BsComposerD0Ev"
      component_value: 0
    }
    vtable_components {
      kind: VCallOffset
      mangled_component_name: ""
      component_value: 0
    }
    vtable_components {
      kind: VCallOffset
      mangled_component_name: ""
      component_value: 0
    }
    vtable_components {
      kind: VCallOffset
      mangled_component_name: ""
      component_value: 0
    }
    vtable_components {
      kind: VCallOffset
      mangled_component_name: ""
      component_value: 0
    }
    vtable_components {
      kind: VCallOffset
      mangled_component_name: ""
      component_value: -60
    }
    vtable_components {
      kind: OffsetToTop
      mangled_component_name: ""
      component_value: -60
    }
    vtable_components {
      kind: RTTI
      mangled_component_name: "android::hardware::graphics::composer::V2_1::BsComposer"
      component_value: 0
    }
    vtable_components {
      kind: CompleteDtorPointer
      mangled_component_name: "_ZN7android8hardware8graphics8composer4V2_110BsComposerD1Ev"
      component_value: 0
    }
    vtable_components {
      kind: DeletingDtorPointer
      mangled_component_name: "_ZN7android8hardware8graphics8composer4V2_110BsComposerD0Ev"
      component_value: 0
    }
    vtable_components {
      kind: FunctionPointer
      mangled_component_name: "_ZN7android7RefBase10onFirstRefEv"
      component_value: 0
    }
    vtable_components {
      kind: FunctionPointer
      mangled_component_name: "_ZN7android7RefBase15onLastStrongRefEPKv"
      component_value: 0
    }
    vtable_components {
      kind: FunctionPointer
      mangled_component_name: "_ZN7android7RefBase20onIncStrongAttemptedEjPKv"
      component_value: 0
    }
    vtable_components {
      kind: FunctionPointer
      mangled_component_name: "_ZN7android7RefBase13onLastWeakRefEPKv"
      component_value: 0
    }
  }
}
records {
  basic_abi {
    type_abi {
      name: "android::hardware::graphics::composer::V2_1::BsComposerCallback"
      size: 68
      alignment: 4
    }
    name: "android::hardware::graphics::composer::V2_1::BsComposerCallback"
    access: public_access
    linker_set_key: "android::hardware::graphics::composer::V2_1::BsComposerCallback"
  }
  fields {
    basic_abi {
      type_abi {
        name: "const android::sp<android::hardware::graphics::composer::V2_1::IComposerCallback>"
        size: 4
        alignment: 4
      }
      name: "mImpl"
      access: private_access
    }
  }
  fields {
    basic_abi {
      type_abi {
        name: "android::hardware::details::TaskRunner"
        size: 8
        alignment: 4
      }
      name: "mOnewayQueue"
      access: private_access
    }
  }
  base_specifiers {
    basic_abi {
      type_abi {
        name: "android::hardware::graphics::composer::V2_1::IComposerCallback"
      }
      name: ""
      access: public_access
    }
    is_virtual: false
  }
  base_specifiers {
    basic_abi {
      type_abi {
        name: "android::hardware::details::HidlInstrumentor"
      }
      name: ""
      access: public_access
    }
    is_virtual: false
  }
  source_file: "/out/soong/.intermediates/hardware/interfaces/graphics/composer/2.1/android.hardware.graphics.composer@2.1_genc++_headers/gen/android/hardware/graphics/composer/2.1/BsComposerCallback.h"
  mangled_record_name: "android::hardware::graphics::composer::V2_1::BsComposerCallback"
  vtable_layout {
    vtable_components {
      kind: VBaseOffset
      mangled_component_name: ""
      component_value: 60
    }
    vtable_components {
      kind: OffsetToTop
      mangled_component_name: ""
      component_value: 0
    }
    vtable_components {
      kind: RTTI
      mangled_component_name: "android::hardware::graphics::composer::V2_1::BsComposerCallback"
      component_value: 0
    }
    vtable_components {
      kind: FunctionPointer
      mangled_component_name: "_ZNK7android8hardware8graphics8composer4V2_117IComposerCallback8isRemoteEv"
      component_value: 0
    }
    vtable_components {
      kind: FunctionPointer
      mangled_component_name: "_ZN7android8hardware8graphics8composer4V2_118BsComposerCallback14interfaceChainENSt3__18functionIFvRKNS0_8hidl_vecINS0_11hidl_stringEEEEEE"
      component_value: 0
    }
    vtable_components {
      kind: FunctionPointer
      mangled_component_name: "_ZN7android8hardware8graphics8composer4V2_118BsComposerCallback5debugERKNS0_11hidl_handleERKNS0_8hidl_vecINS0_11hidl_stringEEE"
      component_value: 0
    }
    vtable_components {
      kind: FunctionPointer
      mangled_component_name: "_ZN7android8hardware8graphics8composer4V2_118BsComposerCallback19interfaceDescriptorENSt3__18functionIFvRKNS0_11hidl_stringEEEE"
      component_value: 0
    }
    vtable_components {
      kind: FunctionPointer
      mangled_component_name: "_ZN7android8hardware8graphics8composer4V2_118BsComposerCallback12getHashChainENSt3__18functionIFvRKNS0_8hidl_vecINS0_10hidl_arrayIhLj32EJEEEEEEEE"
      component_value: 0
    }
    vtable_components {
      kind: FunctionPointer
      mangled_component_name: "_ZN7android8hardware8graphics8composer4V2_118BsComposerCallback21setHALInstrumentationEv"
      component_value: 0
    }
    vtable_components {
      kind: FunctionPointer
      mangled_component_name: "_ZN7android8hardware8graphics8composer4V2_118BsComposerCallback11linkToDeathERKNS_2spINS0_20hidl_death_recipientEEEy"
      component_value: 0
    }
    vtable_components {
      kind: FunctionPointer
      mangled_component_name: "_ZN7android8hardware8graphics8composer4V2_118BsComposerCallback4pingEv"
      component_value: 0
    }
    vtable_components {
      kind: FunctionPointer
      mangled_component_name: "_ZN7android8hardware8graphics8composer4V2_118BsComposerCallback12getDebugInfoENSt3__18functionIFvRKNS_4hidl4base4V1_09DebugInfoEEEE"
      component_value: 0
    }
    vtable_components {
      kind: FunctionPointer
      mangled_component_name: "_ZN7android8hardware8graphics8composer4V2_118BsComposerCallback21notifySyspropsChangedEv"
      component_value: 0
    }
    vtable_components {
      kind: FunctionPointer
      mangled_component_name: "_ZN7android8hardware8graphics8composer4V2_118BsComposerCallback13unlinkToDeathERKNS_2spINS0_20hidl_death_recipientEEE"
      component_value: 0
    }
    vtable_components {
      kind: CompleteDtorPointer
      mangled_component_name: "_ZN7android8hardware8graphics8composer4V2_118BsComposerCallbackD1Ev"
      component_value: 0
    }
    vtable_components {
      kind: DeletingDtorPointer
      mangled_component_name: "_ZN7android8hardware8graphics8composer4V2_118BsComposerCallbackD0Ev"
      component_value: 0
    }
    vtable_components {
      kind: FunctionPointer
      mangled_component_name: "_ZN7android8hardware8graphics8composer4V2_118BsComposerCallback9onHotplugEyNS3_17IComposerCallback10ConnectionE"
      component_value: 0
    }
    vtable_components {
      kind: FunctionPointer
      mangled_component_name: "_ZN7android8hardware8graphics8composer4V2_118BsComposerCallback9onRefreshEy"
      component_value: 0
    }
    vtable_components {
      kind: FunctionPointer
      mangled_component_name: "_ZN7android8hardware8graphics8composer4V2_118BsComposerCallback7onVsyncEyx"
      component_value: 0
    }
    vtable_components {
      kind: OffsetToTop
      mangled_component_name: ""
      component_value: -4
    }
    vtable_components {
      kind: RTTI
      mangled_component_name: "android::hardware::graphics::composer::V2_1::BsComposerCallback"
      component_value: 0
    }
    vtable_components {
      kind: CompleteDtorPointer
      mangled_component_name: "_ZN7android8hardware8graphics8composer4V2_118BsComposerCallbackD1Ev"
      component_value: 0
    }
    vtable_components {
      kind: DeletingDtorPointer
      mangled_component_name: "_ZN7android8hardware8graphics8composer4V2_118BsComposerCallbackD0Ev"
      component_value: 0
    }
    vtable_components {
      kind: VCallOffset
      mangled_component_name: ""
      component_value: 0
    }
    vtable_components {
      kind: VCallOffset
      mangled_component_name: ""
      component_value: 0
    }
    vtable_components {
      kind: VCallOffset
      mangled_component_name: ""
      component_value: 0
    }
    vtable_components {
      kind: VCallOffset
      mangled_component_name: ""
      component_value: 0
    }
    vtable_components {
      kind: VCallOffset
      mangled_component_name: ""
      component_value: -60
    }
    vtable_components {
      kind: OffsetToTop
      mangled_component_name: ""
      component_value: -60
    }
    vtable_components {
      kind: RTTI
      mangled_component_name: "android::hardware::graphics::composer::V2_1::BsComposerCallback"
      component_value: 0
    }
    vtable_components {
      kind: CompleteDtorPointer
      mangled_component_name: "_ZN7android8hardware8graphics8composer4V2_118BsComposerCallbackD1Ev"
      component_value: 0
    }
    vtable_components {
      kind: DeletingDtorPointer
      mangled_component_name: "_ZN7android8hardware8graphics8composer4V2_118BsComposerCallbackD0Ev"
      component_value: 0
    }
    vtable_components {
      kind: FunctionPointer
      mangled_component_name: "_ZN7android7RefBase10onFirstRefEv"
      component_value: 0
    }
    vtable_components {
      kind: FunctionPointer
      mangled_component_name: "_ZN7android7RefBase15onLastStrongRefEPKv"
      component_value: 0
    }
    vtable_components {
      kind: FunctionPointer
      mangled_component_name: "_ZN7android7RefBase20onIncStrongAttemptedEjPKv"
      component_value: 0
    }
    vtable_components {
      kind: FunctionPointer
      mangled_component_name: "_ZN7android7RefBase13onLastWeakRefEPKv"
      component_value: 0
    }
  }
}
records {
  basic_abi {
    type_abi {
      name: "android::hardware::graphics::composer::V2_1::BsComposerClient"
      size: 68
      alignment: 4
    }
    name: "android::hardware::graphics::composer::V2_1::BsComposerClient"
    access: public_access
    linker_set_key: "android::hardware::graphics::composer::V2_1::BsComposerClient"
  }
  fields {
    basic_abi {
      type_abi {
        name: "const android::sp<android::hardware::graphics::composer::V2_1::IComposerClient>"
        size: 4
        alignment: 4
      }
      name: "mImpl"
      access: private_access
    }
  }
  fields {
    basic_abi {
      type_abi {
        name: "android::hardware::details::TaskRunner"
        size: 8
        alignment: 4
      }
      name: "mOnewayQueue"
      access: private_access
    }
  }
  base_specifiers {
    basic_abi {
      type_abi {
        name: "android::hardware::graphics::composer::V2_1::IComposerClient"
      }
      name: ""
      access: public_access
    }
    is_virtual: false
  }
  base_specifiers {
    basic_abi {
      type_abi {
        name: "android::hardware::details::HidlInstrumentor"
      }
      name: ""
      access: public_access
    }
    is_virtual: false
  }
  source_file: "/out/soong/.intermediates/hardware/interfaces/graphics/composer/2.1/android.hardware.graphics.composer@2.1_genc++_headers/gen/android/hardware/graphics/composer/2.1/BsComposerClient.h"
  mangled_record_name: "android::hardware::graphics::composer::V2_1::BsComposerClient"
  vtable_layout {
    vtable_components {
      kind: VBaseOffset
      mangled_component_name: ""
      component_value: 60
    }
    vtable_components {
      kind: OffsetToTop
      mangled_component_name: ""
      component_value: 0
    }
    vtable_components {
      kind: RTTI
      mangled_component_name: "android::hardware::graphics::composer::V2_1::BsComposerClient"
      component_value: 0
    }
    vtable_components {
      kind: FunctionPointer
      mangled_component_name: "_ZNK7android8hardware8graphics8composer4V2_115IComposerClient8isRemoteEv"
      component_value: 0
    }
    vtable_components {
      kind: FunctionPointer
      mangled_component_name: "_ZN7android8hardware8graphics8composer4V2_116BsComposerClient14interfaceChainENSt3__18functionIFvRKNS0_8hidl_vecINS0_11hidl_stringEEEEEE"
      component_value: 0
    }
    vtable_components {
      kind: FunctionPointer
      mangled_component_name: "_ZN7android8hardware8graphics8composer4V2_116BsComposerClient5debugERKNS0_11hidl_handleERKNS0_8hidl_vecINS0_11hidl_stringEEE"
      component_value: 0
    }
    vtable_components {
      kind: FunctionPointer
      mangled_component_name: "_ZN7android8hardware8graphics8composer4V2_116BsComposerClient19interfaceDescriptorENSt3__18functionIFvRKNS0_11hidl_stringEEEE"
      component_value: 0
    }
    vtable_components {
      kind: FunctionPointer
      mangled_component_name: "_ZN7android8hardware8graphics8composer4V2_116BsComposerClient12getHashChainENSt3__18functionIFvRKNS0_8hidl_vecINS0_10hidl_arrayIhLj32EJEEEEEEEE"
      component_value: 0
    }
    vtable_components {
      kind: FunctionPointer
      mangled_component_name: "_ZN7android8hardware8graphics8composer4V2_116BsComposerClient21setHALInstrumentationEv"
      component_value: 0
    }
    vtable_components {
      kind: FunctionPointer
      mangled_component_name: "_ZN7android8hardware8graphics8composer4V2_116BsComposerClient11linkToDeathERKNS_2spINS0_20hidl_death_recipientEEEy"
      component_value: 0
    }
    vtable_components {
      kind: FunctionPointer
      mangled_component_name: "_ZN7android8hardware8graphics8composer4V2_116BsComposerClient4pingEv"
      component_value: 0
    }
    vtable_components {
      kind: FunctionPointer
      mangled_component_name: "_ZN7android8hardware8graphics8composer4V2_116BsComposerClient12getDebugInfoENSt3__18functionIFvRKNS_4hidl4base4V1_09DebugInfoEEEE"
      component_value: 0
    }
    vtable_components {
      kind: FunctionPointer
      mangled_component_name: "_ZN7android8hardware8graphics8composer4V2_116BsComposerClient21notifySyspropsChangedEv"
      component_value: 0
    }
    vtable_components {
      kind: FunctionPointer
      mangled_component_name: "_ZN7android8hardware8graphics8composer4V2_116BsComposerClient13unlinkToDeathERKNS_2spINS0_20hidl_death_recipientEEE"
      component_value: 0
    }
    vtable_components {
      kind: CompleteDtorPointer
      mangled_component_name: "_ZN7android8hardware8graphics8composer4V2_116BsComposerClientD1Ev"
      component_value: 0
    }
    vtable_components {
      kind: DeletingDtorPointer
      mangled_component_name: "_ZN7android8hardware8graphics8composer4V2_116BsComposerClientD0Ev"
      component_value: 0
    }
    vtable_components {
      kind: FunctionPointer
      mangled_component_name: "_ZN7android8hardware8graphics8composer4V2_116BsComposerClient16registerCallbackERKNS_2spINS3_17IComposerCallbackEEE"
      component_value: 0
    }
    vtable_components {
      kind: FunctionPointer
      mangled_component_name: "_ZN7android8hardware8graphics8composer4V2_116BsComposerClient25getMaxVirtualDisplayCountEv"
      component_value: 0
    }
    vtable_components {
      kind: FunctionPointer
      mangled_component_name: "_ZN7android8hardware8graphics8composer4V2_116BsComposerClient20createVirtualDisplayEjjNS1_6common4V1_011PixelFormatEjNSt3__18functionIFvNS3_5ErrorEyS7_EEE"
      component_value: 0
    }
    vtable_components {
      kind: FunctionPointer
      mangled_component_name: "_ZN7android8hardware8graphics8composer4V2_116BsComposerClient21destroyVirtualDisplayEy"
      component_value: 0
    }
    vtable_components {
      kind: FunctionPointer
      mangled_component_name: "_ZN7android8hardware8graphics8composer4V2_116BsComposerClient11createLayerEyjNSt3__18functionIFvNS3_5ErrorEyEEE"
      component_value: 0
    }
    vtable_components {
      kind: FunctionPointer
      mangled_component_name: "_ZN7android8hardware8graphics8composer4V2_116BsComposerClient12destroyLayerEyy"
      component_value: 0
    }
    vtable_components {
      kind: FunctionPointer
      mangled_component_name: "_ZN7android8hardware8graphics8composer4V2_116BsComposerClient15getActiveConfigEyNSt3__18functionIFvNS3_5ErrorEjEEE"
      component_value: 0
    }
    vtable_components {
      kind: FunctionPointer
      mangled_component_name: "_ZN7android8hardware8graphics8composer4V2_116BsComposerClient22getClientTargetSupportEyjjNS1_6common4V1_011PixelFormatENS6_9DataspaceE"
      component_value: 0
    }
    vtable_components {
      kind: FunctionPointer
      mangled_component_name: "_ZN7android8hardware8graphics8composer4V2_116BsComposerClient13getColorModesEyNSt3__18functionIFvNS3_5ErrorERKNS0_8hidl_vecINS1_6common4V1_09ColorModeEEEEEE"
      component_value: 0
    }
    vtable_components {
      kind: FunctionPointer
      mangled_component_name: "_ZN7android8hardware8graphics8composer4V2_116BsComposerClient19getDisplayAttributeEyjNS3_15IComposerClient9AttributeENSt3__18functionIFvNS3_5ErrorEiEEE"
      component_value: 0
    }
    vtable_components {
      kind: FunctionPointer
      mangled_component_name: "_ZN7android8hardware8graphics8composer4V2_116BsComposerClient17getDisplayConfigsEyNSt3__18functionIFvNS3_5ErrorERKNS0_8hidl_vecIjEEEEE"
      component_value: 0
    }
    vtable_components {
      kind: FunctionPointer
      mangled_component_name: "_ZN7android8hardware8graphics8composer4V2_116BsComposerClient14getDisplayNameEyNSt3__18functionIFvNS3_5ErrorERKNS0_11hidl_stringEEEE"
      component_value: 0
    }
    vtable_components {
      kind: FunctionPointer
      mangled_component_name: "_ZN7android8hardware8graphics8composer4V2_116BsComposerClient14getDisplayTypeEyNSt3__18functionIFvNS3_5ErrorENS3_15IComposerClient11DisplayTypeEEEE"
      component_value: 0
    }
    vtable_components {
      kind: FunctionPointer
      mangled_component_name: "_ZN7android8hardware8graphics8composer4V2_116BsComposerClient14getDozeSupportEyNSt3__18functionIFvNS3_5ErrorEbEEE"
      component_value: 0
    }
    vtable_components {
      kind: FunctionPointer
      mangled_component_name: "_ZN7android8hardware8graphics8composer4V2_116BsComposerClient18getHdrCapabilitiesEyNSt3__18functionIFvNS3_5ErrorERKNS0_8hidl_vecINS1_6common4V1_03HdrEEEfffEEE"
      component_value: 0
    }
    vtable_components {
      kind: FunctionPointer
      mangled_component_name: "_ZN7android8hardware8graphics8composer4V2_116BsComposerClient24setClientTargetSlotCountEyj"
      component_value: 0
    }
    vtable_components {
      kind: FunctionPointer
      mangled_component_name: "_ZN7android8hardware8graphics8composer4V2_116BsComposerClient15setActiveConfigEyj"
      component_value: 0
    }
    vtable_components {
      kind: FunctionPointer
      mangled_component_name: "_ZN7android8hardware8graphics8composer4V2_116BsComposerClient12setColorModeEyNS1_6common4V1_09ColorModeE"
      component_value: 0
    }
    vtable_components {
      kind: FunctionPointer
      mangled_component_name: "_ZN7android8hardware8graphics8composer4V2_116BsComposerClient12setPowerModeEyNS3_15IComposerClient9PowerModeE"
      component_value: 0
    }
    vtable_components {
      kind: FunctionPointer
      mangled_component_name: "_ZN7android8hardware8graphics8composer4V2_116BsComposerClient15setVsyncEnabledEyNS3_15IComposerClient5VsyncE"
      component_value: 0
    }
    vtable_components {
      kind: FunctionPointer
      mangled_component_name: "_ZN7android8hardware8graphics8composer4V2_116BsComposerClient20setInputCommandQueueERKNS0_12MQDescriptorIjLNS0_8MQFlavorE1EEE"
      component_value: 0
    }
    vtable_components {
      kind: FunctionPointer
      mangled_component_name: "_ZN7android8hardware8graphics8composer4V2_116BsComposerClient21getOutputCommandQueueENSt3__18functionIFvNS3_5ErrorERKNS0_12MQDescriptorIjLNS0_8MQFlavorE1EEEEEE"
      component_value: 0
    }
    vtable_components {
      kind: FunctionPointer
      mangled_component_name: "_ZN7android8hardware8graphics8composer4V2_116BsComposerClient15executeCommandsEjRKNS0_8hidl_vecINS0_11hidl_handleEEENSt3__18functionIFvNS3_5ErrorEbjS9_EEE"
      component_value: 0
    }
    vtable_components {
      kind: OffsetToTop
      mangled_component_name: ""
      component_value: -4
    }
    vtable_components {
      kind: RTTI
      mangled_component_name: "android::hardware::graphics::composer::V2_1::BsComposerClient"
      component_value: 0
    }
    vtable_components {
      kind: CompleteDtorPointer
      mangled_component_name: "_ZN7android8hardware8graphics8composer4V2_116BsComposerClientD1Ev"
      component_value: 0
    }
    vtable_components {
      kind: DeletingDtorPointer
      mangled_component_name: "_ZN7android8hardware8graphics8composer4V2_116BsComposerClientD0Ev"
      component_value: 0
    }
    vtable_components {
      kind: VCallOffset
      mangled_component_name: ""
      component_value: 0
    }
    vtable_components {
      kind: VCallOffset
      mangled_component_name: ""
      component_value: 0
    }
    vtable_components {
      kind: VCallOffset
      mangled_component_name: ""
      component_value: 0
    }
    vtable_components {
      kind: VCallOffset
      mangled_component_name: ""
      component_value: 0
    }
    vtable_components {
      kind: VCallOffset
      mangled_component_name: ""
      component_value: -60
    }
    vtable_components {
      kind: OffsetToTop
      mangled_component_name: ""
      component_value: -60
    }
    vtable_components {
      kind: RTTI
      mangled_component_name: "android::hardware::graphics::composer::V2_1::BsComposerClient"
      component_value: 0
    }
    vtable_components {
      kind: CompleteDtorPointer
      mangled_component_name: "_ZN7android8hardware8graphics8composer4V2_116BsComposerClientD1Ev"
      component_value: 0
    }
    vtable_components {
      kind: DeletingDtorPointer
      mangled_component_name: "_ZN7android8hardware8graphics8composer4V2_116BsComposerClientD0Ev"
      component_value: 0
    }
    vtable_components {
      kind: FunctionPointer
      mangled_component_name: "_ZN7android7RefBase10onFirstRefEv"
      component_value: 0
    }
    vtable_components {
      kind: FunctionPointer
      mangled_component_name: "_ZN7android7RefBase15onLastStrongRefEPKv"
      component_value: 0
    }
    vtable_components {
      kind: FunctionPointer
      mangled_component_name: "_ZN7android7RefBase20onIncStrongAttemptedEjPKv"
      component_value: 0
    }
    vtable_components {
      kind: FunctionPointer
      mangled_component_name: "_ZN7android7RefBase13onLastWeakRefEPKv"
      component_value: 0
    }
  }
}
functions {
  basic_abi {
    type_abi {
      name: "std::basic_string<char, std::char_traits<char>, std::allocator<char> >"
    }
    name: "android::hardware::graphics::composer::V2_1::toString"
    access: public_access
    linker_set_key: "_ZN7android8hardware8graphics8composer4V2_18toStringINS3_5ErrorEEENSt3__112basic_stringIcNS6_11char_traitsIcEENS6_9allocatorIcEEEEi"
  }
  mangled_function_name: "_ZN7android8hardware8graphics8composer4V2_18toStringINS3_5ErrorEEENSt3__112basic_stringIcNS6_11char_traitsIcEENS6_9allocatorIcEEEEi"
  source_file: "/out/soong/.intermediates/hardware/interfaces/graphics/composer/2.1/android.hardware.graphics.composer@2.1_genc++_headers/gen/android/hardware/graphics/composer/2.1/types.h"
  parameters {
    basic_abi {
      type_abi {
        name: "int"
        size: 4
        alignment: 4
      }
      name: "o"
      access: public_access
      linker_set_key: "false"
    }
    default_arg: false
  }
  template_info {
    elements {
      basic_abi {
        type_abi {
          name: "android::hardware::graphics::composer::V2_1::Error"
        }
        linker_set_key: "android::hardware::graphics::composer::V2_1::Error"
      }
    }
  }
}
functions {
  basic_abi {
    type_abi {
      name: "std::basic_string<char, std::char_traits<char>, std::allocator<char> >"
    }
    name: "android::hardware::graphics::composer::V2_1::toString"
    access: public_access
    linker_set_key: "_ZN7android8hardware8graphics8composer4V2_18toStringENS3_5ErrorE"
  }
  mangled_function_name: "_ZN7android8hardware8graphics8composer4V2_18toStringENS3_5ErrorE"
  source_file: "/out/soong/.intermediates/hardware/interfaces/graphics/composer/2.1/android.hardware.graphics.composer@2.1_genc++_headers/gen/android/hardware/graphics/composer/2.1/types.h"
  parameters {
    basic_abi {
      type_abi {
        name: "android::hardware::graphics::composer::V2_1::Error"
      }
      name: "o"
      access: public_access
      linker_set_key: "false"
    }
    default_arg: false
  }
}
functions {
  basic_abi {
    type_abi {
      name: "android::hardware::Return<void>"
    }
    name: "android::hardware::graphics::composer::V2_1::IComposerCallback::interfaceChain"
    access: public_access
    linker_set_key: "_ZN7android8hardware8graphics8composer4V2_117IComposerCallback14interfaceChainENSt3__18functionIFvRKNS0_8hidl_vecINS0_11hidl_stringEEEEEE"
  }
  mangled_function_name: "_ZN7android8hardware8graphics8composer4V2_117IComposerCallback14interfaceChainENSt3__18functionIFvRKNS0_8hidl_vecINS0_11hidl_stringEEEEEE"
  source_file: "/out/soong/.intermediates/hardware/interfaces/graphics/composer/2.1/android.hardware.graphics.composer@2.1_genc++_headers/gen/android/hardware/graphics/composer/2.1/IComposerCallback.h"
  parameters {
    basic_abi {
      type_abi {
        name: "std::function<void (const hidl_vec<hidl_string> &)>"
      }
      name: "_hidl_cb"
      access: public_access
      linker_set_key: "false"
    }
    default_arg: false
  }
}
functions {
  basic_abi {
    type_abi {
      name: "android::hardware::Return<void>"
    }
    name: "android::hardware::graphics::composer::V2_1::IComposerCallback::debug"
    access: public_access
    linker_set_key: "_ZN7android8hardware8graphics8composer4V2_117IComposerCallback5debugERKNS0_11hidl_handleERKNS0_8hidl_vecINS0_11hidl_stringEEE"
  }
  mangled_function_name: "_ZN7android8hardware8graphics8composer4V2_117IComposerCallback5debugERKNS0_11hidl_handleERKNS0_8hidl_vecINS0_11hidl_stringEEE"
  source_file: "/out/soong/.intermediates/hardware/interfaces/graphics/composer/2.1/android.hardware.graphics.composer@2.1_genc++_headers/gen/android/hardware/graphics/composer/2.1/IComposerCallback.h"
  parameters {
    basic_abi {
      type_abi {
        name: "const android::hardware::hidl_handle &"
      }
      name: "fd"
      access: public_access
      linker_set_key: "false"
    }
    default_arg: false
  }
  parameters {
    basic_abi {
      type_abi {
        name: "const android::hardware::hidl_vec<android::hardware::hidl_string> &"
      }
      name: "options"
      access: public_access
      linker_set_key: "false"
    }
    default_arg: false
  }
}
functions {
  basic_abi {
    type_abi {
      name: "android::hardware::Return<void>"
    }
    name: "android::hardware::graphics::composer::V2_1::IComposerCallback::interfaceDescriptor"
    access: public_access
    linker_set_key: "_ZN7android8hardware8graphics8composer4V2_117IComposerCallback19interfaceDescriptorENSt3__18functionIFvRKNS0_11hidl_stringEEEE"
  }
  mangled_function_name: "_ZN7android8hardware8graphics8composer4V2_117IComposerCallback19interfaceDescriptorENSt3__18functionIFvRKNS0_11hidl_stringEEEE"
  source_file: "/out/soong/.intermediates/hardware/interfaces/graphics/composer/2.1/android.hardware.graphics.composer@2.1_genc++_headers/gen/android/hardware/graphics/composer/2.1/IComposerCallback.h"
  parameters {
    basic_abi {
      type_abi {
        name: "std::function<void (const hidl_string &)>"
      }
      name: "_hidl_cb"
      access: public_access
      linker_set_key: "false"
    }
    default_arg: false
  }
}
functions {
  basic_abi {
    type_abi {
      name: "android::hardware::Return<void>"
    }
    name: "android::hardware::graphics::composer::V2_1::IComposerCallback::getHashChain"
    access: public_access
    linker_set_key: "_ZN7android8hardware8graphics8composer4V2_117IComposerCallback12getHashChainENSt3__18functionIFvRKNS0_8hidl_vecINS0_10hidl_arrayIhLj32EJEEEEEEEE"
  }
  mangled_function_name: "_ZN7android8hardware8graphics8composer4V2_117IComposerCallback12getHashChainENSt3__18functionIFvRKNS0_8hidl_vecINS0_10hidl_arrayIhLj32EJEEEEEEEE"
  source_file: "/out/soong/.intermediates/hardware/interfaces/graphics/composer/2.1/android.hardware.graphics.composer@2.1_genc++_headers/gen/android/hardware/graphics/composer/2.1/IComposerCallback.h"
  parameters {
    basic_abi {
      type_abi {
        name: "std::function<void (const hidl_vec<hidl_array<unsigned char, 32> > &)>"
      }
      name: "_hidl_cb"
      access: public_access
      linker_set_key: "false"
    }
    default_arg: false
  }
}
functions {
  basic_abi {
    type_abi {
      name: "android::hardware::Return<void>"
    }
    name: "android::hardware::graphics::composer::V2_1::IComposerCallback::setHALInstrumentation"
    access: public_access
    linker_set_key: "_ZN7android8hardware8graphics8composer4V2_117IComposerCallback21setHALInstrumentationEv"
  }
  mangled_function_name: "_ZN7android8hardware8graphics8composer4V2_117IComposerCallback21setHALInstrumentationEv"
  source_file: "/out/soong/.intermediates/hardware/interfaces/graphics/composer/2.1/android.hardware.graphics.composer@2.1_genc++_headers/gen/android/hardware/graphics/composer/2.1/IComposerCallback.h"
}
functions {
  basic_abi {
    type_abi {
      name: "android::hardware::Return<bool>"
    }
    name: "android::hardware::graphics::composer::V2_1::IComposerCallback::linkToDeath"
    access: public_access
    linker_set_key: "_ZN7android8hardware8graphics8composer4V2_117IComposerCallback11linkToDeathERKNS_2spINS0_20hidl_death_recipientEEEy"
  }
  mangled_function_name: "_ZN7android8hardware8graphics8composer4V2_117IComposerCallback11linkToDeathERKNS_2spINS0_20hidl_death_recipientEEEy"
  source_file: "/out/soong/.intermediates/hardware/interfaces/graphics/composer/2.1/android.hardware.graphics.composer@2.1_genc++_headers/gen/android/hardware/graphics/composer/2.1/IComposerCallback.h"
  parameters {
    basic_abi {
      type_abi {
        name: "const android::sp<android::hardware::hidl_death_recipient> &"
      }
      name: "recipient"
      access: public_access
      linker_set_key: "false"
    }
    default_arg: false
  }
  parameters {
    basic_abi {
      type_abi {
        name: "unsigned long long"
        size: 8
        alignment: 8
      }
      name: "cookie"
      access: public_access
      linker_set_key: "false"
    }
    default_arg: false
  }
}
functions {
  basic_abi {
    type_abi {
      name: "android::hardware::Return<void>"
    }
    name: "android::hardware::graphics::composer::V2_1::IComposerCallback::ping"
    access: public_access
    linker_set_key: "_ZN7android8hardware8graphics8composer4V2_117IComposerCallback4pingEv"
  }
  mangled_function_name: "_ZN7android8hardware8graphics8composer4V2_117IComposerCallback4pingEv"
  source_file: "/out/soong/.intermediates/hardware/interfaces/graphics/composer/2.1/android.hardware.graphics.composer@2.1_genc++_headers/gen/android/hardware/graphics/composer/2.1/IComposerCallback.h"
}
functions {
  basic_abi {
    type_abi {
      name: "android::hardware::Return<void>"
    }
    name: "android::hardware::graphics::composer::V2_1::IComposerCallback::getDebugInfo"
    access: public_access
    linker_set_key: "_ZN7android8hardware8graphics8composer4V2_117IComposerCallback12getDebugInfoENSt3__18functionIFvRKNS_4hidl4base4V1_09DebugInfoEEEE"
  }
  mangled_function_name: "_ZN7android8hardware8graphics8composer4V2_117IComposerCallback12getDebugInfoENSt3__18functionIFvRKNS_4hidl4base4V1_09DebugInfoEEEE"
  source_file: "/out/soong/.intermediates/hardware/interfaces/graphics/composer/2.1/android.hardware.graphics.composer@2.1_genc++_headers/gen/android/hardware/graphics/composer/2.1/IComposerCallback.h"
  parameters {
    basic_abi {
      type_abi {
        name: "std::function<void (const DebugInfo &)>"
      }
      name: "_hidl_cb"
      access: public_access
      linker_set_key: "false"
    }
    default_arg: false
  }
}
functions {
  basic_abi {
    type_abi {
      name: "android::hardware::Return<void>"
    }
    name: "android::hardware::graphics::composer::V2_1::IComposerCallback::notifySyspropsChanged"
    access: public_access
    linker_set_key: "_ZN7android8hardware8graphics8composer4V2_117IComposerCallback21notifySyspropsChangedEv"
  }
  mangled_function_name: "_ZN7android8hardware8graphics8composer4V2_117IComposerCallback21notifySyspropsChangedEv"
  source_file: "/out/soong/.intermediates/hardware/interfaces/graphics/composer/2.1/android.hardware.graphics.composer@2.1_genc++_headers/gen/android/hardware/graphics/composer/2.1/IComposerCallback.h"
}
functions {
  basic_abi {
    type_abi {
      name: "android::hardware::Return<bool>"
    }
    name: "android::hardware::graphics::composer::V2_1::IComposerCallback::unlinkToDeath"
    access: public_access
    linker_set_key: "_ZN7android8hardware8graphics8composer4V2_117IComposerCallback13unlinkToDeathERKNS_2spINS0_20hidl_death_recipientEEE"
  }
  mangled_function_name: "_ZN7android8hardware8graphics8composer4V2_117IComposerCallback13unlinkToDeathERKNS_2spINS0_20hidl_death_recipientEEE"
  source_file: "/out/soong/.intermediates/hardware/interfaces/graphics/composer/2.1/android.hardware.graphics.composer@2.1_genc++_headers/gen/android/hardware/graphics/composer/2.1/IComposerCallback.h"
  parameters {
    basic_abi {
      type_abi {
        name: "const android::sp<android::hardware::hidl_death_recipient> &"
      }
      name: "recipient"
      access: public_access
      linker_set_key: "false"
    }
    default_arg: false
  }
}
functions {
  basic_abi {
    type_abi {
      name: "android::hardware::Return<android::sp<android::hardware::graphics::composer::V2_1::IComposerCallback> >"
    }
    name: "android::hardware::graphics::composer::V2_1::IComposerCallback::castFrom"
    access: public_access
    linker_set_key: "_ZN7android8hardware8graphics8composer4V2_117IComposerCallback8castFromERKNS_2spIS4_EEb"
  }
  mangled_function_name: "_ZN7android8hardware8graphics8composer4V2_117IComposerCallback8castFromERKNS_2spIS4_EEb"
  source_file: "/out/soong/.intermediates/hardware/interfaces/graphics/composer/2.1/android.hardware.graphics.composer@2.1_genc++_headers/gen/android/hardware/graphics/composer/2.1/IComposerCallback.h"
  parameters {
    basic_abi {
      type_abi {
        name: "const android::sp<android::hardware::graphics::composer::V2_1::IComposerCallback> &"
      }
      name: "parent"
      access: public_access
      linker_set_key: "false"
    }
    default_arg: false
  }
  parameters {
    basic_abi {
      type_abi {
        name: "bool"
        size: 1
        alignment: 1
      }
      name: "emitError"
      access: public_access
      linker_set_key: "true"
    }
    default_arg: true
  }
}
functions {
  basic_abi {
    type_abi {
      name: "android::hardware::Return<android::sp<android::hardware::graphics::composer::V2_1::IComposerCallback> >"
    }
    name: "android::hardware::graphics::composer::V2_1::IComposerCallback::castFrom"
    access: public_access
    linker_set_key: "_ZN7android8hardware8graphics8composer4V2_117IComposerCallback8castFromERKNS_2spINS_4hidl4base4V1_05IBaseEEEb"
  }
  mangled_function_name: "_ZN7android8hardware8graphics8composer4V2_117IComposerCallback8castFromERKNS_2spINS_4hidl4base4V1_05IBaseEEEb"
  source_file: "/out/soong/.intermediates/hardware/interfaces/graphics/composer/2.1/android.hardware.graphics.composer@2.1_genc++_headers/gen/android/hardware/graphics/composer/2.1/IComposerCallback.h"
  parameters {
    basic_abi {
      type_abi {
        name: "const android::sp<android::hidl::base::V1_0::IBase> &"
      }
      name: "parent"
      access: public_access
      linker_set_key: "false"
    }
    default_arg: false
  }
  parameters {
    basic_abi {
      type_abi {
        name: "bool"
        size: 1
        alignment: 1
      }
      name: "emitError"
      access: public_access
      linker_set_key: "true"
    }
    default_arg: true
  }
}
functions {
  basic_abi {
    type_abi {
      name: "android::sp<android::hardware::graphics::composer::V2_1::IComposerCallback>"
    }
    name: "android::hardware::graphics::composer::V2_1::IComposerCallback::tryGetService"
    access: public_access
    linker_set_key: "_ZN7android8hardware8graphics8composer4V2_117IComposerCallback13tryGetServiceERKNSt3__112basic_stringIcNS5_11char_traitsIcEENS5_9allocatorIcEEEEb"
  }
  mangled_function_name: "_ZN7android8hardware8graphics8composer4V2_117IComposerCallback13tryGetServiceERKNSt3__112basic_stringIcNS5_11char_traitsIcEENS5_9allocatorIcEEEEb"
  source_file: "/out/soong/.intermediates/hardware/interfaces/graphics/composer/2.1/android.hardware.graphics.composer@2.1_genc++_headers/gen/android/hardware/graphics/composer/2.1/IComposerCallback.h"
  parameters {
    basic_abi {
      type_abi {
        name: "const std::basic_string<char, std::char_traits<char>, std::allocator<char> > &"
      }
      name: "serviceName"
      access: public_access
      linker_set_key: "true"
    }
    default_arg: true
  }
  parameters {
    basic_abi {
      type_abi {
        name: "bool"
        size: 1
        alignment: 1
      }
      name: "getStub"
      access: public_access
      linker_set_key: "true"
    }
    default_arg: true
  }
}
functions {
  basic_abi {
    type_abi {
      name: "android::sp<android::hardware::graphics::composer::V2_1::IComposerCallback>"
    }
    name: "android::hardware::graphics::composer::V2_1::IComposerCallback::getService"
    access: public_access
    linker_set_key: "_ZN7android8hardware8graphics8composer4V2_117IComposerCallback10getServiceERKNSt3__112basic_stringIcNS5_11char_traitsIcEENS5_9allocatorIcEEEEb"
  }
  mangled_function_name: "_ZN7android8hardware8graphics8composer4V2_117IComposerCallback10getServiceERKNSt3__112basic_stringIcNS5_11char_traitsIcEENS5_9allocatorIcEEEEb"
  source_file: "/out/soong/.intermediates/hardware/interfaces/graphics/composer/2.1/android.hardware.graphics.composer@2.1_genc++_headers/gen/android/hardware/graphics/composer/2.1/IComposerCallback.h"
  parameters {
    basic_abi {
      type_abi {
        name: "const std::basic_string<char, std::char_traits<char>, std::allocator<char> > &"
      }
      name: "serviceName"
      access: public_access
      linker_set_key: "true"
    }
    default_arg: true
  }
  parameters {
    basic_abi {
      type_abi {
        name: "bool"
        size: 1
        alignment: 1
      }
      name: "getStub"
      access: public_access
      linker_set_key: "true"
    }
    default_arg: true
  }
}
functions {
  basic_abi {
    type_abi {
      name: "int"
      size: 4
      alignment: 4
    }
    name: "android::hardware::graphics::composer::V2_1::IComposerCallback::registerAsService"
    access: public_access
    linker_set_key: "_ZN7android8hardware8graphics8composer4V2_117IComposerCallback17registerAsServiceERKNSt3__112basic_stringIcNS5_11char_traitsIcEENS5_9allocatorIcEEEE"
  }
  mangled_function_name: "_ZN7android8hardware8graphics8composer4V2_117IComposerCallback17registerAsServiceERKNSt3__112basic_stringIcNS5_11char_traitsIcEENS5_9allocatorIcEEEE"
  source_file: "/out/soong/.intermediates/hardware/interfaces/graphics/composer/2.1/android.hardware.graphics.composer@2.1_genc++_headers/gen/android/hardware/graphics/composer/2.1/IComposerCallback.h"
  parameters {
    basic_abi {
      type_abi {
        name: "const std::basic_string<char, std::char_traits<char>, std::allocator<char> > &"
      }
      name: "serviceName"
      access: public_access
      linker_set_key: "true"
    }
    default_arg: true
  }
}
functions {
  basic_abi {
    type_abi {
      name: "bool"
      size: 1
      alignment: 1
    }
    name: "android::hardware::graphics::composer::V2_1::IComposerCallback::registerForNotifications"
    access: public_access
    linker_set_key: "_ZN7android8hardware8graphics8composer4V2_117IComposerCallback24registerForNotificationsERKNSt3__112basic_stringIcNS5_11char_traitsIcEENS5_9allocatorIcEEEERKNS_2spINS_4hidl7manager4V1_020IServiceNotificationEEE"
  }
  mangled_function_name: "_ZN7android8hardware8graphics8composer4V2_117IComposerCallback24registerForNotificationsERKNSt3__112basic_stringIcNS5_11char_traitsIcEENS5_9allocatorIcEEEERKNS_2spINS_4hidl7manager4V1_020IServiceNotificationEEE"
  source_file: "/out/soong/.intermediates/hardware/interfaces/graphics/composer/2.1/android.hardware.graphics.composer@2.1_genc++_headers/gen/android/hardware/graphics/composer/2.1/IComposerCallback.h"
  parameters {
    basic_abi {
      type_abi {
        name: "const std::basic_string<char, std::char_traits<char>, std::allocator<char> > &"
      }
      name: "serviceName"
      access: public_access
      linker_set_key: "false"
    }
    default_arg: false
  }
  parameters {
    basic_abi {
      type_abi {
        name: "const android::sp<android::hidl::manager::V1_0::IServiceNotification> &"
      }
      name: "notification"
      access: public_access
      linker_set_key: "false"
    }
    default_arg: false
  }
}
functions {
  basic_abi {
    type_abi {
      name: "std::basic_string<char, std::char_traits<char>, std::allocator<char> >"
    }
    name: "android::hardware::graphics::composer::V2_1::toString"
    access: public_access
    linker_set_key: "_ZN7android8hardware8graphics8composer4V2_18toStringINS3_17IComposerCallback10ConnectionEEENSt3__112basic_stringIcNS7_11char_traitsIcEENS7_9allocatorIcEEEEi"
  }
  mangled_function_name: "_ZN7android8hardware8graphics8composer4V2_18toStringINS3_17IComposerCallback10ConnectionEEENSt3__112basic_stringIcNS7_11char_traitsIcEENS7_9allocatorIcEEEEi"
  source_file: "/out/soong/.intermediates/hardware/interfaces/graphics/composer/2.1/android.hardware.graphics.composer@2.1_genc++_headers/gen/android/hardware/graphics/composer/2.1/IComposerCallback.h"
  parameters {
    basic_abi {
      type_abi {
        name: "int"
        size: 4
        alignment: 4
      }
      name: "o"
      access: public_access
      linker_set_key: "false"
    }
    default_arg: false
  }
  template_info {
    elements {
      basic_abi {
        type_abi {
          name: "android::hardware::graphics::composer::V2_1::IComposerCallback::Connection"
        }
        linker_set_key: "android::hardware::graphics::composer::V2_1::IComposerCallback::Connection"
      }
    }
  }
}
functions {
  basic_abi {
    type_abi {
      name: "std::basic_string<char, std::char_traits<char>, std::allocator<char> >"
    }
    name: "android::hardware::graphics::composer::V2_1::toString"
    access: public_access
    linker_set_key: "_ZN7android8hardware8graphics8composer4V2_18toStringENS3_17IComposerCallback10ConnectionE"
  }
  mangled_function_name: "_ZN7android8hardware8graphics8composer4V2_18toStringENS3_17IComposerCallback10ConnectionE"
  source_file: "/out/soong/.intermediates/hardware/interfaces/graphics/composer/2.1/android.hardware.graphics.composer@2.1_genc++_headers/gen/android/hardware/graphics/composer/2.1/IComposerCallback.h"
  parameters {
    basic_abi {
      type_abi {
        name: "android::hardware::graphics::composer::V2_1::IComposerCallback::Connection"
      }
      name: "o"
      access: public_access
      linker_set_key: "false"
    }
    default_arg: false
  }
}
functions {
  basic_abi {
    type_abi {
      name: "std::basic_string<char, std::char_traits<char>, std::allocator<char> >"
    }
    name: "android::hardware::graphics::composer::V2_1::toString"
    access: public_access
    linker_set_key: "_ZN7android8hardware8graphics8composer4V2_18toStringERKNS_2spINS3_17IComposerCallbackEEE"
  }
  mangled_function_name: "_ZN7android8hardware8graphics8composer4V2_18toStringERKNS_2spINS3_17IComposerCallbackEEE"
  source_file: "/out/soong/.intermediates/hardware/interfaces/graphics/composer/2.1/android.hardware.graphics.composer@2.1_genc++_headers/gen/android/hardware/graphics/composer/2.1/IComposerCallback.h"
  parameters {
    basic_abi {
      type_abi {
        name: "const android::sp<android::hardware::graphics::composer::V2_1::IComposerCallback> &"
      }
      name: ""
      access: public_access
      linker_set_key: "false"
    }
    default_arg: false
  }
}
functions {
  basic_abi {
    type_abi {
      name: "android::hardware::Return<void>"
    }
    name: "android::hardware::graphics::composer::V2_1::IComposerClient::interfaceChain"
    access: public_access
    linker_set_key: "_ZN7android8hardware8graphics8composer4V2_115IComposerClient14interfaceChainENSt3__18functionIFvRKNS0_8hidl_vecINS0_11hidl_stringEEEEEE"
  }
  mangled_function_name: "_ZN7android8hardware8graphics8composer4V2_115IComposerClient14interfaceChainENSt3__18functionIFvRKNS0_8hidl_vecINS0_11hidl_stringEEEEEE"
  source_file: "/out/soong/.intermediates/hardware/interfaces/graphics/composer/2.1/android.hardware.graphics.composer@2.1_genc++_headers/gen/android/hardware/graphics/composer/2.1/IComposerClient.h"
  parameters {
    basic_abi {
      type_abi {
        name: "std::function<void (const hidl_vec<hidl_string> &)>"
      }
      name: "_hidl_cb"
      access: public_access
      linker_set_key: "false"
    }
    default_arg: false
  }
}
functions {
  basic_abi {
    type_abi {
      name: "android::hardware::Return<void>"
    }
    name: "android::hardware::graphics::composer::V2_1::IComposerClient::debug"
    access: public_access
    linker_set_key: "_ZN7android8hardware8graphics8composer4V2_115IComposerClient5debugERKNS0_11hidl_handleERKNS0_8hidl_vecINS0_11hidl_stringEEE"
  }
  mangled_function_name: "_ZN7android8hardware8graphics8composer4V2_115IComposerClient5debugERKNS0_11hidl_handleERKNS0_8hidl_vecINS0_11hidl_stringEEE"
  source_file: "/out/soong/.intermediates/hardware/interfaces/graphics/composer/2.1/android.hardware.graphics.composer@2.1_genc++_headers/gen/android/hardware/graphics/composer/2.1/IComposerClient.h"
  parameters {
    basic_abi {
      type_abi {
        name: "const android::hardware::hidl_handle &"
      }
      name: "fd"
      access: public_access
      linker_set_key: "false"
    }
    default_arg: false
  }
  parameters {
    basic_abi {
      type_abi {
        name: "const android::hardware::hidl_vec<android::hardware::hidl_string> &"
      }
      name: "options"
      access: public_access
      linker_set_key: "false"
    }
    default_arg: false
  }
}
functions {
  basic_abi {
    type_abi {
      name: "android::hardware::Return<void>"
    }
    name: "android::hardware::graphics::composer::V2_1::IComposerClient::interfaceDescriptor"
    access: public_access
    linker_set_key: "_ZN7android8hardware8graphics8composer4V2_115IComposerClient19interfaceDescriptorENSt3__18functionIFvRKNS0_11hidl_stringEEEE"
  }
  mangled_function_name: "_ZN7android8hardware8graphics8composer4V2_115IComposerClient19interfaceDescriptorENSt3__18functionIFvRKNS0_11hidl_stringEEEE"
  source_file: "/out/soong/.intermediates/hardware/interfaces/graphics/composer/2.1/android.hardware.graphics.composer@2.1_genc++_headers/gen/android/hardware/graphics/composer/2.1/IComposerClient.h"
  parameters {
    basic_abi {
      type_abi {
        name: "std::function<void (const hidl_string &)>"
      }
      name: "_hidl_cb"
      access: public_access
      linker_set_key: "false"
    }
    default_arg: false
  }
}
functions {
  basic_abi {
    type_abi {
      name: "android::hardware::Return<void>"
    }
    name: "android::hardware::graphics::composer::V2_1::IComposerClient::getHashChain"
    access: public_access
    linker_set_key: "_ZN7android8hardware8graphics8composer4V2_115IComposerClient12getHashChainENSt3__18functionIFvRKNS0_8hidl_vecINS0_10hidl_arrayIhLj32EJEEEEEEEE"
  }
  mangled_function_name: "_ZN7android8hardware8graphics8composer4V2_115IComposerClient12getHashChainENSt3__18functionIFvRKNS0_8hidl_vecINS0_10hidl_arrayIhLj32EJEEEEEEEE"
  source_file: "/out/soong/.intermediates/hardware/interfaces/graphics/composer/2.1/android.hardware.graphics.composer@2.1_genc++_headers/gen/android/hardware/graphics/composer/2.1/IComposerClient.h"
  parameters {
    basic_abi {
      type_abi {
        name: "std::function<void (const hidl_vec<hidl_array<unsigned char, 32> > &)>"
      }
      name: "_hidl_cb"
      access: public_access
      linker_set_key: "false"
    }
    default_arg: false
  }
}
functions {
  basic_abi {
    type_abi {
      name: "android::hardware::Return<void>"
    }
    name: "android::hardware::graphics::composer::V2_1::IComposerClient::setHALInstrumentation"
    access: public_access
    linker_set_key: "_ZN7android8hardware8graphics8composer4V2_115IComposerClient21setHALInstrumentationEv"
  }
  mangled_function_name: "_ZN7android8hardware8graphics8composer4V2_115IComposerClient21setHALInstrumentationEv"
  source_file: "/out/soong/.intermediates/hardware/interfaces/graphics/composer/2.1/android.hardware.graphics.composer@2.1_genc++_headers/gen/android/hardware/graphics/composer/2.1/IComposerClient.h"
}
functions {
  basic_abi {
    type_abi {
      name: "android::hardware::Return<bool>"
    }
    name: "android::hardware::graphics::composer::V2_1::IComposerClient::linkToDeath"
    access: public_access
    linker_set_key: "_ZN7android8hardware8graphics8composer4V2_115IComposerClient11linkToDeathERKNS_2spINS0_20hidl_death_recipientEEEy"
  }
  mangled_function_name: "_ZN7android8hardware8graphics8composer4V2_115IComposerClient11linkToDeathERKNS_2spINS0_20hidl_death_recipientEEEy"
  source_file: "/out/soong/.intermediates/hardware/interfaces/graphics/composer/2.1/android.hardware.graphics.composer@2.1_genc++_headers/gen/android/hardware/graphics/composer/2.1/IComposerClient.h"
  parameters {
    basic_abi {
      type_abi {
        name: "const android::sp<android::hardware::hidl_death_recipient> &"
      }
      name: "recipient"
      access: public_access
      linker_set_key: "false"
    }
    default_arg: false
  }
  parameters {
    basic_abi {
      type_abi {
        name: "unsigned long long"
        size: 8
        alignment: 8
      }
      name: "cookie"
      access: public_access
      linker_set_key: "false"
    }
    default_arg: false
  }
}
functions {
  basic_abi {
    type_abi {
      name: "android::hardware::Return<void>"
    }
    name: "android::hardware::graphics::composer::V2_1::IComposerClient::ping"
    access: public_access
    linker_set_key: "_ZN7android8hardware8graphics8composer4V2_115IComposerClient4pingEv"
  }
  mangled_function_name: "_ZN7android8hardware8graphics8composer4V2_115IComposerClient4pingEv"
  source_file: "/out/soong/.intermediates/hardware/interfaces/graphics/composer/2.1/android.hardware.graphics.composer@2.1_genc++_headers/gen/android/hardware/graphics/composer/2.1/IComposerClient.h"
}
functions {
  basic_abi {
    type_abi {
      name: "android::hardware::Return<void>"
    }
    name: "android::hardware::graphics::composer::V2_1::IComposerClient::getDebugInfo"
    access: public_access
    linker_set_key: "_ZN7android8hardware8graphics8composer4V2_115IComposerClient12getDebugInfoENSt3__18functionIFvRKNS_4hidl4base4V1_09DebugInfoEEEE"
  }
  mangled_function_name: "_ZN7android8hardware8graphics8composer4V2_115IComposerClient12getDebugInfoENSt3__18functionIFvRKNS_4hidl4base4V1_09DebugInfoEEEE"
  source_file: "/out/soong/.intermediates/hardware/interfaces/graphics/composer/2.1/android.hardware.graphics.composer@2.1_genc++_headers/gen/android/hardware/graphics/composer/2.1/IComposerClient.h"
  parameters {
    basic_abi {
      type_abi {
        name: "std::function<void (const DebugInfo &)>"
      }
      name: "_hidl_cb"
      access: public_access
      linker_set_key: "false"
    }
    default_arg: false
  }
}
functions {
  basic_abi {
    type_abi {
      name: "android::hardware::Return<void>"
    }
    name: "android::hardware::graphics::composer::V2_1::IComposerClient::notifySyspropsChanged"
    access: public_access
    linker_set_key: "_ZN7android8hardware8graphics8composer4V2_115IComposerClient21notifySyspropsChangedEv"
  }
  mangled_function_name: "_ZN7android8hardware8graphics8composer4V2_115IComposerClient21notifySyspropsChangedEv"
  source_file: "/out/soong/.intermediates/hardware/interfaces/graphics/composer/2.1/android.hardware.graphics.composer@2.1_genc++_headers/gen/android/hardware/graphics/composer/2.1/IComposerClient.h"
}
functions {
  basic_abi {
    type_abi {
      name: "android::hardware::Return<bool>"
    }
    name: "android::hardware::graphics::composer::V2_1::IComposerClient::unlinkToDeath"
    access: public_access
    linker_set_key: "_ZN7android8hardware8graphics8composer4V2_115IComposerClient13unlinkToDeathERKNS_2spINS0_20hidl_death_recipientEEE"
  }
  mangled_function_name: "_ZN7android8hardware8graphics8composer4V2_115IComposerClient13unlinkToDeathERKNS_2spINS0_20hidl_death_recipientEEE"
  source_file: "/out/soong/.intermediates/hardware/interfaces/graphics/composer/2.1/android.hardware.graphics.composer@2.1_genc++_headers/gen/android/hardware/graphics/composer/2.1/IComposerClient.h"
  parameters {
    basic_abi {
      type_abi {
        name: "const android::sp<android::hardware::hidl_death_recipient> &"
      }
      name: "recipient"
      access: public_access
      linker_set_key: "false"
    }
    default_arg: false
  }
}
functions {
  basic_abi {
    type_abi {
      name: "android::hardware::Return<android::sp<android::hardware::graphics::composer::V2_1::IComposerClient> >"
    }
    name: "android::hardware::graphics::composer::V2_1::IComposerClient::castFrom"
    access: public_access
    linker_set_key: "_ZN7android8hardware8graphics8composer4V2_115IComposerClient8castFromERKNS_2spIS4_EEb"
  }
  mangled_function_name: "_ZN7android8hardware8graphics8composer4V2_115IComposerClient8castFromERKNS_2spIS4_EEb"
  source_file: "/out/soong/.intermediates/hardware/interfaces/graphics/composer/2.1/android.hardware.graphics.composer@2.1_genc++_headers/gen/android/hardware/graphics/composer/2.1/IComposerClient.h"
  parameters {
    basic_abi {
      type_abi {
        name: "const android::sp<android::hardware::graphics::composer::V2_1::IComposerClient> &"
      }
      name: "parent"
      access: public_access
      linker_set_key: "false"
    }
    default_arg: false
  }
  parameters {
    basic_abi {
      type_abi {
        name: "bool"
        size: 1
        alignment: 1
      }
      name: "emitError"
      access: public_access
      linker_set_key: "true"
    }
    default_arg: true
  }
}
functions {
  basic_abi {
    type_abi {
      name: "android::hardware::Return<android::sp<android::hardware::graphics::composer::V2_1::IComposerClient> >"
    }
    name: "android::hardware::graphics::composer::V2_1::IComposerClient::castFrom"
    access: public_access
    linker_set_key: "_ZN7android8hardware8graphics8composer4V2_115IComposerClient8castFromERKNS_2spINS_4hidl4base4V1_05IBaseEEEb"
  }
  mangled_function_name: "_ZN7android8hardware8graphics8composer4V2_115IComposerClient8castFromERKNS_2spINS_4hidl4base4V1_05IBaseEEEb"
  source_file: "/out/soong/.intermediates/hardware/interfaces/graphics/composer/2.1/android.hardware.graphics.composer@2.1_genc++_headers/gen/android/hardware/graphics/composer/2.1/IComposerClient.h"
  parameters {
    basic_abi {
      type_abi {
        name: "const android::sp<android::hidl::base::V1_0::IBase> &"
      }
      name: "parent"
      access: public_access
      linker_set_key: "false"
    }
    default_arg: false
  }
  parameters {
    basic_abi {
      type_abi {
        name: "bool"
        size: 1
        alignment: 1
      }
      name: "emitError"
      access: public_access
      linker_set_key: "true"
    }
    default_arg: true
  }
}
functions {
  basic_abi {
    type_abi {
      name: "android::sp<android::hardware::graphics::composer::V2_1::IComposerClient>"
    }
    name: "android::hardware::graphics::composer::V2_1::IComposerClient::tryGetService"
    access: public_access
    linker_set_key: "_ZN7android8hardware8graphics8composer4V2_115IComposerClient13tryGetServiceERKNSt3__112basic_stringIcNS5_11char_traitsIcEENS5_9allocatorIcEEEEb"
  }
  mangled_function_name: "_ZN7android8hardware8graphics8composer4V2_115IComposerClient13tryGetServiceERKNSt3__112basic_stringIcNS5_11char_traitsIcEENS5_9allocatorIcEEEEb"
  source_file: "/out/soong/.intermediates/hardware/interfaces/graphics/composer/2.1/android.hardware.graphics.composer@2.1_genc++_headers/gen/android/hardware/graphics/composer/2.1/IComposerClient.h"
  parameters {
    basic_abi {
      type_abi {
        name: "const std::basic_string<char, std::char_traits<char>, std::allocator<char> > &"
      }
      name: "serviceName"
      access: public_access
      linker_set_key: "true"
    }
    default_arg: true
  }
  parameters {
    basic_abi {
      type_abi {
        name: "bool"
        size: 1
        alignment: 1
      }
      name: "getStub"
      access: public_access
      linker_set_key: "true"
    }
    default_arg: true
  }
}
functions {
  basic_abi {
    type_abi {
      name: "android::sp<android::hardware::graphics::composer::V2_1::IComposerClient>"
    }
    name: "android::hardware::graphics::composer::V2_1::IComposerClient::getService"
    access: public_access
    linker_set_key: "_ZN7android8hardware8graphics8composer4V2_115IComposerClient10getServiceERKNSt3__112basic_stringIcNS5_11char_traitsIcEENS5_9allocatorIcEEEEb"
  }
  mangled_function_name: "_ZN7android8hardware8graphics8composer4V2_115IComposerClient10getServiceERKNSt3__112basic_stringIcNS5_11char_traitsIcEENS5_9allocatorIcEEEEb"
  source_file: "/out/soong/.intermediates/hardware/interfaces/graphics/composer/2.1/android.hardware.graphics.composer@2.1_genc++_headers/gen/android/hardware/graphics/composer/2.1/IComposerClient.h"
  parameters {
    basic_abi {
      type_abi {
        name: "const std::basic_string<char, std::char_traits<char>, std::allocator<char> > &"
      }
      name: "serviceName"
      access: public_access
      linker_set_key: "true"
    }
    default_arg: true
  }
  parameters {
    basic_abi {
      type_abi {
        name: "bool"
        size: 1
        alignment: 1
      }
      name: "getStub"
      access: public_access
      linker_set_key: "true"
    }
    default_arg: true
  }
}
functions {
  basic_abi {
    type_abi {
      name: "int"
      size: 4
      alignment: 4
    }
    name: "android::hardware::graphics::composer::V2_1::IComposerClient::registerAsService"
    access: public_access
    linker_set_key: "_ZN7android8hardware8graphics8composer4V2_115IComposerClient17registerAsServiceERKNSt3__112basic_stringIcNS5_11char_traitsIcEENS5_9allocatorIcEEEE"
  }
  mangled_function_name: "_ZN7android8hardware8graphics8composer4V2_115IComposerClient17registerAsServiceERKNSt3__112basic_stringIcNS5_11char_traitsIcEENS5_9allocatorIcEEEE"
  source_file: "/out/soong/.intermediates/hardware/interfaces/graphics/composer/2.1/android.hardware.graphics.composer@2.1_genc++_headers/gen/android/hardware/graphics/composer/2.1/IComposerClient.h"
  parameters {
    basic_abi {
      type_abi {
        name: "const std::basic_string<char, std::char_traits<char>, std::allocator<char> > &"
      }
      name: "serviceName"
      access: public_access
      linker_set_key: "true"
    }
    default_arg: true
  }
}
functions {
  basic_abi {
    type_abi {
      name: "bool"
      size: 1
      alignment: 1
    }
    name: "android::hardware::graphics::composer::V2_1::IComposerClient::registerForNotifications"
    access: public_access
    linker_set_key: "_ZN7android8hardware8graphics8composer4V2_115IComposerClient24registerForNotificationsERKNSt3__112basic_stringIcNS5_11char_traitsIcEENS5_9allocatorIcEEEERKNS_2spINS_4hidl7manager4V1_020IServiceNotificationEEE"
  }
  mangled_function_name: "_ZN7android8hardware8graphics8composer4V2_115IComposerClient24registerForNotificationsERKNSt3__112basic_stringIcNS5_11char_traitsIcEENS5_9allocatorIcEEEERKNS_2spINS_4hidl7manager4V1_020IServiceNotificationEEE"
  source_file: "/out/soong/.intermediates/hardware/interfaces/graphics/composer/2.1/android.hardware.graphics.composer@2.1_genc++_headers/gen/android/hardware/graphics/composer/2.1/IComposerClient.h"
  parameters {
    basic_abi {
      type_abi {
        name: "const std::basic_string<char, std::char_traits<char>, std::allocator<char> > &"
      }
      name: "serviceName"
      access: public_access
      linker_set_key: "false"
    }
    default_arg: false
  }
  parameters {
    basic_abi {
      type_abi {
        name: "const android::sp<android::hidl::manager::V1_0::IServiceNotification> &"
      }
      name: "notification"
      access: public_access
      linker_set_key: "false"
    }
    default_arg: false
  }
}
functions {
  basic_abi {
    type_abi {
      name: "std::basic_string<char, std::char_traits<char>, std::allocator<char> >"
    }
    name: "android::hardware::graphics::composer::V2_1::toString"
    access: public_access
    linker_set_key: "_ZN7android8hardware8graphics8composer4V2_18toStringINS3_15IComposerClient9AttributeEEENSt3__112basic_stringIcNS7_11char_traitsIcEENS7_9allocatorIcEEEEi"
  }
  mangled_function_name: "_ZN7android8hardware8graphics8composer4V2_18toStringINS3_15IComposerClient9AttributeEEENSt3__112basic_stringIcNS7_11char_traitsIcEENS7_9allocatorIcEEEEi"
  source_file: "/out/soong/.intermediates/hardware/interfaces/graphics/composer/2.1/android.hardware.graphics.composer@2.1_genc++_headers/gen/android/hardware/graphics/composer/2.1/IComposerClient.h"
  parameters {
    basic_abi {
      type_abi {
        name: "int"
        size: 4
        alignment: 4
      }
      name: "o"
      access: public_access
      linker_set_key: "false"
    }
    default_arg: false
  }
  template_info {
    elements {
      basic_abi {
        type_abi {
          name: "android::hardware::graphics::composer::V2_1::IComposerClient::Attribute"
        }
        linker_set_key: "android::hardware::graphics::composer::V2_1::IComposerClient::Attribute"
      }
    }
  }
}
functions {
  basic_abi {
    type_abi {
      name: "std::basic_string<char, std::char_traits<char>, std::allocator<char> >"
    }
    name: "android::hardware::graphics::composer::V2_1::toString"
    access: public_access
    linker_set_key: "_ZN7android8hardware8graphics8composer4V2_18toStringENS3_15IComposerClient9AttributeE"
  }
  mangled_function_name: "_ZN7android8hardware8graphics8composer4V2_18toStringENS3_15IComposerClient9AttributeE"
  source_file: "/out/soong/.intermediates/hardware/interfaces/graphics/composer/2.1/android.hardware.graphics.composer@2.1_genc++_headers/gen/android/hardware/graphics/composer/2.1/IComposerClient.h"
  parameters {
    basic_abi {
      type_abi {
        name: "android::hardware::graphics::composer::V2_1::IComposerClient::Attribute"
      }
      name: "o"
      access: public_access
      linker_set_key: "false"
    }
    default_arg: false
  }
}
functions {
  basic_abi {
    type_abi {
      name: "std::basic_string<char, std::char_traits<char>, std::allocator<char> >"
    }
    name: "android::hardware::graphics::composer::V2_1::toString"
    access: public_access
    linker_set_key: "_ZN7android8hardware8graphics8composer4V2_18toStringINS3_15IComposerClient14DisplayRequestEEENSt3__112basic_stringIcNS7_11char_traitsIcEENS7_9allocatorIcEEEEj"
  }
  mangled_function_name: "_ZN7android8hardware8graphics8composer4V2_18toStringINS3_15IComposerClient14DisplayRequestEEENSt3__112basic_stringIcNS7_11char_traitsIcEENS7_9allocatorIcEEEEj"
  source_file: "/out/soong/.intermediates/hardware/interfaces/graphics/composer/2.1/android.hardware.graphics.composer@2.1_genc++_headers/gen/android/hardware/graphics/composer/2.1/IComposerClient.h"
  parameters {
    basic_abi {
      type_abi {
        name: "unsigned int"
        size: 4
        alignment: 4
      }
      name: "o"
      access: public_access
      linker_set_key: "false"
    }
    default_arg: false
  }
  template_info {
    elements {
      basic_abi {
        type_abi {
          name: "android::hardware::graphics::composer::V2_1::IComposerClient::DisplayRequest"
        }
        linker_set_key: "android::hardware::graphics::composer::V2_1::IComposerClient::DisplayRequest"
      }
    }
  }
}
functions {
  basic_abi {
    type_abi {
      name: "std::basic_string<char, std::char_traits<char>, std::allocator<char> >"
    }
    name: "android::hardware::graphics::composer::V2_1::toString"
    access: public_access
    linker_set_key: "_ZN7android8hardware8graphics8composer4V2_18toStringENS3_15IComposerClient14DisplayRequestE"
  }
  mangled_function_name: "_ZN7android8hardware8graphics8composer4V2_18toStringENS3_15IComposerClient14DisplayRequestE"
  source_file: "/out/soong/.intermediates/hardware/interfaces/graphics/composer/2.1/android.hardware.graphics.composer@2.1_genc++_headers/gen/android/hardware/graphics/composer/2.1/IComposerClient.h"
  parameters {
    basic_abi {
      type_abi {
        name: "android::hardware::graphics::composer::V2_1::IComposerClient::DisplayRequest"
      }
      name: "o"
      access: public_access
      linker_set_key: "false"
    }
    default_arg: false
  }
}
functions {
  basic_abi {
    type_abi {
      name: "std::basic_string<char, std::char_traits<char>, std::allocator<char> >"
    }
    name: "android::hardware::graphics::composer::V2_1::toString"
    access: public_access
    linker_set_key: "_ZN7android8hardware8graphics8composer4V2_18toStringINS3_15IComposerClient12LayerRequestEEENSt3__112basic_stringIcNS7_11char_traitsIcEENS7_9allocatorIcEEEEj"
  }
  mangled_function_name: "_ZN7android8hardware8graphics8composer4V2_18toStringINS3_15IComposerClient12LayerRequestEEENSt3__112basic_stringIcNS7_11char_traitsIcEENS7_9allocatorIcEEEEj"
  source_file: "/out/soong/.intermediates/hardware/interfaces/graphics/composer/2.1/android.hardware.graphics.composer@2.1_genc++_headers/gen/android/hardware/graphics/composer/2.1/IComposerClient.h"
  parameters {
    basic_abi {
      type_abi {
        name: "unsigned int"
        size: 4
        alignment: 4
      }
      name: "o"
      access: public_access
      linker_set_key: "false"
    }
    default_arg: false
  }
  template_info {
    elements {
      basic_abi {
        type_abi {
          name: "android::hardware::graphics::composer::V2_1::IComposerClient::LayerRequest"
        }
        linker_set_key: "android::hardware::graphics::composer::V2_1::IComposerClient::LayerRequest"
      }
    }
  }
}
functions {
  basic_abi {
    type_abi {
      name: "std::basic_string<char, std::char_traits<char>, std::allocator<char> >"
    }
    name: "android::hardware::graphics::composer::V2_1::toString"
    access: public_access
    linker_set_key: "_ZN7android8hardware8graphics8composer4V2_18toStringENS3_15IComposerClient12LayerRequestE"
  }
  mangled_function_name: "_ZN7android8hardware8graphics8composer4V2_18toStringENS3_15IComposerClient12LayerRequestE"
  source_file: "/out/soong/.intermediates/hardware/interfaces/graphics/composer/2.1/android.hardware.graphics.composer@2.1_genc++_headers/gen/android/hardware/graphics/composer/2.1/IComposerClient.h"
  parameters {
    basic_abi {
      type_abi {
        name: "android::hardware::graphics::composer::V2_1::IComposerClient::LayerRequest"
      }
      name: "o"
      access: public_access
      linker_set_key: "false"
    }
    default_arg: false
  }
}
functions {
  basic_abi {
    type_abi {
      name: "std::basic_string<char, std::char_traits<char>, std::allocator<char> >"
    }
    name: "android::hardware::graphics::composer::V2_1::toString"
    access: public_access
    linker_set_key: "_ZN7android8hardware8graphics8composer4V2_18toStringINS3_15IComposerClient9PowerModeEEENSt3__112basic_stringIcNS7_11char_traitsIcEENS7_9allocatorIcEEEEi"
  }
  mangled_function_name: "_ZN7android8hardware8graphics8composer4V2_18toStringINS3_15IComposerClient9PowerModeEEENSt3__112basic_stringIcNS7_11char_traitsIcEENS7_9allocatorIcEEEEi"
  source_file: "/out/soong/.intermediates/hardware/interfaces/graphics/composer/2.1/android.hardware.graphics.composer@2.1_genc++_headers/gen/android/hardware/graphics/composer/2.1/IComposerClient.h"
  parameters {
    basic_abi {
      type_abi {
        name: "int"
        size: 4
        alignment: 4
      }
      name: "o"
      access: public_access
      linker_set_key: "false"
    }
    default_arg: false
  }
  template_info {
    elements {
      basic_abi {
        type_abi {
          name: "android::hardware::graphics::composer::V2_1::IComposerClient::PowerMode"
        }
        linker_set_key: "android::hardware::graphics::composer::V2_1::IComposerClient::PowerMode"
      }
    }
  }
}
functions {
  basic_abi {
    type_abi {
      name: "std::basic_string<char, std::char_traits<char>, std::allocator<char> >"
    }
    name: "android::hardware::graphics::composer::V2_1::toString"
    access: public_access
    linker_set_key: "_ZN7android8hardware8graphics8composer4V2_18toStringENS3_15IComposerClient9PowerModeE"
  }
  mangled_function_name: "_ZN7android8hardware8graphics8composer4V2_18toStringENS3_15IComposerClient9PowerModeE"
  source_file: "/out/soong/.intermediates/hardware/interfaces/graphics/composer/2.1/android.hardware.graphics.composer@2.1_genc++_headers/gen/android/hardware/graphics/composer/2.1/IComposerClient.h"
  parameters {
    basic_abi {
      type_abi {
        name: "android::hardware::graphics::composer::V2_1::IComposerClient::PowerMode"
      }
      name: "o"
      access: public_access
      linker_set_key: "false"
    }
    default_arg: false
  }
}
functions {
  basic_abi {
    type_abi {
      name: "std::basic_string<char, std::char_traits<char>, std::allocator<char> >"
    }
    name: "android::hardware::graphics::composer::V2_1::toString"
    access: public_access
    linker_set_key: "_ZN7android8hardware8graphics8composer4V2_18toStringINS3_15IComposerClient5VsyncEEENSt3__112basic_stringIcNS7_11char_traitsIcEENS7_9allocatorIcEEEEi"
  }
  mangled_function_name: "_ZN7android8hardware8graphics8composer4V2_18toStringINS3_15IComposerClient5VsyncEEENSt3__112basic_stringIcNS7_11char_traitsIcEENS7_9allocatorIcEEEEi"
  source_file: "/out/soong/.intermediates/hardware/interfaces/graphics/composer/2.1/android.hardware.graphics.composer@2.1_genc++_headers/gen/android/hardware/graphics/composer/2.1/IComposerClient.h"
  parameters {
    basic_abi {
      type_abi {
        name: "int"
        size: 4
        alignment: 4
      }
      name: "o"
      access: public_access
      linker_set_key: "false"
    }
    default_arg: false
  }
  template_info {
    elements {
      basic_abi {
        type_abi {
          name: "android::hardware::graphics::composer::V2_1::IComposerClient::Vsync"
        }
        linker_set_key: "android::hardware::graphics::composer::V2_1::IComposerClient::Vsync"
      }
    }
  }
}
functions {
  basic_abi {
    type_abi {
      name: "std::basic_string<char, std::char_traits<char>, std::allocator<char> >"
    }
    name: "android::hardware::graphics::composer::V2_1::toString"
    access: public_access
    linker_set_key: "_ZN7android8hardware8graphics8composer4V2_18toStringENS3_15IComposerClient5VsyncE"
  }
  mangled_function_name: "_ZN7android8hardware8graphics8composer4V2_18toStringENS3_15IComposerClient5VsyncE"
  source_file: "/out/soong/.intermediates/hardware/interfaces/graphics/composer/2.1/android.hardware.graphics.composer@2.1_genc++_headers/gen/android/hardware/graphics/composer/2.1/IComposerClient.h"
  parameters {
    basic_abi {
      type_abi {
        name: "android::hardware::graphics::composer::V2_1::IComposerClient::Vsync"
      }
      name: "o"
      access: public_access
      linker_set_key: "false"
    }
    default_arg: false
  }
}
functions {
  basic_abi {
    type_abi {
      name: "std::basic_string<char, std::char_traits<char>, std::allocator<char> >"
    }
    name: "android::hardware::graphics::composer::V2_1::toString"
    access: public_access
    linker_set_key: "_ZN7android8hardware8graphics8composer4V2_18toStringINS3_15IComposerClient9BlendModeEEENSt3__112basic_stringIcNS7_11char_traitsIcEENS7_9allocatorIcEEEEi"
  }
  mangled_function_name: "_ZN7android8hardware8graphics8composer4V2_18toStringINS3_15IComposerClient9BlendModeEEENSt3__112basic_stringIcNS7_11char_traitsIcEENS7_9allocatorIcEEEEi"
  source_file: "/out/soong/.intermediates/hardware/interfaces/graphics/composer/2.1/android.hardware.graphics.composer@2.1_genc++_headers/gen/android/hardware/graphics/composer/2.1/IComposerClient.h"
  parameters {
    basic_abi {
      type_abi {
        name: "int"
        size: 4
        alignment: 4
      }
      name: "o"
      access: public_access
      linker_set_key: "false"
    }
    default_arg: false
  }
  template_info {
    elements {
      basic_abi {
        type_abi {
          name: "android::hardware::graphics::composer::V2_1::IComposerClient::BlendMode"
        }
        linker_set_key: "android::hardware::graphics::composer::V2_1::IComposerClient::BlendMode"
      }
    }
  }
}
functions {
  basic_abi {
    type_abi {
      name: "std::basic_string<char, std::char_traits<char>, std::allocator<char> >"
    }
    name: "android::hardware::graphics::composer::V2_1::toString"
    access: public_access
    linker_set_key: "_ZN7android8hardware8graphics8composer4V2_18toStringENS3_15IComposerClient9BlendModeE"
  }
  mangled_function_name: "_ZN7android8hardware8graphics8composer4V2_18toStringENS3_15IComposerClient9BlendModeE"
  source_file: "/out/soong/.intermediates/hardware/interfaces/graphics/composer/2.1/android.hardware.graphics.composer@2.1_genc++_headers/gen/android/hardware/graphics/composer/2.1/IComposerClient.h"
  parameters {
    basic_abi {
      type_abi {
        name: "android::hardware::graphics::composer::V2_1::IComposerClient::BlendMode"
      }
      name: "o"
      access: public_access
      linker_set_key: "false"
    }
    default_arg: false
  }
}
functions {
  basic_abi {
    type_abi {
      name: "std::basic_string<char, std::char_traits<char>, std::allocator<char> >"
    }
    name: "android::hardware::graphics::composer::V2_1::toString"
    access: public_access
    linker_set_key: "_ZN7android8hardware8graphics8composer4V2_18toStringINS3_15IComposerClient11CompositionEEENSt3__112basic_stringIcNS7_11char_traitsIcEENS7_9allocatorIcEEEEi"
  }
  mangled_function_name: "_ZN7android8hardware8graphics8composer4V2_18toStringINS3_15IComposerClient11CompositionEEENSt3__112basic_stringIcNS7_11char_traitsIcEENS7_9allocatorIcEEEEi"
  source_file: "/out/soong/.intermediates/hardware/interfaces/graphics/composer/2.1/android.hardware.graphics.composer@2.1_genc++_headers/gen/android/hardware/graphics/composer/2.1/IComposerClient.h"
  parameters {
    basic_abi {
      type_abi {
        name: "int"
        size: 4
        alignment: 4
      }
      name: "o"
      access: public_access
      linker_set_key: "false"
    }
    default_arg: false
  }
  template_info {
    elements {
      basic_abi {
        type_abi {
          name: "android::hardware::graphics::composer::V2_1::IComposerClient::Composition"
        }
        linker_set_key: "android::hardware::graphics::composer::V2_1::IComposerClient::Composition"
      }
    }
  }
}
functions {
  basic_abi {
    type_abi {
      name: "std::basic_string<char, std::char_traits<char>, std::allocator<char> >"
    }
    name: "android::hardware::graphics::composer::V2_1::toString"
    access: public_access
    linker_set_key: "_ZN7android8hardware8graphics8composer4V2_18toStringENS3_15IComposerClient11CompositionE"
  }
  mangled_function_name: "_ZN7android8hardware8graphics8composer4V2_18toStringENS3_15IComposerClient11CompositionE"
  source_file: "/out/soong/.intermediates/hardware/interfaces/graphics/composer/2.1/android.hardware.graphics.composer@2.1_genc++_headers/gen/android/hardware/graphics/composer/2.1/IComposerClient.h"
  parameters {
    basic_abi {
      type_abi {
        name: "android::hardware::graphics::composer::V2_1::IComposerClient::Composition"
      }
      name: "o"
      access: public_access
      linker_set_key: "false"
    }
    default_arg: false
  }
}
functions {
  basic_abi {
    type_abi {
      name: "std::basic_string<char, std::char_traits<char>, std::allocator<char> >"
    }
    name: "android::hardware::graphics::composer::V2_1::toString"
    access: public_access
    linker_set_key: "_ZN7android8hardware8graphics8composer4V2_18toStringINS3_15IComposerClient11DisplayTypeEEENSt3__112basic_stringIcNS7_11char_traitsIcEENS7_9allocatorIcEEEEi"
  }
  mangled_function_name: "_ZN7android8hardware8graphics8composer4V2_18toStringINS3_15IComposerClient11DisplayTypeEEENSt3__112basic_stringIcNS7_11char_traitsIcEENS7_9allocatorIcEEEEi"
  source_file: "/out/soong/.intermediates/hardware/interfaces/graphics/composer/2.1/android.hardware.graphics.composer@2.1_genc++_headers/gen/android/hardware/graphics/composer/2.1/IComposerClient.h"
  parameters {
    basic_abi {
      type_abi {
        name: "int"
        size: 4
        alignment: 4
      }
      name: "o"
      access: public_access
      linker_set_key: "false"
    }
    default_arg: false
  }
  template_info {
    elements {
      basic_abi {
        type_abi {
          name: "android::hardware::graphics::composer::V2_1::IComposerClient::DisplayType"
        }
        linker_set_key: "android::hardware::graphics::composer::V2_1::IComposerClient::DisplayType"
      }
    }
  }
}
functions {
  basic_abi {
    type_abi {
      name: "std::basic_string<char, std::char_traits<char>, std::allocator<char> >"
    }
    name: "android::hardware::graphics::composer::V2_1::toString"
    access: public_access
    linker_set_key: "_ZN7android8hardware8graphics8composer4V2_18toStringENS3_15IComposerClient11DisplayTypeE"
  }
  mangled_function_name: "_ZN7android8hardware8graphics8composer4V2_18toStringENS3_15IComposerClient11DisplayTypeE"
  source_file: "/out/soong/.intermediates/hardware/interfaces/graphics/composer/2.1/android.hardware.graphics.composer@2.1_genc++_headers/gen/android/hardware/graphics/composer/2.1/IComposerClient.h"
  parameters {
    basic_abi {
      type_abi {
        name: "android::hardware::graphics::composer::V2_1::IComposerClient::DisplayType"
      }
      name: "o"
      access: public_access
      linker_set_key: "false"
    }
    default_arg: false
  }
}
functions {
  basic_abi {
    type_abi {
      name: "std::basic_string<char, std::char_traits<char>, std::allocator<char> >"
    }
    name: "android::hardware::graphics::composer::V2_1::toString"
    access: public_access
    linker_set_key: "_ZN7android8hardware8graphics8composer4V2_18toStringINS3_15IComposerClient11HandleIndexEEENSt3__112basic_stringIcNS7_11char_traitsIcEENS7_9allocatorIcEEEEi"
  }
  mangled_function_name: "_ZN7android8hardware8graphics8composer4V2_18toStringINS3_15IComposerClient11HandleIndexEEENSt3__112basic_stringIcNS7_11char_traitsIcEENS7_9allocatorIcEEEEi"
  source_file: "/out/soong/.intermediates/hardware/interfaces/graphics/composer/2.1/android.hardware.graphics.composer@2.1_genc++_headers/gen/android/hardware/graphics/composer/2.1/IComposerClient.h"
  parameters {
    basic_abi {
      type_abi {
        name: "int"
        size: 4
        alignment: 4
      }
      name: "o"
      access: public_access
      linker_set_key: "false"
    }
    default_arg: false
  }
  template_info {
    elements {
      basic_abi {
        type_abi {
          name: "android::hardware::graphics::composer::V2_1::IComposerClient::HandleIndex"
        }
        linker_set_key: "android::hardware::graphics::composer::V2_1::IComposerClient::HandleIndex"
      }
    }
  }
}
functions {
  basic_abi {
    type_abi {
      name: "std::basic_string<char, std::char_traits<char>, std::allocator<char> >"
    }
    name: "android::hardware::graphics::composer::V2_1::toString"
    access: public_access
    linker_set_key: "_ZN7android8hardware8graphics8composer4V2_18toStringENS3_15IComposerClient11HandleIndexE"
  }
  mangled_function_name: "_ZN7android8hardware8graphics8composer4V2_18toStringENS3_15IComposerClient11HandleIndexE"
  source_file: "/out/soong/.intermediates/hardware/interfaces/graphics/composer/2.1/android.hardware.graphics.composer@2.1_genc++_headers/gen/android/hardware/graphics/composer/2.1/IComposerClient.h"
  parameters {
    basic_abi {
      type_abi {
        name: "android::hardware::graphics::composer::V2_1::IComposerClient::HandleIndex"
      }
      name: "o"
      access: public_access
      linker_set_key: "false"
    }
    default_arg: false
  }
}
functions {
  basic_abi {
    type_abi {
      name: "std::basic_string<char, std::char_traits<char>, std::allocator<char> >"
    }
    name: "android::hardware::graphics::composer::V2_1::toString"
    access: public_access
    linker_set_key: "_ZN7android8hardware8graphics8composer4V2_18toStringERKNS3_15IComposerClient4RectE"
  }
  mangled_function_name: "_ZN7android8hardware8graphics8composer4V2_18toStringERKNS3_15IComposerClient4RectE"
  source_file: "/out/soong/.intermediates/hardware/interfaces/graphics/composer/2.1/android.hardware.graphics.composer@2.1_genc++_headers/gen/android/hardware/graphics/composer/2.1/IComposerClient.h"
  parameters {
    basic_abi {
      type_abi {
        name: "const android::hardware::graphics::composer::V2_1::IComposerClient::Rect &"
      }
      name: ""
      access: public_access
      linker_set_key: "false"
    }
    default_arg: false
  }
}
functions {
  basic_abi {
    type_abi {
      name: "bool"
      size: 1
      alignment: 1
    }
    name: "android::hardware::graphics::composer::V2_1::operator=="
    access: public_access
    linker_set_key: "_ZN7android8hardware8graphics8composer4V2_1eqERKNS3_15IComposerClient4RectES7_"
  }
  mangled_function_name: "_ZN7android8hardware8graphics8composer4V2_1eqERKNS3_15IComposerClient4RectES7_"
  source_file: "/out/soong/.intermediates/hardware/interfaces/graphics/composer/2.1/android.hardware.graphics.composer@2.1_genc++_headers/gen/android/hardware/graphics/composer/2.1/IComposerClient.h"
  parameters {
    basic_abi {
      type_abi {
        name: "const android::hardware::graphics::composer::V2_1::IComposerClient::Rect &"
      }
      name: ""
      access: public_access
      linker_set_key: "false"
    }
    default_arg: false
  }
  parameters {
    basic_abi {
      type_abi {
        name: "const android::hardware::graphics::composer::V2_1::IComposerClient::Rect &"
      }
      name: ""
      access: public_access
      linker_set_key: "false"
    }
    default_arg: false
  }
}
functions {
  basic_abi {
    type_abi {
      name: "bool"
      size: 1
      alignment: 1
    }
    name: "android::hardware::graphics::composer::V2_1::operator!="
    access: public_access
    linker_set_key: "_ZN7android8hardware8graphics8composer4V2_1neERKNS3_15IComposerClient4RectES7_"
  }
  mangled_function_name: "_ZN7android8hardware8graphics8composer4V2_1neERKNS3_15IComposerClient4RectES7_"
  source_file: "/out/soong/.intermediates/hardware/interfaces/graphics/composer/2.1/android.hardware.graphics.composer@2.1_genc++_headers/gen/android/hardware/graphics/composer/2.1/IComposerClient.h"
  parameters {
    basic_abi {
      type_abi {
        name: "const android::hardware::graphics::composer::V2_1::IComposerClient::Rect &"
      }
      name: ""
      access: public_access
      linker_set_key: "false"
    }
    default_arg: false
  }
  parameters {
    basic_abi {
      type_abi {
        name: "const android::hardware::graphics::composer::V2_1::IComposerClient::Rect &"
      }
      name: ""
      access: public_access
      linker_set_key: "false"
    }
    default_arg: false
  }
}
functions {
  basic_abi {
    type_abi {
      name: "std::basic_string<char, std::char_traits<char>, std::allocator<char> >"
    }
    name: "android::hardware::graphics::composer::V2_1::toString"
    access: public_access
    linker_set_key: "_ZN7android8hardware8graphics8composer4V2_18toStringERKNS3_15IComposerClient5FRectE"
  }
  mangled_function_name: "_ZN7android8hardware8graphics8composer4V2_18toStringERKNS3_15IComposerClient5FRectE"
  source_file: "/out/soong/.intermediates/hardware/interfaces/graphics/composer/2.1/android.hardware.graphics.composer@2.1_genc++_headers/gen/android/hardware/graphics/composer/2.1/IComposerClient.h"
  parameters {
    basic_abi {
      type_abi {
        name: "const android::hardware::graphics::composer::V2_1::IComposerClient::FRect &"
      }
      name: ""
      access: public_access
      linker_set_key: "false"
    }
    default_arg: false
  }
}
functions {
  basic_abi {
    type_abi {
      name: "bool"
      size: 1
      alignment: 1
    }
    name: "android::hardware::graphics::composer::V2_1::operator=="
    access: public_access
    linker_set_key: "_ZN7android8hardware8graphics8composer4V2_1eqERKNS3_15IComposerClient5FRectES7_"
  }
  mangled_function_name: "_ZN7android8hardware8graphics8composer4V2_1eqERKNS3_15IComposerClient5FRectES7_"
  source_file: "/out/soong/.intermediates/hardware/interfaces/graphics/composer/2.1/android.hardware.graphics.composer@2.1_genc++_headers/gen/android/hardware/graphics/composer/2.1/IComposerClient.h"
  parameters {
    basic_abi {
      type_abi {
        name: "const android::hardware::graphics::composer::V2_1::IComposerClient::FRect &"
      }
      name: ""
      access: public_access
      linker_set_key: "false"
    }
    default_arg: false
  }
  parameters {
    basic_abi {
      type_abi {
        name: "const android::hardware::graphics::composer::V2_1::IComposerClient::FRect &"
      }
      name: ""
      access: public_access
      linker_set_key: "false"
    }
    default_arg: false
  }
}
functions {
  basic_abi {
    type_abi {
      name: "bool"
      size: 1
      alignment: 1
    }
    name: "android::hardware::graphics::composer::V2_1::operator!="
    access: public_access
    linker_set_key: "_ZN7android8hardware8graphics8composer4V2_1neERKNS3_15IComposerClient5FRectES7_"
  }
  mangled_function_name: "_ZN7android8hardware8graphics8composer4V2_1neERKNS3_15IComposerClient5FRectES7_"
  source_file: "/out/soong/.intermediates/hardware/interfaces/graphics/composer/2.1/android.hardware.graphics.composer@2.1_genc++_headers/gen/android/hardware/graphics/composer/2.1/IComposerClient.h"
  parameters {
    basic_abi {
      type_abi {
        name: "const android::hardware::graphics::composer::V2_1::IComposerClient::FRect &"
      }
      name: ""
      access: public_access
      linker_set_key: "false"
    }
    default_arg: false
  }
  parameters {
    basic_abi {
      type_abi {
        name: "const android::hardware::graphics::composer::V2_1::IComposerClient::FRect &"
      }
      name: ""
      access: public_access
      linker_set_key: "false"
    }
    default_arg: false
  }
}
functions {
  basic_abi {
    type_abi {
      name: "std::basic_string<char, std::char_traits<char>, std::allocator<char> >"
    }
    name: "android::hardware::graphics::composer::V2_1::toString"
    access: public_access
    linker_set_key: "_ZN7android8hardware8graphics8composer4V2_18toStringERKNS3_15IComposerClient5ColorE"
  }
  mangled_function_name: "_ZN7android8hardware8graphics8composer4V2_18toStringERKNS3_15IComposerClient5ColorE"
  source_file: "/out/soong/.intermediates/hardware/interfaces/graphics/composer/2.1/android.hardware.graphics.composer@2.1_genc++_headers/gen/android/hardware/graphics/composer/2.1/IComposerClient.h"
  parameters {
    basic_abi {
      type_abi {
        name: "const android::hardware::graphics::composer::V2_1::IComposerClient::Color &"
      }
      name: ""
      access: public_access
      linker_set_key: "false"
    }
    default_arg: false
  }
}
functions {
  basic_abi {
    type_abi {
      name: "bool"
      size: 1
      alignment: 1
    }
    name: "android::hardware::graphics::composer::V2_1::operator=="
    access: public_access
    linker_set_key: "_ZN7android8hardware8graphics8composer4V2_1eqERKNS3_15IComposerClient5ColorES7_"
  }
  mangled_function_name: "_ZN7android8hardware8graphics8composer4V2_1eqERKNS3_15IComposerClient5ColorES7_"
  source_file: "/out/soong/.intermediates/hardware/interfaces/graphics/composer/2.1/android.hardware.graphics.composer@2.1_genc++_headers/gen/android/hardware/graphics/composer/2.1/IComposerClient.h"
  parameters {
    basic_abi {
      type_abi {
        name: "const android::hardware::graphics::composer::V2_1::IComposerClient::Color &"
      }
      name: ""
      access: public_access
      linker_set_key: "false"
    }
    default_arg: false
  }
  parameters {
    basic_abi {
      type_abi {
        name: "const android::hardware::graphics::composer::V2_1::IComposerClient::Color &"
      }
      name: ""
      access: public_access
      linker_set_key: "false"
    }
    default_arg: false
  }
}
functions {
  basic_abi {
    type_abi {
      name: "bool"
      size: 1
      alignment: 1
    }
    name: "android::hardware::graphics::composer::V2_1::operator!="
    access: public_access
    linker_set_key: "_ZN7android8hardware8graphics8composer4V2_1neERKNS3_15IComposerClient5ColorES7_"
  }
  mangled_function_name: "_ZN7android8hardware8graphics8composer4V2_1neERKNS3_15IComposerClient5ColorES7_"
  source_file: "/out/soong/.intermediates/hardware/interfaces/graphics/composer/2.1/android.hardware.graphics.composer@2.1_genc++_headers/gen/android/hardware/graphics/composer/2.1/IComposerClient.h"
  parameters {
    basic_abi {
      type_abi {
        name: "const android::hardware::graphics::composer::V2_1::IComposerClient::Color &"
      }
      name: ""
      access: public_access
      linker_set_key: "false"
    }
    default_arg: false
  }
  parameters {
    basic_abi {
      type_abi {
        name: "const android::hardware::graphics::composer::V2_1::IComposerClient::Color &"
      }
      name: ""
      access: public_access
      linker_set_key: "false"
    }
    default_arg: false
  }
}
functions {
  basic_abi {
    type_abi {
      name: "std::basic_string<char, std::char_traits<char>, std::allocator<char> >"
    }
    name: "android::hardware::graphics::composer::V2_1::toString"
    access: public_access
    linker_set_key: "_ZN7android8hardware8graphics8composer4V2_18toStringINS3_15IComposerClient7CommandEEENSt3__112basic_stringIcNS7_11char_traitsIcEENS7_9allocatorIcEEEEi"
  }
  mangled_function_name: "_ZN7android8hardware8graphics8composer4V2_18toStringINS3_15IComposerClient7CommandEEENSt3__112basic_stringIcNS7_11char_traitsIcEENS7_9allocatorIcEEEEi"
  source_file: "/out/soong/.intermediates/hardware/interfaces/graphics/composer/2.1/android.hardware.graphics.composer@2.1_genc++_headers/gen/android/hardware/graphics/composer/2.1/IComposerClient.h"
  parameters {
    basic_abi {
      type_abi {
        name: "int"
        size: 4
        alignment: 4
      }
      name: "o"
      access: public_access
      linker_set_key: "false"
    }
    default_arg: false
  }
  template_info {
    elements {
      basic_abi {
        type_abi {
          name: "android::hardware::graphics::composer::V2_1::IComposerClient::Command"
        }
        linker_set_key: "android::hardware::graphics::composer::V2_1::IComposerClient::Command"
      }
    }
  }
}
functions {
  basic_abi {
    type_abi {
      name: "std::basic_string<char, std::char_traits<char>, std::allocator<char> >"
    }
    name: "android::hardware::graphics::composer::V2_1::toString"
    access: public_access
    linker_set_key: "_ZN7android8hardware8graphics8composer4V2_18toStringENS3_15IComposerClient7CommandE"
  }
  mangled_function_name: "_ZN7android8hardware8graphics8composer4V2_18toStringENS3_15IComposerClient7CommandE"
  source_file: "/out/soong/.intermediates/hardware/interfaces/graphics/composer/2.1/android.hardware.graphics.composer@2.1_genc++_headers/gen/android/hardware/graphics/composer/2.1/IComposerClient.h"
  parameters {
    basic_abi {
      type_abi {
        name: "android::hardware::graphics::composer::V2_1::IComposerClient::Command"
      }
      name: "o"
      access: public_access
      linker_set_key: "false"
    }
    default_arg: false
  }
}
functions {
  basic_abi {
    type_abi {
      name: "std::basic_string<char, std::char_traits<char>, std::allocator<char> >"
    }
    name: "android::hardware::graphics::composer::V2_1::toString"
    access: public_access
    linker_set_key: "_ZN7android8hardware8graphics8composer4V2_18toStringERKNS_2spINS3_15IComposerClientEEE"
  }
  mangled_function_name: "_ZN7android8hardware8graphics8composer4V2_18toStringERKNS_2spINS3_15IComposerClientEEE"
  source_file: "/out/soong/.intermediates/hardware/interfaces/graphics/composer/2.1/android.hardware.graphics.composer@2.1_genc++_headers/gen/android/hardware/graphics/composer/2.1/IComposerClient.h"
  parameters {
    basic_abi {
      type_abi {
        name: "const android::sp<android::hardware::graphics::composer::V2_1::IComposerClient> &"
      }
      name: ""
      access: public_access
      linker_set_key: "false"
    }
    default_arg: false
  }
}
functions {
  basic_abi {
    type_abi {
      name: "android::hardware::Return<void>"
    }
    name: "android::hardware::graphics::composer::V2_1::IComposer::interfaceChain"
    access: public_access
    linker_set_key: "_ZN7android8hardware8graphics8composer4V2_19IComposer14interfaceChainENSt3__18functionIFvRKNS0_8hidl_vecINS0_11hidl_stringEEEEEE"
  }
  mangled_function_name: "_ZN7android8hardware8graphics8composer4V2_19IComposer14interfaceChainENSt3__18functionIFvRKNS0_8hidl_vecINS0_11hidl_stringEEEEEE"
  source_file: "/out/soong/.intermediates/hardware/interfaces/graphics/composer/2.1/android.hardware.graphics.composer@2.1_genc++_headers/gen/android/hardware/graphics/composer/2.1/IComposer.h"
  parameters {
    basic_abi {
      type_abi {
        name: "std::function<void (const hidl_vec<hidl_string> &)>"
      }
      name: "_hidl_cb"
      access: public_access
      linker_set_key: "false"
    }
    default_arg: false
  }
}
functions {
  basic_abi {
    type_abi {
      name: "android::hardware::Return<void>"
    }
    name: "android::hardware::graphics::composer::V2_1::IComposer::debug"
    access: public_access
    linker_set_key: "_ZN7android8hardware8graphics8composer4V2_19IComposer5debugERKNS0_11hidl_handleERKNS0_8hidl_vecINS0_11hidl_stringEEE"
  }
  mangled_function_name: "_ZN7android8hardware8graphics8composer4V2_19IComposer5debugERKNS0_11hidl_handleERKNS0_8hidl_vecINS0_11hidl_stringEEE"
  source_file: "/out/soong/.intermediates/hardware/interfaces/graphics/composer/2.1/android.hardware.graphics.composer@2.1_genc++_headers/gen/android/hardware/graphics/composer/2.1/IComposer.h"
  parameters {
    basic_abi {
      type_abi {
        name: "const android::hardware::hidl_handle &"
      }
      name: "fd"
      access: public_access
      linker_set_key: "false"
    }
    default_arg: false
  }
  parameters {
    basic_abi {
      type_abi {
        name: "const android::hardware::hidl_vec<android::hardware::hidl_string> &"
      }
      name: "options"
      access: public_access
      linker_set_key: "false"
    }
    default_arg: false
  }
}
functions {
  basic_abi {
    type_abi {
      name: "android::hardware::Return<void>"
    }
    name: "android::hardware::graphics::composer::V2_1::IComposer::interfaceDescriptor"
    access: public_access
    linker_set_key: "_ZN7android8hardware8graphics8composer4V2_19IComposer19interfaceDescriptorENSt3__18functionIFvRKNS0_11hidl_stringEEEE"
  }
  mangled_function_name: "_ZN7android8hardware8graphics8composer4V2_19IComposer19interfaceDescriptorENSt3__18functionIFvRKNS0_11hidl_stringEEEE"
  source_file: "/out/soong/.intermediates/hardware/interfaces/graphics/composer/2.1/android.hardware.graphics.composer@2.1_genc++_headers/gen/android/hardware/graphics/composer/2.1/IComposer.h"
  parameters {
    basic_abi {
      type_abi {
        name: "std::function<void (const hidl_string &)>"
      }
      name: "_hidl_cb"
      access: public_access
      linker_set_key: "false"
    }
    default_arg: false
  }
}
functions {
  basic_abi {
    type_abi {
      name: "android::hardware::Return<void>"
    }
    name: "android::hardware::graphics::composer::V2_1::IComposer::getHashChain"
    access: public_access
    linker_set_key: "_ZN7android8hardware8graphics8composer4V2_19IComposer12getHashChainENSt3__18functionIFvRKNS0_8hidl_vecINS0_10hidl_arrayIhLj32EJEEEEEEEE"
  }
  mangled_function_name: "_ZN7android8hardware8graphics8composer4V2_19IComposer12getHashChainENSt3__18functionIFvRKNS0_8hidl_vecINS0_10hidl_arrayIhLj32EJEEEEEEEE"
  source_file: "/out/soong/.intermediates/hardware/interfaces/graphics/composer/2.1/android.hardware.graphics.composer@2.1_genc++_headers/gen/android/hardware/graphics/composer/2.1/IComposer.h"
  parameters {
    basic_abi {
      type_abi {
        name: "std::function<void (const hidl_vec<hidl_array<unsigned char, 32> > &)>"
      }
      name: "_hidl_cb"
      access: public_access
      linker_set_key: "false"
    }
    default_arg: false
  }
}
functions {
  basic_abi {
    type_abi {
      name: "android::hardware::Return<void>"
    }
    name: "android::hardware::graphics::composer::V2_1::IComposer::setHALInstrumentation"
    access: public_access
    linker_set_key: "_ZN7android8hardware8graphics8composer4V2_19IComposer21setHALInstrumentationEv"
  }
  mangled_function_name: "_ZN7android8hardware8graphics8composer4V2_19IComposer21setHALInstrumentationEv"
  source_file: "/out/soong/.intermediates/hardware/interfaces/graphics/composer/2.1/android.hardware.graphics.composer@2.1_genc++_headers/gen/android/hardware/graphics/composer/2.1/IComposer.h"
}
functions {
  basic_abi {
    type_abi {
      name: "android::hardware::Return<bool>"
    }
    name: "android::hardware::graphics::composer::V2_1::IComposer::linkToDeath"
    access: public_access
    linker_set_key: "_ZN7android8hardware8graphics8composer4V2_19IComposer11linkToDeathERKNS_2spINS0_20hidl_death_recipientEEEy"
  }
  mangled_function_name: "_ZN7android8hardware8graphics8composer4V2_19IComposer11linkToDeathERKNS_2spINS0_20hidl_death_recipientEEEy"
  source_file: "/out/soong/.intermediates/hardware/interfaces/graphics/composer/2.1/android.hardware.graphics.composer@2.1_genc++_headers/gen/android/hardware/graphics/composer/2.1/IComposer.h"
  parameters {
    basic_abi {
      type_abi {
        name: "const android::sp<android::hardware::hidl_death_recipient> &"
      }
      name: "recipient"
      access: public_access
      linker_set_key: "false"
    }
    default_arg: false
  }
  parameters {
    basic_abi {
      type_abi {
        name: "unsigned long long"
        size: 8
        alignment: 8
      }
      name: "cookie"
      access: public_access
      linker_set_key: "false"
    }
    default_arg: false
  }
}
functions {
  basic_abi {
    type_abi {
      name: "android::hardware::Return<void>"
    }
    name: "android::hardware::graphics::composer::V2_1::IComposer::ping"
    access: public_access
    linker_set_key: "_ZN7android8hardware8graphics8composer4V2_19IComposer4pingEv"
  }
  mangled_function_name: "_ZN7android8hardware8graphics8composer4V2_19IComposer4pingEv"
  source_file: "/out/soong/.intermediates/hardware/interfaces/graphics/composer/2.1/android.hardware.graphics.composer@2.1_genc++_headers/gen/android/hardware/graphics/composer/2.1/IComposer.h"
}
functions {
  basic_abi {
    type_abi {
      name: "android::hardware::Return<void>"
    }
    name: "android::hardware::graphics::composer::V2_1::IComposer::getDebugInfo"
    access: public_access
    linker_set_key: "_ZN7android8hardware8graphics8composer4V2_19IComposer12getDebugInfoENSt3__18functionIFvRKNS_4hidl4base4V1_09DebugInfoEEEE"
  }
  mangled_function_name: "_ZN7android8hardware8graphics8composer4V2_19IComposer12getDebugInfoENSt3__18functionIFvRKNS_4hidl4base4V1_09DebugInfoEEEE"
  source_file: "/out/soong/.intermediates/hardware/interfaces/graphics/composer/2.1/android.hardware.graphics.composer@2.1_genc++_headers/gen/android/hardware/graphics/composer/2.1/IComposer.h"
  parameters {
    basic_abi {
      type_abi {
        name: "std::function<void (const DebugInfo &)>"
      }
      name: "_hidl_cb"
      access: public_access
      linker_set_key: "false"
    }
    default_arg: false
  }
}
functions {
  basic_abi {
    type_abi {
      name: "android::hardware::Return<void>"
    }
    name: "android::hardware::graphics::composer::V2_1::IComposer::notifySyspropsChanged"
    access: public_access
    linker_set_key: "_ZN7android8hardware8graphics8composer4V2_19IComposer21notifySyspropsChangedEv"
  }
  mangled_function_name: "_ZN7android8hardware8graphics8composer4V2_19IComposer21notifySyspropsChangedEv"
  source_file: "/out/soong/.intermediates/hardware/interfaces/graphics/composer/2.1/android.hardware.graphics.composer@2.1_genc++_headers/gen/android/hardware/graphics/composer/2.1/IComposer.h"
}
functions {
  basic_abi {
    type_abi {
      name: "android::hardware::Return<bool>"
    }
    name: "android::hardware::graphics::composer::V2_1::IComposer::unlinkToDeath"
    access: public_access
    linker_set_key: "_ZN7android8hardware8graphics8composer4V2_19IComposer13unlinkToDeathERKNS_2spINS0_20hidl_death_recipientEEE"
  }
  mangled_function_name: "_ZN7android8hardware8graphics8composer4V2_19IComposer13unlinkToDeathERKNS_2spINS0_20hidl_death_recipientEEE"
  source_file: "/out/soong/.intermediates/hardware/interfaces/graphics/composer/2.1/android.hardware.graphics.composer@2.1_genc++_headers/gen/android/hardware/graphics/composer/2.1/IComposer.h"
  parameters {
    basic_abi {
      type_abi {
        name: "const android::sp<android::hardware::hidl_death_recipient> &"
      }
      name: "recipient"
      access: public_access
      linker_set_key: "false"
    }
    default_arg: false
  }
}
functions {
  basic_abi {
    type_abi {
      name: "android::hardware::Return<android::sp<android::hardware::graphics::composer::V2_1::IComposer> >"
    }
    name: "android::hardware::graphics::composer::V2_1::IComposer::castFrom"
    access: public_access
    linker_set_key: "_ZN7android8hardware8graphics8composer4V2_19IComposer8castFromERKNS_2spIS4_EEb"
  }
  mangled_function_name: "_ZN7android8hardware8graphics8composer4V2_19IComposer8castFromERKNS_2spIS4_EEb"
  source_file: "/out/soong/.intermediates/hardware/interfaces/graphics/composer/2.1/android.hardware.graphics.composer@2.1_genc++_headers/gen/android/hardware/graphics/composer/2.1/IComposer.h"
  parameters {
    basic_abi {
      type_abi {
        name: "const android::sp<android::hardware::graphics::composer::V2_1::IComposer> &"
      }
      name: "parent"
      access: public_access
      linker_set_key: "false"
    }
    default_arg: false
  }
  parameters {
    basic_abi {
      type_abi {
        name: "bool"
        size: 1
        alignment: 1
      }
      name: "emitError"
      access: public_access
      linker_set_key: "true"
    }
    default_arg: true
  }
}
functions {
  basic_abi {
    type_abi {
      name: "android::hardware::Return<android::sp<android::hardware::graphics::composer::V2_1::IComposer> >"
    }
    name: "android::hardware::graphics::composer::V2_1::IComposer::castFrom"
    access: public_access
    linker_set_key: "_ZN7android8hardware8graphics8composer4V2_19IComposer8castFromERKNS_2spINS_4hidl4base4V1_05IBaseEEEb"
  }
  mangled_function_name: "_ZN7android8hardware8graphics8composer4V2_19IComposer8castFromERKNS_2spINS_4hidl4base4V1_05IBaseEEEb"
  source_file: "/out/soong/.intermediates/hardware/interfaces/graphics/composer/2.1/android.hardware.graphics.composer@2.1_genc++_headers/gen/android/hardware/graphics/composer/2.1/IComposer.h"
  parameters {
    basic_abi {
      type_abi {
        name: "const android::sp<android::hidl::base::V1_0::IBase> &"
      }
      name: "parent"
      access: public_access
      linker_set_key: "false"
    }
    default_arg: false
  }
  parameters {
    basic_abi {
      type_abi {
        name: "bool"
        size: 1
        alignment: 1
      }
      name: "emitError"
      access: public_access
      linker_set_key: "true"
    }
    default_arg: true
  }
}
functions {
  basic_abi {
    type_abi {
      name: "android::sp<android::hardware::graphics::composer::V2_1::IComposer>"
    }
    name: "android::hardware::graphics::composer::V2_1::IComposer::tryGetService"
    access: public_access
    linker_set_key: "_ZN7android8hardware8graphics8composer4V2_19IComposer13tryGetServiceERKNSt3__112basic_stringIcNS5_11char_traitsIcEENS5_9allocatorIcEEEEb"
  }
  mangled_function_name: "_ZN7android8hardware8graphics8composer4V2_19IComposer13tryGetServiceERKNSt3__112basic_stringIcNS5_11char_traitsIcEENS5_9allocatorIcEEEEb"
  source_file: "/out/soong/.intermediates/hardware/interfaces/graphics/composer/2.1/android.hardware.graphics.composer@2.1_genc++_headers/gen/android/hardware/graphics/composer/2.1/IComposer.h"
  parameters {
    basic_abi {
      type_abi {
        name: "const std::basic_string<char, std::char_traits<char>, std::allocator<char> > &"
      }
      name: "serviceName"
      access: public_access
      linker_set_key: "true"
    }
    default_arg: true
  }
  parameters {
    basic_abi {
      type_abi {
        name: "bool"
        size: 1
        alignment: 1
      }
      name: "getStub"
      access: public_access
      linker_set_key: "true"
    }
    default_arg: true
  }
}
functions {
  basic_abi {
    type_abi {
      name: "android::sp<android::hardware::graphics::composer::V2_1::IComposer>"
    }
    name: "android::hardware::graphics::composer::V2_1::IComposer::getService"
    access: public_access
    linker_set_key: "_ZN7android8hardware8graphics8composer4V2_19IComposer10getServiceERKNSt3__112basic_stringIcNS5_11char_traitsIcEENS5_9allocatorIcEEEEb"
  }
  mangled_function_name: "_ZN7android8hardware8graphics8composer4V2_19IComposer10getServiceERKNSt3__112basic_stringIcNS5_11char_traitsIcEENS5_9allocatorIcEEEEb"
  source_file: "/out/soong/.intermediates/hardware/interfaces/graphics/composer/2.1/android.hardware.graphics.composer@2.1_genc++_headers/gen/android/hardware/graphics/composer/2.1/IComposer.h"
  parameters {
    basic_abi {
      type_abi {
        name: "const std::basic_string<char, std::char_traits<char>, std::allocator<char> > &"
      }
      name: "serviceName"
      access: public_access
      linker_set_key: "true"
    }
    default_arg: true
  }
  parameters {
    basic_abi {
      type_abi {
        name: "bool"
        size: 1
        alignment: 1
      }
      name: "getStub"
      access: public_access
      linker_set_key: "true"
    }
    default_arg: true
  }
}
functions {
  basic_abi {
    type_abi {
      name: "int"
      size: 4
      alignment: 4
    }
    name: "android::hardware::graphics::composer::V2_1::IComposer::registerAsService"
    access: public_access
    linker_set_key: "_ZN7android8hardware8graphics8composer4V2_19IComposer17registerAsServiceERKNSt3__112basic_stringIcNS5_11char_traitsIcEENS5_9allocatorIcEEEE"
  }
  mangled_function_name: "_ZN7android8hardware8graphics8composer4V2_19IComposer17registerAsServiceERKNSt3__112basic_stringIcNS5_11char_traitsIcEENS5_9allocatorIcEEEE"
  source_file: "/out/soong/.intermediates/hardware/interfaces/graphics/composer/2.1/android.hardware.graphics.composer@2.1_genc++_headers/gen/android/hardware/graphics/composer/2.1/IComposer.h"
  parameters {
    basic_abi {
      type_abi {
        name: "const std::basic_string<char, std::char_traits<char>, std::allocator<char> > &"
      }
      name: "serviceName"
      access: public_access
      linker_set_key: "true"
    }
    default_arg: true
  }
}
functions {
  basic_abi {
    type_abi {
      name: "bool"
      size: 1
      alignment: 1
    }
    name: "android::hardware::graphics::composer::V2_1::IComposer::registerForNotifications"
    access: public_access
    linker_set_key: "_ZN7android8hardware8graphics8composer4V2_19IComposer24registerForNotificationsERKNSt3__112basic_stringIcNS5_11char_traitsIcEENS5_9allocatorIcEEEERKNS_2spINS_4hidl7manager4V1_020IServiceNotificationEEE"
  }
  mangled_function_name: "_ZN7android8hardware8graphics8composer4V2_19IComposer24registerForNotificationsERKNSt3__112basic_stringIcNS5_11char_traitsIcEENS5_9allocatorIcEEEERKNS_2spINS_4hidl7manager4V1_020IServiceNotificationEEE"
  source_file: "/out/soong/.intermediates/hardware/interfaces/graphics/composer/2.1/android.hardware.graphics.composer@2.1_genc++_headers/gen/android/hardware/graphics/composer/2.1/IComposer.h"
  parameters {
    basic_abi {
      type_abi {
        name: "const std::basic_string<char, std::char_traits<char>, std::allocator<char> > &"
      }
      name: "serviceName"
      access: public_access
      linker_set_key: "false"
    }
    default_arg: false
  }
  parameters {
    basic_abi {
      type_abi {
        name: "const android::sp<android::hidl::manager::V1_0::IServiceNotification> &"
      }
      name: "notification"
      access: public_access
      linker_set_key: "false"
    }
    default_arg: false
  }
}
functions {
  basic_abi {
    type_abi {
      name: "std::basic_string<char, std::char_traits<char>, std::allocator<char> >"
    }
    name: "android::hardware::graphics::composer::V2_1::toString"
    access: public_access
    linker_set_key: "_ZN7android8hardware8graphics8composer4V2_18toStringINS3_9IComposer10CapabilityEEENSt3__112basic_stringIcNS7_11char_traitsIcEENS7_9allocatorIcEEEEi"
  }
  mangled_function_name: "_ZN7android8hardware8graphics8composer4V2_18toStringINS3_9IComposer10CapabilityEEENSt3__112basic_stringIcNS7_11char_traitsIcEENS7_9allocatorIcEEEEi"
  source_file: "/out/soong/.intermediates/hardware/interfaces/graphics/composer/2.1/android.hardware.graphics.composer@2.1_genc++_headers/gen/android/hardware/graphics/composer/2.1/IComposer.h"
  parameters {
    basic_abi {
      type_abi {
        name: "int"
        size: 4
        alignment: 4
      }
      name: "o"
      access: public_access
      linker_set_key: "false"
    }
    default_arg: false
  }
  template_info {
    elements {
      basic_abi {
        type_abi {
          name: "android::hardware::graphics::composer::V2_1::IComposer::Capability"
        }
        linker_set_key: "android::hardware::graphics::composer::V2_1::IComposer::Capability"
      }
    }
  }
}
functions {
  basic_abi {
    type_abi {
      name: "std::basic_string<char, std::char_traits<char>, std::allocator<char> >"
    }
    name: "android::hardware::graphics::composer::V2_1::toString"
    access: public_access
    linker_set_key: "_ZN7android8hardware8graphics8composer4V2_18toStringENS3_9IComposer10CapabilityE"
  }
  mangled_function_name: "_ZN7android8hardware8graphics8composer4V2_18toStringENS3_9IComposer10CapabilityE"
  source_file: "/out/soong/.intermediates/hardware/interfaces/graphics/composer/2.1/android.hardware.graphics.composer@2.1_genc++_headers/gen/android/hardware/graphics/composer/2.1/IComposer.h"
  parameters {
    basic_abi {
      type_abi {
        name: "android::hardware::graphics::composer::V2_1::IComposer::Capability"
      }
      name: "o"
      access: public_access
      linker_set_key: "false"
    }
    default_arg: false
  }
}
functions {
  basic_abi {
    type_abi {
      name: "std::basic_string<char, std::char_traits<char>, std::allocator<char> >"
    }
    name: "android::hardware::graphics::composer::V2_1::toString"
    access: public_access
    linker_set_key: "_ZN7android8hardware8graphics8composer4V2_18toStringERKNS_2spINS3_9IComposerEEE"
  }
  mangled_function_name: "_ZN7android8hardware8graphics8composer4V2_18toStringERKNS_2spINS3_9IComposerEEE"
  source_file: "/out/soong/.intermediates/hardware/interfaces/graphics/composer/2.1/android.hardware.graphics.composer@2.1_genc++_headers/gen/android/hardware/graphics/composer/2.1/IComposer.h"
  parameters {
    basic_abi {
      type_abi {
        name: "const android::sp<android::hardware::graphics::composer::V2_1::IComposer> &"
      }
      name: ""
      access: public_access
      linker_set_key: "false"
    }
    default_arg: false
  }
}
functions {
  basic_abi {
    type_abi {
      name: "void"
    }
    name: "android::hardware::graphics::composer::V2_1::BnHwComposerCallback::BnHwComposerCallback"
    access: public_access
    linker_set_key: "_ZN7android8hardware8graphics8composer4V2_120BnHwComposerCallbackC2ERKNS_2spINS3_17IComposerCallbackEEE"
  }
  mangled_function_name: "_ZN7android8hardware8graphics8composer4V2_120BnHwComposerCallbackC2ERKNS_2spINS3_17IComposerCallbackEEE"
  source_file: "/out/soong/.intermediates/hardware/interfaces/graphics/composer/2.1/android.hardware.graphics.composer@2.1_genc++_headers/gen/android/hardware/graphics/composer/2.1/BnHwComposerCallback.h"
  parameters {
    basic_abi {
      type_abi {
        name: "const android::sp<android::hardware::graphics::composer::V2_1::IComposerCallback> &"
      }
      name: "_hidl_impl"
      access: public_access
      linker_set_key: "false"
    }
    default_arg: false
  }
}
functions {
  basic_abi {
    type_abi {
      name: "void"
    }
    name: "android::hardware::graphics::composer::V2_1::BnHwComposerCallback::BnHwComposerCallback"
    access: public_access
    linker_set_key: "_ZN7android8hardware8graphics8composer4V2_120BnHwComposerCallbackC1ERKNS_2spINS3_17IComposerCallbackEEE"
  }
  mangled_function_name: "_ZN7android8hardware8graphics8composer4V2_120BnHwComposerCallbackC1ERKNS_2spINS3_17IComposerCallbackEEE"
  source_file: "/out/soong/.intermediates/hardware/interfaces/graphics/composer/2.1/android.hardware.graphics.composer@2.1_genc++_headers/gen/android/hardware/graphics/composer/2.1/BnHwComposerCallback.h"
  parameters {
    basic_abi {
      type_abi {
        name: "const android::sp<android::hardware::graphics::composer::V2_1::IComposerCallback> &"
      }
      name: "_hidl_impl"
      access: public_access
      linker_set_key: "false"
    }
    default_arg: false
  }
}
functions {
  basic_abi {
    type_abi {
      name: "void"
    }
    name: "android::hardware::graphics::composer::V2_1::BnHwComposerCallback::~BnHwComposerCallback"
    access: public_access
    linker_set_key: "_ZN7android8hardware8graphics8composer4V2_120BnHwComposerCallbackD2Ev"
  }
  mangled_function_name: "_ZN7android8hardware8graphics8composer4V2_120BnHwComposerCallbackD2Ev"
  source_file: "/out/soong/.intermediates/hardware/interfaces/graphics/composer/2.1/android.hardware.graphics.composer@2.1_genc++_headers/gen/android/hardware/graphics/composer/2.1/BnHwComposerCallback.h"
}
functions {
  basic_abi {
    type_abi {
      name: "void"
    }
    name: "android::hardware::graphics::composer::V2_1::BnHwComposerCallback::~BnHwComposerCallback"
    access: public_access
    linker_set_key: "_ZN7android8hardware8graphics8composer4V2_120BnHwComposerCallbackD1Ev"
  }
  mangled_function_name: "_ZN7android8hardware8graphics8composer4V2_120BnHwComposerCallbackD1Ev"
  source_file: "/out/soong/.intermediates/hardware/interfaces/graphics/composer/2.1/android.hardware.graphics.composer@2.1_genc++_headers/gen/android/hardware/graphics/composer/2.1/BnHwComposerCallback.h"
}
functions {
  basic_abi {
    type_abi {
      name: "void"
    }
    name: "android::hardware::graphics::composer::V2_1::BnHwComposerCallback::~BnHwComposerCallback"
    access: public_access
    linker_set_key: "_ZN7android8hardware8graphics8composer4V2_120BnHwComposerCallbackD0Ev"
  }
  mangled_function_name: "_ZN7android8hardware8graphics8composer4V2_120BnHwComposerCallbackD0Ev"
  source_file: "/out/soong/.intermediates/hardware/interfaces/graphics/composer/2.1/android.hardware.graphics.composer@2.1_genc++_headers/gen/android/hardware/graphics/composer/2.1/BnHwComposerCallback.h"
}
functions {
  basic_abi {
    type_abi {
      name: "int"
      size: 4
      alignment: 4
    }
    name: "android::hardware::graphics::composer::V2_1::BnHwComposerCallback::onTransact"
    access: public_access
    linker_set_key: "_ZN7android8hardware8graphics8composer4V2_120BnHwComposerCallback10onTransactEjRKNS0_6ParcelEPS5_jNSt3__18functionIFvRS5_EEE"
  }
  mangled_function_name: "_ZN7android8hardware8graphics8composer4V2_120BnHwComposerCallback10onTransactEjRKNS0_6ParcelEPS5_jNSt3__18functionIFvRS5_EEE"
  source_file: "/out/soong/.intermediates/hardware/interfaces/graphics/composer/2.1/android.hardware.graphics.composer@2.1_genc++_headers/gen/android/hardware/graphics/composer/2.1/BnHwComposerCallback.h"
  parameters {
    basic_abi {
      type_abi {
        name: "unsigned int"
        size: 4
        alignment: 4
      }
      name: "_hidl_code"
      access: public_access
      linker_set_key: "false"
    }
    default_arg: false
  }
  parameters {
    basic_abi {
      type_abi {
        name: "const android::hardware::Parcel &"
      }
      name: "_hidl_data"
      access: public_access
      linker_set_key: "false"
    }
    default_arg: false
  }
  parameters {
    basic_abi {
      type_abi {
        name: "android::hardware::Parcel *"
        size: 4
        alignment: 4
      }
      name: "_hidl_reply"
      access: public_access
      linker_set_key: "false"
    }
    default_arg: false
  }
  parameters {
    basic_abi {
      type_abi {
        name: "unsigned int"
        size: 4
        alignment: 4
      }
      name: "_hidl_flags"
      access: public_access
      linker_set_key: "true"
    }
    default_arg: true
  }
  parameters {
    basic_abi {
      type_abi {
        name: "std::function<void (Parcel &)>"
      }
      name: "_hidl_cb"
      access: public_access
      linker_set_key: "true"
    }
    default_arg: true
  }
}
functions {
  basic_abi {
    type_abi {
      name: "int"
      size: 4
      alignment: 4
    }
    name: "android::hardware::graphics::composer::V2_1::BnHwComposerCallback::_hidl_onHotplug"
    access: public_access
    linker_set_key: "_ZN7android8hardware8graphics8composer4V2_120BnHwComposerCallback15_hidl_onHotplugEPNS_4hidl4base4V1_08BnHwBaseERKNS0_6ParcelEPSA_NSt3__18functionIFvRSA_EEE"
  }
  mangled_function_name: "_ZN7android8hardware8graphics8composer4V2_120BnHwComposerCallback15_hidl_onHotplugEPNS_4hidl4base4V1_08BnHwBaseERKNS0_6ParcelEPSA_NSt3__18functionIFvRSA_EEE"
  source_file: "/out/soong/.intermediates/hardware/interfaces/graphics/composer/2.1/android.hardware.graphics.composer@2.1_genc++_headers/gen/android/hardware/graphics/composer/2.1/BnHwComposerCallback.h"
  parameters {
    basic_abi {
      type_abi {
        name: "android::hidl::base::V1_0::BnHwBase *"
        size: 4
        alignment: 4
      }
      name: "_hidl_this"
      access: public_access
      linker_set_key: "false"
    }
    default_arg: false
  }
  parameters {
    basic_abi {
      type_abi {
        name: "const android::hardware::Parcel &"
      }
      name: "_hidl_data"
      access: public_access
      linker_set_key: "false"
    }
    default_arg: false
  }
  parameters {
    basic_abi {
      type_abi {
        name: "android::hardware::Parcel *"
        size: 4
        alignment: 4
      }
      name: "_hidl_reply"
      access: public_access
      linker_set_key: "false"
    }
    default_arg: false
  }
  parameters {
    basic_abi {
      type_abi {
        name: "std::function<void (Parcel &)>"
      }
      name: "_hidl_cb"
      access: public_access
      linker_set_key: "false"
    }
    default_arg: false
  }
}
functions {
  basic_abi {
    type_abi {
      name: "int"
      size: 4
      alignment: 4
    }
    name: "android::hardware::graphics::composer::V2_1::BnHwComposerCallback::_hidl_onRefresh"
    access: public_access
    linker_set_key: "_ZN7android8hardware8graphics8composer4V2_120BnHwComposerCallback15_hidl_onRefreshEPNS_4hidl4base4V1_08BnHwBaseERKNS0_6ParcelEPSA_NSt3__18functionIFvRSA_EEE"
  }
  mangled_function_name: "_ZN7android8hardware8graphics8composer4V2_120BnHwComposerCallback15_hidl_onRefreshEPNS_4hidl4base4V1_08BnHwBaseERKNS0_6ParcelEPSA_NSt3__18functionIFvRSA_EEE"
  source_file: "/out/soong/.intermediates/hardware/interfaces/graphics/composer/2.1/android.hardware.graphics.composer@2.1_genc++_headers/gen/android/hardware/graphics/composer/2.1/BnHwComposerCallback.h"
  parameters {
    basic_abi {
      type_abi {
        name: "android::hidl::base::V1_0::BnHwBase *"
        size: 4
        alignment: 4
      }
      name: "_hidl_this"
      access: public_access
      linker_set_key: "false"
    }
    default_arg: false
  }
  parameters {
    basic_abi {
      type_abi {
        name: "const android::hardware::Parcel &"
      }
      name: "_hidl_data"
      access: public_access
      linker_set_key: "false"
    }
    default_arg: false
  }
  parameters {
    basic_abi {
      type_abi {
        name: "android::hardware::Parcel *"
        size: 4
        alignment: 4
      }
      name: "_hidl_reply"
      access: public_access
      linker_set_key: "false"
    }
    default_arg: false
  }
  parameters {
    basic_abi {
      type_abi {
        name: "std::function<void (Parcel &)>"
      }
      name: "_hidl_cb"
      access: public_access
      linker_set_key: "false"
    }
    default_arg: false
  }
}
functions {
  basic_abi {
    type_abi {
      name: "int"
      size: 4
      alignment: 4
    }
    name: "android::hardware::graphics::composer::V2_1::BnHwComposerCallback::_hidl_onVsync"
    access: public_access
    linker_set_key: "_ZN7android8hardware8graphics8composer4V2_120BnHwComposerCallback13_hidl_onVsyncEPNS_4hidl4base4V1_08BnHwBaseERKNS0_6ParcelEPSA_NSt3__18functionIFvRSA_EEE"
  }
  mangled_function_name: "_ZN7android8hardware8graphics8composer4V2_120BnHwComposerCallback13_hidl_onVsyncEPNS_4hidl4base4V1_08BnHwBaseERKNS0_6ParcelEPSA_NSt3__18functionIFvRSA_EEE"
  source_file: "/out/soong/.intermediates/hardware/interfaces/graphics/composer/2.1/android.hardware.graphics.composer@2.1_genc++_headers/gen/android/hardware/graphics/composer/2.1/BnHwComposerCallback.h"
  parameters {
    basic_abi {
      type_abi {
        name: "android::hidl::base::V1_0::BnHwBase *"
        size: 4
        alignment: 4
      }
      name: "_hidl_this"
      access: public_access
      linker_set_key: "false"
    }
    default_arg: false
  }
  parameters {
    basic_abi {
      type_abi {
        name: "const android::hardware::Parcel &"
      }
      name: "_hidl_data"
      access: public_access
      linker_set_key: "false"
    }
    default_arg: false
  }
  parameters {
    basic_abi {
      type_abi {
        name: "android::hardware::Parcel *"
        size: 4
        alignment: 4
      }
      name: "_hidl_reply"
      access: public_access
      linker_set_key: "false"
    }
    default_arg: false
  }
  parameters {
    basic_abi {
      type_abi {
        name: "std::function<void (Parcel &)>"
      }
      name: "_hidl_cb"
      access: public_access
      linker_set_key: "false"
    }
    default_arg: false
  }
}
functions {
  basic_abi {
    type_abi {
      name: "android::hardware::Return<void>"
    }
    name: "android::hardware::graphics::composer::V2_1::BnHwComposerCallback::ping"
    access: private_access
    linker_set_key: "_ZN7android8hardware8graphics8composer4V2_120BnHwComposerCallback4pingEv"
  }
  mangled_function_name: "_ZN7android8hardware8graphics8composer4V2_120BnHwComposerCallback4pingEv"
  source_file: "/out/soong/.intermediates/hardware/interfaces/graphics/composer/2.1/android.hardware.graphics.composer@2.1_genc++_headers/gen/android/hardware/graphics/composer/2.1/BnHwComposerCallback.h"
}
functions {
  basic_abi {
    type_abi {
      name: "android::hardware::Return<void>"
    }
    name: "android::hardware::graphics::composer::V2_1::BnHwComposerCallback::getDebugInfo"
    access: private_access
    linker_set_key: "_ZN7android8hardware8graphics8composer4V2_120BnHwComposerCallback12getDebugInfoENSt3__18functionIFvRKNS_4hidl4base4V1_09DebugInfoEEEE"
  }
  mangled_function_name: "_ZN7android8hardware8graphics8composer4V2_120BnHwComposerCallback12getDebugInfoENSt3__18functionIFvRKNS_4hidl4base4V1_09DebugInfoEEEE"
  source_file: "/out/soong/.intermediates/hardware/interfaces/graphics/composer/2.1/android.hardware.graphics.composer@2.1_genc++_headers/gen/android/hardware/graphics/composer/2.1/BnHwComposerCallback.h"
  parameters {
    basic_abi {
      type_abi {
        name: "std::function<void (const DebugInfo &)>"
      }
      name: "_hidl_cb"
      access: public_access
      linker_set_key: "false"
    }
    default_arg: false
  }
}
functions {
  basic_abi {
    type_abi {
      name: "void"
    }
    name: "android::hardware::graphics::composer::V2_1::BpHwComposerCallback::BpHwComposerCallback"
    access: public_access
    linker_set_key: "_ZN7android8hardware8graphics8composer4V2_120BpHwComposerCallbackC2ERKNS_2spINS0_7IBinderEEE"
  }
  mangled_function_name: "_ZN7android8hardware8graphics8composer4V2_120BpHwComposerCallbackC2ERKNS_2spINS0_7IBinderEEE"
  source_file: "/out/soong/.intermediates/hardware/interfaces/graphics/composer/2.1/android.hardware.graphics.composer@2.1_genc++_headers/gen/android/hardware/graphics/composer/2.1/BpHwComposerCallback.h"
  parameters {
    basic_abi {
      type_abi {
        name: "const android::sp<android::hardware::IBinder> &"
      }
      name: "_hidl_impl"
      access: public_access
      linker_set_key: "false"
    }
    default_arg: false
  }
}
functions {
  basic_abi {
    type_abi {
      name: "void"
    }
    name: "android::hardware::graphics::composer::V2_1::BpHwComposerCallback::BpHwComposerCallback"
    access: public_access
    linker_set_key: "_ZN7android8hardware8graphics8composer4V2_120BpHwComposerCallbackC1ERKNS_2spINS0_7IBinderEEE"
  }
  mangled_function_name: "_ZN7android8hardware8graphics8composer4V2_120BpHwComposerCallbackC1ERKNS_2spINS0_7IBinderEEE"
  source_file: "/out/soong/.intermediates/hardware/interfaces/graphics/composer/2.1/android.hardware.graphics.composer@2.1_genc++_headers/gen/android/hardware/graphics/composer/2.1/BpHwComposerCallback.h"
  parameters {
    basic_abi {
      type_abi {
        name: "const android::sp<android::hardware::IBinder> &"
      }
      name: "_hidl_impl"
      access: public_access
      linker_set_key: "false"
    }
    default_arg: false
  }
}
functions {
  basic_abi {
    type_abi {
      name: "android::hardware::Return<void>"
    }
    name: "android::hardware::graphics::composer::V2_1::BpHwComposerCallback::_hidl_onHotplug"
    access: public_access
    linker_set_key: "_ZN7android8hardware8graphics8composer4V2_120BpHwComposerCallback15_hidl_onHotplugEPNS0_10IInterfaceEPNS0_7details16HidlInstrumentorEyNS3_17IComposerCallback10ConnectionE"
  }
  mangled_function_name: "_ZN7android8hardware8graphics8composer4V2_120BpHwComposerCallback15_hidl_onHotplugEPNS0_10IInterfaceEPNS0_7details16HidlInstrumentorEyNS3_17IComposerCallback10ConnectionE"
  source_file: "/out/soong/.intermediates/hardware/interfaces/graphics/composer/2.1/android.hardware.graphics.composer@2.1_genc++_headers/gen/android/hardware/graphics/composer/2.1/BpHwComposerCallback.h"
  parameters {
    basic_abi {
      type_abi {
        name: "android::hardware::IInterface *"
        size: 4
        alignment: 4
      }
      name: "_hidl_this"
      access: public_access
      linker_set_key: "false"
    }
    default_arg: false
  }
  parameters {
    basic_abi {
      type_abi {
        name: "android::hardware::details::HidlInstrumentor *"
        size: 4
        alignment: 4
      }
      name: "_hidl_this_instrumentor"
      access: public_access
      linker_set_key: "false"
    }
    default_arg: false
  }
  parameters {
    basic_abi {
      type_abi {
        name: "unsigned long long"
        size: 8
        alignment: 8
      }
      name: "display"
      access: public_access
      linker_set_key: "false"
    }
    default_arg: false
  }
  parameters {
    basic_abi {
      type_abi {
        name: "android::hardware::graphics::composer::V2_1::IComposerCallback::Connection"
      }
      name: "connected"
      access: public_access
      linker_set_key: "false"
    }
    default_arg: false
  }
}
functions {
  basic_abi {
    type_abi {
      name: "android::hardware::Return<void>"
    }
    name: "android::hardware::graphics::composer::V2_1::BpHwComposerCallback::_hidl_onRefresh"
    access: public_access
    linker_set_key: "_ZN7android8hardware8graphics8composer4V2_120BpHwComposerCallback15_hidl_onRefreshEPNS0_10IInterfaceEPNS0_7details16HidlInstrumentorEy"
  }
  mangled_function_name: "_ZN7android8hardware8graphics8composer4V2_120BpHwComposerCallback15_hidl_onRefreshEPNS0_10IInterfaceEPNS0_7details16HidlInstrumentorEy"
  source_file: "/out/soong/.intermediates/hardware/interfaces/graphics/composer/2.1/android.hardware.graphics.composer@2.1_genc++_headers/gen/android/hardware/graphics/composer/2.1/BpHwComposerCallback.h"
  parameters {
    basic_abi {
      type_abi {
        name: "android::hardware::IInterface *"
        size: 4
        alignment: 4
      }
      name: "_hidl_this"
      access: public_access
      linker_set_key: "false"
    }
    default_arg: false
  }
  parameters {
    basic_abi {
      type_abi {
        name: "android::hardware::details::HidlInstrumentor *"
        size: 4
        alignment: 4
      }
      name: "_hidl_this_instrumentor"
      access: public_access
      linker_set_key: "false"
    }
    default_arg: false
  }
  parameters {
    basic_abi {
      type_abi {
        name: "unsigned long long"
        size: 8
        alignment: 8
      }
      name: "display"
      access: public_access
      linker_set_key: "false"
    }
    default_arg: false
  }
}
functions {
  basic_abi {
    type_abi {
      name: "android::hardware::Return<void>"
    }
    name: "android::hardware::graphics::composer::V2_1::BpHwComposerCallback::_hidl_onVsync"
    access: public_access
    linker_set_key: "_ZN7android8hardware8graphics8composer4V2_120BpHwComposerCallback13_hidl_onVsyncEPNS0_10IInterfaceEPNS0_7details16HidlInstrumentorEyx"
  }
  mangled_function_name: "_ZN7android8hardware8graphics8composer4V2_120BpHwComposerCallback13_hidl_onVsyncEPNS0_10IInterfaceEPNS0_7details16HidlInstrumentorEyx"
  source_file: "/out/soong/.intermediates/hardware/interfaces/graphics/composer/2.1/android.hardware.graphics.composer@2.1_genc++_headers/gen/android/hardware/graphics/composer/2.1/BpHwComposerCallback.h"
  parameters {
    basic_abi {
      type_abi {
        name: "android::hardware::IInterface *"
        size: 4
        alignment: 4
      }
      name: "_hidl_this"
      access: public_access
      linker_set_key: "false"
    }
    default_arg: false
  }
  parameters {
    basic_abi {
      type_abi {
        name: "android::hardware::details::HidlInstrumentor *"
        size: 4
        alignment: 4
      }
      name: "_hidl_this_instrumentor"
      access: public_access
      linker_set_key: "false"
    }
    default_arg: false
  }
  parameters {
    basic_abi {
      type_abi {
        name: "unsigned long long"
        size: 8
        alignment: 8
      }
      name: "display"
      access: public_access
      linker_set_key: "false"
    }
    default_arg: false
  }
  parameters {
    basic_abi {
      type_abi {
        name: "long long"
        size: 8
        alignment: 8
      }
      name: "timestamp"
      access: public_access
      linker_set_key: "false"
    }
    default_arg: false
  }
}
functions {
  basic_abi {
    type_abi {
      name: "android::hardware::Return<void>"
    }
    name: "android::hardware::graphics::composer::V2_1::BpHwComposerCallback::onHotplug"
    access: public_access
    linker_set_key: "_ZN7android8hardware8graphics8composer4V2_120BpHwComposerCallback9onHotplugEyNS3_17IComposerCallback10ConnectionE"
  }
  mangled_function_name: "_ZN7android8hardware8graphics8composer4V2_120BpHwComposerCallback9onHotplugEyNS3_17IComposerCallback10ConnectionE"
  source_file: "/out/soong/.intermediates/hardware/interfaces/graphics/composer/2.1/android.hardware.graphics.composer@2.1_genc++_headers/gen/android/hardware/graphics/composer/2.1/BpHwComposerCallback.h"
  parameters {
    basic_abi {
      type_abi {
        name: "unsigned long long"
        size: 8
        alignment: 8
      }
      name: "display"
      access: public_access
      linker_set_key: "false"
    }
    default_arg: false
  }
  parameters {
    basic_abi {
      type_abi {
        name: "android::hardware::graphics::composer::V2_1::IComposerCallback::Connection"
      }
      name: "connected"
      access: public_access
      linker_set_key: "false"
    }
    default_arg: false
  }
}
functions {
  basic_abi {
    type_abi {
      name: "android::hardware::Return<void>"
    }
    name: "android::hardware::graphics::composer::V2_1::BpHwComposerCallback::onRefresh"
    access: public_access
    linker_set_key: "_ZN7android8hardware8graphics8composer4V2_120BpHwComposerCallback9onRefreshEy"
  }
  mangled_function_name: "_ZN7android8hardware8graphics8composer4V2_120BpHwComposerCallback9onRefreshEy"
  source_file: "/out/soong/.intermediates/hardware/interfaces/graphics/composer/2.1/android.hardware.graphics.composer@2.1_genc++_headers/gen/android/hardware/graphics/composer/2.1/BpHwComposerCallback.h"
  parameters {
    basic_abi {
      type_abi {
        name: "unsigned long long"
        size: 8
        alignment: 8
      }
      name: "display"
      access: public_access
      linker_set_key: "false"
    }
    default_arg: false
  }
}
functions {
  basic_abi {
    type_abi {
      name: "android::hardware::Return<void>"
    }
    name: "android::hardware::graphics::composer::V2_1::BpHwComposerCallback::onVsync"
    access: public_access
    linker_set_key: "_ZN7android8hardware8graphics8composer4V2_120BpHwComposerCallback7onVsyncEyx"
  }
  mangled_function_name: "_ZN7android8hardware8graphics8composer4V2_120BpHwComposerCallback7onVsyncEyx"
  source_file: "/out/soong/.intermediates/hardware/interfaces/graphics/composer/2.1/android.hardware.graphics.composer@2.1_genc++_headers/gen/android/hardware/graphics/composer/2.1/BpHwComposerCallback.h"
  parameters {
    basic_abi {
      type_abi {
        name: "unsigned long long"
        size: 8
        alignment: 8
      }
      name: "display"
      access: public_access
      linker_set_key: "false"
    }
    default_arg: false
  }
  parameters {
    basic_abi {
      type_abi {
        name: "long long"
        size: 8
        alignment: 8
      }
      name: "timestamp"
      access: public_access
      linker_set_key: "false"
    }
    default_arg: false
  }
}
functions {
  basic_abi {
    type_abi {
      name: "android::hardware::Return<void>"
    }
    name: "android::hardware::graphics::composer::V2_1::BpHwComposerCallback::interfaceChain"
    access: public_access
    linker_set_key: "_ZN7android8hardware8graphics8composer4V2_120BpHwComposerCallback14interfaceChainENSt3__18functionIFvRKNS0_8hidl_vecINS0_11hidl_stringEEEEEE"
  }
  mangled_function_name: "_ZN7android8hardware8graphics8composer4V2_120BpHwComposerCallback14interfaceChainENSt3__18functionIFvRKNS0_8hidl_vecINS0_11hidl_stringEEEEEE"
  source_file: "/out/soong/.intermediates/hardware/interfaces/graphics/composer/2.1/android.hardware.graphics.composer@2.1_genc++_headers/gen/android/hardware/graphics/composer/2.1/BpHwComposerCallback.h"
  parameters {
    basic_abi {
      type_abi {
        name: "std::function<void (const hidl_vec<hidl_string> &)>"
      }
      name: "_hidl_cb"
      access: public_access
      linker_set_key: "false"
    }
    default_arg: false
  }
}
functions {
  basic_abi {
    type_abi {
      name: "android::hardware::Return<void>"
    }
    name: "android::hardware::graphics::composer::V2_1::BpHwComposerCallback::debug"
    access: public_access
    linker_set_key: "_ZN7android8hardware8graphics8composer4V2_120BpHwComposerCallback5debugERKNS0_11hidl_handleERKNS0_8hidl_vecINS0_11hidl_stringEEE"
  }
  mangled_function_name: "_ZN7android8hardware8graphics8composer4V2_120BpHwComposerCallback5debugERKNS0_11hidl_handleERKNS0_8hidl_vecINS0_11hidl_stringEEE"
  source_file: "/out/soong/.intermediates/hardware/interfaces/graphics/composer/2.1/android.hardware.graphics.composer@2.1_genc++_headers/gen/android/hardware/graphics/composer/2.1/BpHwComposerCallback.h"
  parameters {
    basic_abi {
      type_abi {
        name: "const android::hardware::hidl_handle &"
      }
      name: "fd"
      access: public_access
      linker_set_key: "false"
    }
    default_arg: false
  }
  parameters {
    basic_abi {
      type_abi {
        name: "const android::hardware::hidl_vec<android::hardware::hidl_string> &"
      }
      name: "options"
      access: public_access
      linker_set_key: "false"
    }
    default_arg: false
  }
}
functions {
  basic_abi {
    type_abi {
      name: "android::hardware::Return<void>"
    }
    name: "android::hardware::graphics::composer::V2_1::BpHwComposerCallback::interfaceDescriptor"
    access: public_access
    linker_set_key: "_ZN7android8hardware8graphics8composer4V2_120BpHwComposerCallback19interfaceDescriptorENSt3__18functionIFvRKNS0_11hidl_stringEEEE"
  }
  mangled_function_name: "_ZN7android8hardware8graphics8composer4V2_120BpHwComposerCallback19interfaceDescriptorENSt3__18functionIFvRKNS0_11hidl_stringEEEE"
  source_file: "/out/soong/.intermediates/hardware/interfaces/graphics/composer/2.1/android.hardware.graphics.composer@2.1_genc++_headers/gen/android/hardware/graphics/composer/2.1/BpHwComposerCallback.h"
  parameters {
    basic_abi {
      type_abi {
        name: "std::function<void (const hidl_string &)>"
      }
      name: "_hidl_cb"
      access: public_access
      linker_set_key: "false"
    }
    default_arg: false
  }
}
functions {
  basic_abi {
    type_abi {
      name: "android::hardware::Return<void>"
    }
    name: "android::hardware::graphics::composer::V2_1::BpHwComposerCallback::getHashChain"
    access: public_access
    linker_set_key: "_ZN7android8hardware8graphics8composer4V2_120BpHwComposerCallback12getHashChainENSt3__18functionIFvRKNS0_8hidl_vecINS0_10hidl_arrayIhLj32EJEEEEEEEE"
  }
  mangled_function_name: "_ZN7android8hardware8graphics8composer4V2_120BpHwComposerCallback12getHashChainENSt3__18functionIFvRKNS0_8hidl_vecINS0_10hidl_arrayIhLj32EJEEEEEEEE"
  source_file: "/out/soong/.intermediates/hardware/interfaces/graphics/composer/2.1/android.hardware.graphics.composer@2.1_genc++_headers/gen/android/hardware/graphics/composer/2.1/BpHwComposerCallback.h"
  parameters {
    basic_abi {
      type_abi {
        name: "std::function<void (const hidl_vec<hidl_array<unsigned char, 32> > &)>"
      }
      name: "_hidl_cb"
      access: public_access
      linker_set_key: "false"
    }
    default_arg: false
  }
}
functions {
  basic_abi {
    type_abi {
      name: "android::hardware::Return<void>"
    }
    name: "android::hardware::graphics::composer::V2_1::BpHwComposerCallback::setHALInstrumentation"
    access: public_access
    linker_set_key: "_ZN7android8hardware8graphics8composer4V2_120BpHwComposerCallback21setHALInstrumentationEv"
  }
  mangled_function_name: "_ZN7android8hardware8graphics8composer4V2_120BpHwComposerCallback21setHALInstrumentationEv"
  source_file: "/out/soong/.intermediates/hardware/interfaces/graphics/composer/2.1/android.hardware.graphics.composer@2.1_genc++_headers/gen/android/hardware/graphics/composer/2.1/BpHwComposerCallback.h"
}
functions {
  basic_abi {
    type_abi {
      name: "android::hardware::Return<bool>"
    }
    name: "android::hardware::graphics::composer::V2_1::BpHwComposerCallback::linkToDeath"
    access: public_access
    linker_set_key: "_ZN7android8hardware8graphics8composer4V2_120BpHwComposerCallback11linkToDeathERKNS_2spINS0_20hidl_death_recipientEEEy"
  }
  mangled_function_name: "_ZN7android8hardware8graphics8composer4V2_120BpHwComposerCallback11linkToDeathERKNS_2spINS0_20hidl_death_recipientEEEy"
  source_file: "/out/soong/.intermediates/hardware/interfaces/graphics/composer/2.1/android.hardware.graphics.composer@2.1_genc++_headers/gen/android/hardware/graphics/composer/2.1/BpHwComposerCallback.h"
  parameters {
    basic_abi {
      type_abi {
        name: "const android::sp<android::hardware::hidl_death_recipient> &"
      }
      name: "recipient"
      access: public_access
      linker_set_key: "false"
    }
    default_arg: false
  }
  parameters {
    basic_abi {
      type_abi {
        name: "unsigned long long"
        size: 8
        alignment: 8
      }
      name: "cookie"
      access: public_access
      linker_set_key: "false"
    }
    default_arg: false
  }
}
functions {
  basic_abi {
    type_abi {
      name: "android::hardware::Return<void>"
    }
    name: "android::hardware::graphics::composer::V2_1::BpHwComposerCallback::ping"
    access: public_access
    linker_set_key: "_ZN7android8hardware8graphics8composer4V2_120BpHwComposerCallback4pingEv"
  }
  mangled_function_name: "_ZN7android8hardware8graphics8composer4V2_120BpHwComposerCallback4pingEv"
  source_file: "/out/soong/.intermediates/hardware/interfaces/graphics/composer/2.1/android.hardware.graphics.composer@2.1_genc++_headers/gen/android/hardware/graphics/composer/2.1/BpHwComposerCallback.h"
}
functions {
  basic_abi {
    type_abi {
      name: "android::hardware::Return<void>"
    }
    name: "android::hardware::graphics::composer::V2_1::BpHwComposerCallback::getDebugInfo"
    access: public_access
    linker_set_key: "_ZN7android8hardware8graphics8composer4V2_120BpHwComposerCallback12getDebugInfoENSt3__18functionIFvRKNS_4hidl4base4V1_09DebugInfoEEEE"
  }
  mangled_function_name: "_ZN7android8hardware8graphics8composer4V2_120BpHwComposerCallback12getDebugInfoENSt3__18functionIFvRKNS_4hidl4base4V1_09DebugInfoEEEE"
  source_file: "/out/soong/.intermediates/hardware/interfaces/graphics/composer/2.1/android.hardware.graphics.composer@2.1_genc++_headers/gen/android/hardware/graphics/composer/2.1/BpHwComposerCallback.h"
  parameters {
    basic_abi {
      type_abi {
        name: "std::function<void (const DebugInfo &)>"
      }
      name: "_hidl_cb"
      access: public_access
      linker_set_key: "false"
    }
    default_arg: false
  }
}
functions {
  basic_abi {
    type_abi {
      name: "android::hardware::Return<void>"
    }
    name: "android::hardware::graphics::composer::V2_1::BpHwComposerCallback::notifySyspropsChanged"
    access: public_access
    linker_set_key: "_ZN7android8hardware8graphics8composer4V2_120BpHwComposerCallback21notifySyspropsChangedEv"
  }
  mangled_function_name: "_ZN7android8hardware8graphics8composer4V2_120BpHwComposerCallback21notifySyspropsChangedEv"
  source_file: "/out/soong/.intermediates/hardware/interfaces/graphics/composer/2.1/android.hardware.graphics.composer@2.1_genc++_headers/gen/android/hardware/graphics/composer/2.1/BpHwComposerCallback.h"
}
functions {
  basic_abi {
    type_abi {
      name: "android::hardware::Return<bool>"
    }
    name: "android::hardware::graphics::composer::V2_1::BpHwComposerCallback::unlinkToDeath"
    access: public_access
    linker_set_key: "_ZN7android8hardware8graphics8composer4V2_120BpHwComposerCallback13unlinkToDeathERKNS_2spINS0_20hidl_death_recipientEEE"
  }
  mangled_function_name: "_ZN7android8hardware8graphics8composer4V2_120BpHwComposerCallback13unlinkToDeathERKNS_2spINS0_20hidl_death_recipientEEE"
  source_file: "/out/soong/.intermediates/hardware/interfaces/graphics/composer/2.1/android.hardware.graphics.composer@2.1_genc++_headers/gen/android/hardware/graphics/composer/2.1/BpHwComposerCallback.h"
  parameters {
    basic_abi {
      type_abi {
        name: "const android::sp<android::hardware::hidl_death_recipient> &"
      }
      name: "recipient"
      access: public_access
      linker_set_key: "false"
    }
    default_arg: false
  }
}
functions {
  basic_abi {
    type_abi {
      name: "void"
    }
    name: "android::hardware::graphics::composer::V2_1::BnHwComposerClient::BnHwComposerClient"
    access: public_access
    linker_set_key: "_ZN7android8hardware8graphics8composer4V2_118BnHwComposerClientC2ERKNS_2spINS3_15IComposerClientEEE"
  }
  mangled_function_name: "_ZN7android8hardware8graphics8composer4V2_118BnHwComposerClientC2ERKNS_2spINS3_15IComposerClientEEE"
  source_file: "/out/soong/.intermediates/hardware/interfaces/graphics/composer/2.1/android.hardware.graphics.composer@2.1_genc++_headers/gen/android/hardware/graphics/composer/2.1/BnHwComposerClient.h"
  parameters {
    basic_abi {
      type_abi {
        name: "const android::sp<android::hardware::graphics::composer::V2_1::IComposerClient> &"
      }
      name: "_hidl_impl"
      access: public_access
      linker_set_key: "false"
    }
    default_arg: false
  }
}
functions {
  basic_abi {
    type_abi {
      name: "void"
    }
    name: "android::hardware::graphics::composer::V2_1::BnHwComposerClient::BnHwComposerClient"
    access: public_access
    linker_set_key: "_ZN7android8hardware8graphics8composer4V2_118BnHwComposerClientC1ERKNS_2spINS3_15IComposerClientEEE"
  }
  mangled_function_name: "_ZN7android8hardware8graphics8composer4V2_118BnHwComposerClientC1ERKNS_2spINS3_15IComposerClientEEE"
  source_file: "/out/soong/.intermediates/hardware/interfaces/graphics/composer/2.1/android.hardware.graphics.composer@2.1_genc++_headers/gen/android/hardware/graphics/composer/2.1/BnHwComposerClient.h"
  parameters {
    basic_abi {
      type_abi {
        name: "const android::sp<android::hardware::graphics::composer::V2_1::IComposerClient> &"
      }
      name: "_hidl_impl"
      access: public_access
      linker_set_key: "false"
    }
    default_arg: false
  }
}
functions {
  basic_abi {
    type_abi {
      name: "void"
    }
    name: "android::hardware::graphics::composer::V2_1::BnHwComposerClient::~BnHwComposerClient"
    access: public_access
    linker_set_key: "_ZN7android8hardware8graphics8composer4V2_118BnHwComposerClientD2Ev"
  }
  mangled_function_name: "_ZN7android8hardware8graphics8composer4V2_118BnHwComposerClientD2Ev"
  source_file: "/out/soong/.intermediates/hardware/interfaces/graphics/composer/2.1/android.hardware.graphics.composer@2.1_genc++_headers/gen/android/hardware/graphics/composer/2.1/BnHwComposerClient.h"
}
functions {
  basic_abi {
    type_abi {
      name: "void"
    }
    name: "android::hardware::graphics::composer::V2_1::BnHwComposerClient::~BnHwComposerClient"
    access: public_access
    linker_set_key: "_ZN7android8hardware8graphics8composer4V2_118BnHwComposerClientD1Ev"
  }
  mangled_function_name: "_ZN7android8hardware8graphics8composer4V2_118BnHwComposerClientD1Ev"
  source_file: "/out/soong/.intermediates/hardware/interfaces/graphics/composer/2.1/android.hardware.graphics.composer@2.1_genc++_headers/gen/android/hardware/graphics/composer/2.1/BnHwComposerClient.h"
}
functions {
  basic_abi {
    type_abi {
      name: "void"
    }
    name: "android::hardware::graphics::composer::V2_1::BnHwComposerClient::~BnHwComposerClient"
    access: public_access
    linker_set_key: "_ZN7android8hardware8graphics8composer4V2_118BnHwComposerClientD0Ev"
  }
  mangled_function_name: "_ZN7android8hardware8graphics8composer4V2_118BnHwComposerClientD0Ev"
  source_file: "/out/soong/.intermediates/hardware/interfaces/graphics/composer/2.1/android.hardware.graphics.composer@2.1_genc++_headers/gen/android/hardware/graphics/composer/2.1/BnHwComposerClient.h"
}
functions {
  basic_abi {
    type_abi {
      name: "int"
      size: 4
      alignment: 4
    }
    name: "android::hardware::graphics::composer::V2_1::BnHwComposerClient::onTransact"
    access: public_access
    linker_set_key: "_ZN7android8hardware8graphics8composer4V2_118BnHwComposerClient10onTransactEjRKNS0_6ParcelEPS5_jNSt3__18functionIFvRS5_EEE"
  }
  mangled_function_name: "_ZN7android8hardware8graphics8composer4V2_118BnHwComposerClient10onTransactEjRKNS0_6ParcelEPS5_jNSt3__18functionIFvRS5_EEE"
  source_file: "/out/soong/.intermediates/hardware/interfaces/graphics/composer/2.1/android.hardware.graphics.composer@2.1_genc++_headers/gen/android/hardware/graphics/composer/2.1/BnHwComposerClient.h"
  parameters {
    basic_abi {
      type_abi {
        name: "unsigned int"
        size: 4
        alignment: 4
      }
      name: "_hidl_code"
      access: public_access
      linker_set_key: "false"
    }
    default_arg: false
  }
  parameters {
    basic_abi {
      type_abi {
        name: "const android::hardware::Parcel &"
      }
      name: "_hidl_data"
      access: public_access
      linker_set_key: "false"
    }
    default_arg: false
  }
  parameters {
    basic_abi {
      type_abi {
        name: "android::hardware::Parcel *"
        size: 4
        alignment: 4
      }
      name: "_hidl_reply"
      access: public_access
      linker_set_key: "false"
    }
    default_arg: false
  }
  parameters {
    basic_abi {
      type_abi {
        name: "unsigned int"
        size: 4
        alignment: 4
      }
      name: "_hidl_flags"
      access: public_access
      linker_set_key: "true"
    }
    default_arg: true
  }
  parameters {
    basic_abi {
      type_abi {
        name: "std::function<void (Parcel &)>"
      }
      name: "_hidl_cb"
      access: public_access
      linker_set_key: "true"
    }
    default_arg: true
  }
}
functions {
  basic_abi {
    type_abi {
      name: "int"
      size: 4
      alignment: 4
    }
    name: "android::hardware::graphics::composer::V2_1::BnHwComposerClient::_hidl_registerCallback"
    access: public_access
    linker_set_key: "_ZN7android8hardware8graphics8composer4V2_118BnHwComposerClient22_hidl_registerCallbackEPNS_4hidl4base4V1_08BnHwBaseERKNS0_6ParcelEPSA_NSt3__18functionIFvRSA_EEE"
  }
  mangled_function_name: "_ZN7android8hardware8graphics8composer4V2_118BnHwComposerClient22_hidl_registerCallbackEPNS_4hidl4base4V1_08BnHwBaseERKNS0_6ParcelEPSA_NSt3__18functionIFvRSA_EEE"
  source_file: "/out/soong/.intermediates/hardware/interfaces/graphics/composer/2.1/android.hardware.graphics.composer@2.1_genc++_headers/gen/android/hardware/graphics/composer/2.1/BnHwComposerClient.h"
  parameters {
    basic_abi {
      type_abi {
        name: "android::hidl::base::V1_0::BnHwBase *"
        size: 4
        alignment: 4
      }
      name: "_hidl_this"
      access: public_access
      linker_set_key: "false"
    }
    default_arg: false
  }
  parameters {
    basic_abi {
      type_abi {
        name: "const android::hardware::Parcel &"
      }
      name: "_hidl_data"
      access: public_access
      linker_set_key: "false"
    }
    default_arg: false
  }
  parameters {
    basic_abi {
      type_abi {
        name: "android::hardware::Parcel *"
        size: 4
        alignment: 4
      }
      name: "_hidl_reply"
      access: public_access
      linker_set_key: "false"
    }
    default_arg: false
  }
  parameters {
    basic_abi {
      type_abi {
        name: "std::function<void (Parcel &)>"
      }
      name: "_hidl_cb"
      access: public_access
      linker_set_key: "false"
    }
    default_arg: false
  }
}
functions {
  basic_abi {
    type_abi {
      name: "int"
      size: 4
      alignment: 4
    }
    name: "android::hardware::graphics::composer::V2_1::BnHwComposerClient::_hidl_getMaxVirtualDisplayCount"
    access: public_access
    linker_set_key: "_ZN7android8hardware8graphics8composer4V2_118BnHwComposerClient31_hidl_getMaxVirtualDisplayCountEPNS_4hidl4base4V1_08BnHwBaseERKNS0_6ParcelEPSA_NSt3__18functionIFvRSA_EEE"
  }
  mangled_function_name: "_ZN7android8hardware8graphics8composer4V2_118BnHwComposerClient31_hidl_getMaxVirtualDisplayCountEPNS_4hidl4base4V1_08BnHwBaseERKNS0_6ParcelEPSA_NSt3__18functionIFvRSA_EEE"
  source_file: "/out/soong/.intermediates/hardware/interfaces/graphics/composer/2.1/android.hardware.graphics.composer@2.1_genc++_headers/gen/android/hardware/graphics/composer/2.1/BnHwComposerClient.h"
  parameters {
    basic_abi {
      type_abi {
        name: "android::hidl::base::V1_0::BnHwBase *"
        size: 4
        alignment: 4
      }
      name: "_hidl_this"
      access: public_access
      linker_set_key: "false"
    }
    default_arg: false
  }
  parameters {
    basic_abi {
      type_abi {
        name: "const android::hardware::Parcel &"
      }
      name: "_hidl_data"
      access: public_access
      linker_set_key: "false"
    }
    default_arg: false
  }
  parameters {
    basic_abi {
      type_abi {
        name: "android::hardware::Parcel *"
        size: 4
        alignment: 4
      }
      name: "_hidl_reply"
      access: public_access
      linker_set_key: "false"
    }
    default_arg: false
  }
  parameters {
    basic_abi {
      type_abi {
        name: "std::function<void (Parcel &)>"
      }
      name: "_hidl_cb"
      access: public_access
      linker_set_key: "false"
    }
    default_arg: false
  }
}
functions {
  basic_abi {
    type_abi {
      name: "int"
      size: 4
      alignment: 4
    }
    name: "android::hardware::graphics::composer::V2_1::BnHwComposerClient::_hidl_createVirtualDisplay"
    access: public_access
    linker_set_key: "_ZN7android8hardware8graphics8composer4V2_118BnHwComposerClient26_hidl_createVirtualDisplayEPNS_4hidl4base4V1_08BnHwBaseERKNS0_6ParcelEPSA_NSt3__18functionIFvRSA_EEE"
  }
  mangled_function_name: "_ZN7android8hardware8graphics8composer4V2_118BnHwComposerClient26_hidl_createVirtualDisplayEPNS_4hidl4base4V1_08BnHwBaseERKNS0_6ParcelEPSA_NSt3__18functionIFvRSA_EEE"
  source_file: "/out/soong/.intermediates/hardware/interfaces/graphics/composer/2.1/android.hardware.graphics.composer@2.1_genc++_headers/gen/android/hardware/graphics/composer/2.1/BnHwComposerClient.h"
  parameters {
    basic_abi {
      type_abi {
        name: "android::hidl::base::V1_0::BnHwBase *"
        size: 4
        alignment: 4
      }
      name: "_hidl_this"
      access: public_access
      linker_set_key: "false"
    }
    default_arg: false
  }
  parameters {
    basic_abi {
      type_abi {
        name: "const android::hardware::Parcel &"
      }
      name: "_hidl_data"
      access: public_access
      linker_set_key: "false"
    }
    default_arg: false
  }
  parameters {
    basic_abi {
      type_abi {
        name: "android::hardware::Parcel *"
        size: 4
        alignment: 4
      }
      name: "_hidl_reply"
      access: public_access
      linker_set_key: "false"
    }
    default_arg: false
  }
  parameters {
    basic_abi {
      type_abi {
        name: "std::function<void (Parcel &)>"
      }
      name: "_hidl_cb"
      access: public_access
      linker_set_key: "false"
    }
    default_arg: false
  }
}
functions {
  basic_abi {
    type_abi {
      name: "int"
      size: 4
      alignment: 4
    }
    name: "android::hardware::graphics::composer::V2_1::BnHwComposerClient::_hidl_destroyVirtualDisplay"
    access: public_access
    linker_set_key: "_ZN7android8hardware8graphics8composer4V2_118BnHwComposerClient27_hidl_destroyVirtualDisplayEPNS_4hidl4base4V1_08BnHwBaseERKNS0_6ParcelEPSA_NSt3__18functionIFvRSA_EEE"
  }
  mangled_function_name: "_ZN7android8hardware8graphics8composer4V2_118BnHwComposerClient27_hidl_destroyVirtualDisplayEPNS_4hidl4base4V1_08BnHwBaseERKNS0_6ParcelEPSA_NSt3__18functionIFvRSA_EEE"
  source_file: "/out/soong/.intermediates/hardware/interfaces/graphics/composer/2.1/android.hardware.graphics.composer@2.1_genc++_headers/gen/android/hardware/graphics/composer/2.1/BnHwComposerClient.h"
  parameters {
    basic_abi {
      type_abi {
        name: "android::hidl::base::V1_0::BnHwBase *"
        size: 4
        alignment: 4
      }
      name: "_hidl_this"
      access: public_access
      linker_set_key: "false"
    }
    default_arg: false
  }
  parameters {
    basic_abi {
      type_abi {
        name: "const android::hardware::Parcel &"
      }
      name: "_hidl_data"
      access: public_access
      linker_set_key: "false"
    }
    default_arg: false
  }
  parameters {
    basic_abi {
      type_abi {
        name: "android::hardware::Parcel *"
        size: 4
        alignment: 4
      }
      name: "_hidl_reply"
      access: public_access
      linker_set_key: "false"
    }
    default_arg: false
  }
  parameters {
    basic_abi {
      type_abi {
        name: "std::function<void (Parcel &)>"
      }
      name: "_hidl_cb"
      access: public_access
      linker_set_key: "false"
    }
    default_arg: false
  }
}
functions {
  basic_abi {
    type_abi {
      name: "int"
      size: 4
      alignment: 4
    }
    name: "android::hardware::graphics::composer::V2_1::BnHwComposerClient::_hidl_createLayer"
    access: public_access
    linker_set_key: "_ZN7android8hardware8graphics8composer4V2_118BnHwComposerClient17_hidl_createLayerEPNS_4hidl4base4V1_08BnHwBaseERKNS0_6ParcelEPSA_NSt3__18functionIFvRSA_EEE"
  }
  mangled_function_name: "_ZN7android8hardware8graphics8composer4V2_118BnHwComposerClient17_hidl_createLayerEPNS_4hidl4base4V1_08BnHwBaseERKNS0_6ParcelEPSA_NSt3__18functionIFvRSA_EEE"
  source_file: "/out/soong/.intermediates/hardware/interfaces/graphics/composer/2.1/android.hardware.graphics.composer@2.1_genc++_headers/gen/android/hardware/graphics/composer/2.1/BnHwComposerClient.h"
  parameters {
    basic_abi {
      type_abi {
        name: "android::hidl::base::V1_0::BnHwBase *"
        size: 4
        alignment: 4
      }
      name: "_hidl_this"
      access: public_access
      linker_set_key: "false"
    }
    default_arg: false
  }
  parameters {
    basic_abi {
      type_abi {
        name: "const android::hardware::Parcel &"
      }
      name: "_hidl_data"
      access: public_access
      linker_set_key: "false"
    }
    default_arg: false
  }
  parameters {
    basic_abi {
      type_abi {
        name: "android::hardware::Parcel *"
        size: 4
        alignment: 4
      }
      name: "_hidl_reply"
      access: public_access
      linker_set_key: "false"
    }
    default_arg: false
  }
  parameters {
    basic_abi {
      type_abi {
        name: "std::function<void (Parcel &)>"
      }
      name: "_hidl_cb"
      access: public_access
      linker_set_key: "false"
    }
    default_arg: false
  }
}
functions {
  basic_abi {
    type_abi {
      name: "int"
      size: 4
      alignment: 4
    }
    name: "android::hardware::graphics::composer::V2_1::BnHwComposerClient::_hidl_destroyLayer"
    access: public_access
    linker_set_key: "_ZN7android8hardware8graphics8composer4V2_118BnHwComposerClient18_hidl_destroyLayerEPNS_4hidl4base4V1_08BnHwBaseERKNS0_6ParcelEPSA_NSt3__18functionIFvRSA_EEE"
  }
  mangled_function_name: "_ZN7android8hardware8graphics8composer4V2_118BnHwComposerClient18_hidl_destroyLayerEPNS_4hidl4base4V1_08BnHwBaseERKNS0_6ParcelEPSA_NSt3__18functionIFvRSA_EEE"
  source_file: "/out/soong/.intermediates/hardware/interfaces/graphics/composer/2.1/android.hardware.graphics.composer@2.1_genc++_headers/gen/android/hardware/graphics/composer/2.1/BnHwComposerClient.h"
  parameters {
    basic_abi {
      type_abi {
        name: "android::hidl::base::V1_0::BnHwBase *"
        size: 4
        alignment: 4
      }
      name: "_hidl_this"
      access: public_access
      linker_set_key: "false"
    }
    default_arg: false
  }
  parameters {
    basic_abi {
      type_abi {
        name: "const android::hardware::Parcel &"
      }
      name: "_hidl_data"
      access: public_access
      linker_set_key: "false"
    }
    default_arg: false
  }
  parameters {
    basic_abi {
      type_abi {
        name: "android::hardware::Parcel *"
        size: 4
        alignment: 4
      }
      name: "_hidl_reply"
      access: public_access
      linker_set_key: "false"
    }
    default_arg: false
  }
  parameters {
    basic_abi {
      type_abi {
        name: "std::function<void (Parcel &)>"
      }
      name: "_hidl_cb"
      access: public_access
      linker_set_key: "false"
    }
    default_arg: false
  }
}
functions {
  basic_abi {
    type_abi {
      name: "int"
      size: 4
      alignment: 4
    }
    name: "android::hardware::graphics::composer::V2_1::BnHwComposerClient::_hidl_getActiveConfig"
    access: public_access
    linker_set_key: "_ZN7android8hardware8graphics8composer4V2_118BnHwComposerClient21_hidl_getActiveConfigEPNS_4hidl4base4V1_08BnHwBaseERKNS0_6ParcelEPSA_NSt3__18functionIFvRSA_EEE"
  }
  mangled_function_name: "_ZN7android8hardware8graphics8composer4V2_118BnHwComposerClient21_hidl_getActiveConfigEPNS_4hidl4base4V1_08BnHwBaseERKNS0_6ParcelEPSA_NSt3__18functionIFvRSA_EEE"
  source_file: "/out/soong/.intermediates/hardware/interfaces/graphics/composer/2.1/android.hardware.graphics.composer@2.1_genc++_headers/gen/android/hardware/graphics/composer/2.1/BnHwComposerClient.h"
  parameters {
    basic_abi {
      type_abi {
        name: "android::hidl::base::V1_0::BnHwBase *"
        size: 4
        alignment: 4
      }
      name: "_hidl_this"
      access: public_access
      linker_set_key: "false"
    }
    default_arg: false
  }
  parameters {
    basic_abi {
      type_abi {
        name: "const android::hardware::Parcel &"
      }
      name: "_hidl_data"
      access: public_access
      linker_set_key: "false"
    }
    default_arg: false
  }
  parameters {
    basic_abi {
      type_abi {
        name: "android::hardware::Parcel *"
        size: 4
        alignment: 4
      }
      name: "_hidl_reply"
      access: public_access
      linker_set_key: "false"
    }
    default_arg: false
  }
  parameters {
    basic_abi {
      type_abi {
        name: "std::function<void (Parcel &)>"
      }
      name: "_hidl_cb"
      access: public_access
      linker_set_key: "false"
    }
    default_arg: false
  }
}
functions {
  basic_abi {
    type_abi {
      name: "int"
      size: 4
      alignment: 4
    }
    name: "android::hardware::graphics::composer::V2_1::BnHwComposerClient::_hidl_getClientTargetSupport"
    access: public_access
    linker_set_key: "_ZN7android8hardware8graphics8composer4V2_118BnHwComposerClient28_hidl_getClientTargetSupportEPNS_4hidl4base4V1_08BnHwBaseERKNS0_6ParcelEPSA_NSt3__18functionIFvRSA_EEE"
  }
  mangled_function_name: "_ZN7android8hardware8graphics8composer4V2_118BnHwComposerClient28_hidl_getClientTargetSupportEPNS_4hidl4base4V1_08BnHwBaseERKNS0_6ParcelEPSA_NSt3__18functionIFvRSA_EEE"
  source_file: "/out/soong/.intermediates/hardware/interfaces/graphics/composer/2.1/android.hardware.graphics.composer@2.1_genc++_headers/gen/android/hardware/graphics/composer/2.1/BnHwComposerClient.h"
  parameters {
    basic_abi {
      type_abi {
        name: "android::hidl::base::V1_0::BnHwBase *"
        size: 4
        alignment: 4
      }
      name: "_hidl_this"
      access: public_access
      linker_set_key: "false"
    }
    default_arg: false
  }
  parameters {
    basic_abi {
      type_abi {
        name: "const android::hardware::Parcel &"
      }
      name: "_hidl_data"
      access: public_access
      linker_set_key: "false"
    }
    default_arg: false
  }
  parameters {
    basic_abi {
      type_abi {
        name: "android::hardware::Parcel *"
        size: 4
        alignment: 4
      }
      name: "_hidl_reply"
      access: public_access
      linker_set_key: "false"
    }
    default_arg: false
  }
  parameters {
    basic_abi {
      type_abi {
        name: "std::function<void (Parcel &)>"
      }
      name: "_hidl_cb"
      access: public_access
      linker_set_key: "false"
    }
    default_arg: false
  }
}
functions {
  basic_abi {
    type_abi {
      name: "int"
      size: 4
      alignment: 4
    }
    name: "android::hardware::graphics::composer::V2_1::BnHwComposerClient::_hidl_getColorModes"
    access: public_access
    linker_set_key: "_ZN7android8hardware8graphics8composer4V2_118BnHwComposerClient19_hidl_getColorModesEPNS_4hidl4base4V1_08BnHwBaseERKNS0_6ParcelEPSA_NSt3__18functionIFvRSA_EEE"
  }
  mangled_function_name: "_ZN7android8hardware8graphics8composer4V2_118BnHwComposerClient19_hidl_getColorModesEPNS_4hidl4base4V1_08BnHwBaseERKNS0_6ParcelEPSA_NSt3__18functionIFvRSA_EEE"
  source_file: "/out/soong/.intermediates/hardware/interfaces/graphics/composer/2.1/android.hardware.graphics.composer@2.1_genc++_headers/gen/android/hardware/graphics/composer/2.1/BnHwComposerClient.h"
  parameters {
    basic_abi {
      type_abi {
        name: "android::hidl::base::V1_0::BnHwBase *"
        size: 4
        alignment: 4
      }
      name: "_hidl_this"
      access: public_access
      linker_set_key: "false"
    }
    default_arg: false
  }
  parameters {
    basic_abi {
      type_abi {
        name: "const android::hardware::Parcel &"
      }
      name: "_hidl_data"
      access: public_access
      linker_set_key: "false"
    }
    default_arg: false
  }
  parameters {
    basic_abi {
      type_abi {
        name: "android::hardware::Parcel *"
        size: 4
        alignment: 4
      }
      name: "_hidl_reply"
      access: public_access
      linker_set_key: "false"
    }
    default_arg: false
  }
  parameters {
    basic_abi {
      type_abi {
        name: "std::function<void (Parcel &)>"
      }
      name: "_hidl_cb"
      access: public_access
      linker_set_key: "false"
    }
    default_arg: false
  }
}
functions {
  basic_abi {
    type_abi {
      name: "int"
      size: 4
      alignment: 4
    }
    name: "android::hardware::graphics::composer::V2_1::BnHwComposerClient::_hidl_getDisplayAttribute"
    access: public_access
    linker_set_key: "_ZN7android8hardware8graphics8composer4V2_118BnHwComposerClient25_hidl_getDisplayAttributeEPNS_4hidl4base4V1_08BnHwBaseERKNS0_6ParcelEPSA_NSt3__18functionIFvRSA_EEE"
  }
  mangled_function_name: "_ZN7android8hardware8graphics8composer4V2_118BnHwComposerClient25_hidl_getDisplayAttributeEPNS_4hidl4base4V1_08BnHwBaseERKNS0_6ParcelEPSA_NSt3__18functionIFvRSA_EEE"
  source_file: "/out/soong/.intermediates/hardware/interfaces/graphics/composer/2.1/android.hardware.graphics.composer@2.1_genc++_headers/gen/android/hardware/graphics/composer/2.1/BnHwComposerClient.h"
  parameters {
    basic_abi {
      type_abi {
        name: "android::hidl::base::V1_0::BnHwBase *"
        size: 4
        alignment: 4
      }
      name: "_hidl_this"
      access: public_access
      linker_set_key: "false"
    }
    default_arg: false
  }
  parameters {
    basic_abi {
      type_abi {
        name: "const android::hardware::Parcel &"
      }
      name: "_hidl_data"
      access: public_access
      linker_set_key: "false"
    }
    default_arg: false
  }
  parameters {
    basic_abi {
      type_abi {
        name: "android::hardware::Parcel *"
        size: 4
        alignment: 4
      }
      name: "_hidl_reply"
      access: public_access
      linker_set_key: "false"
    }
    default_arg: false
  }
  parameters {
    basic_abi {
      type_abi {
        name: "std::function<void (Parcel &)>"
      }
      name: "_hidl_cb"
      access: public_access
      linker_set_key: "false"
    }
    default_arg: false
  }
}
functions {
  basic_abi {
    type_abi {
      name: "int"
      size: 4
      alignment: 4
    }
    name: "android::hardware::graphics::composer::V2_1::BnHwComposerClient::_hidl_getDisplayConfigs"
    access: public_access
    linker_set_key: "_ZN7android8hardware8graphics8composer4V2_118BnHwComposerClient23_hidl_getDisplayConfigsEPNS_4hidl4base4V1_08BnHwBaseERKNS0_6ParcelEPSA_NSt3__18functionIFvRSA_EEE"
  }
  mangled_function_name: "_ZN7android8hardware8graphics8composer4V2_118BnHwComposerClient23_hidl_getDisplayConfigsEPNS_4hidl4base4V1_08BnHwBaseERKNS0_6ParcelEPSA_NSt3__18functionIFvRSA_EEE"
  source_file: "/out/soong/.intermediates/hardware/interfaces/graphics/composer/2.1/android.hardware.graphics.composer@2.1_genc++_headers/gen/android/hardware/graphics/composer/2.1/BnHwComposerClient.h"
  parameters {
    basic_abi {
      type_abi {
        name: "android::hidl::base::V1_0::BnHwBase *"
        size: 4
        alignment: 4
      }
      name: "_hidl_this"
      access: public_access
      linker_set_key: "false"
    }
    default_arg: false
  }
  parameters {
    basic_abi {
      type_abi {
        name: "const android::hardware::Parcel &"
      }
      name: "_hidl_data"
      access: public_access
      linker_set_key: "false"
    }
    default_arg: false
  }
  parameters {
    basic_abi {
      type_abi {
        name: "android::hardware::Parcel *"
        size: 4
        alignment: 4
      }
      name: "_hidl_reply"
      access: public_access
      linker_set_key: "false"
    }
    default_arg: false
  }
  parameters {
    basic_abi {
      type_abi {
        name: "std::function<void (Parcel &)>"
      }
      name: "_hidl_cb"
      access: public_access
      linker_set_key: "false"
    }
    default_arg: false
  }
}
functions {
  basic_abi {
    type_abi {
      name: "int"
      size: 4
      alignment: 4
    }
    name: "android::hardware::graphics::composer::V2_1::BnHwComposerClient::_hidl_getDisplayName"
    access: public_access
    linker_set_key: "_ZN7android8hardware8graphics8composer4V2_118BnHwComposerClient20_hidl_getDisplayNameEPNS_4hidl4base4V1_08BnHwBaseERKNS0_6ParcelEPSA_NSt3__18functionIFvRSA_EEE"
  }
  mangled_function_name: "_ZN7android8hardware8graphics8composer4V2_118BnHwComposerClient20_hidl_getDisplayNameEPNS_4hidl4base4V1_08BnHwBaseERKNS0_6ParcelEPSA_NSt3__18functionIFvRSA_EEE"
  source_file: "/out/soong/.intermediates/hardware/interfaces/graphics/composer/2.1/android.hardware.graphics.composer@2.1_genc++_headers/gen/android/hardware/graphics/composer/2.1/BnHwComposerClient.h"
  parameters {
    basic_abi {
      type_abi {
        name: "android::hidl::base::V1_0::BnHwBase *"
        size: 4
        alignment: 4
      }
      name: "_hidl_this"
      access: public_access
      linker_set_key: "false"
    }
    default_arg: false
  }
  parameters {
    basic_abi {
      type_abi {
        name: "const android::hardware::Parcel &"
      }
      name: "_hidl_data"
      access: public_access
      linker_set_key: "false"
    }
    default_arg: false
  }
  parameters {
    basic_abi {
      type_abi {
        name: "android::hardware::Parcel *"
        size: 4
        alignment: 4
      }
      name: "_hidl_reply"
      access: public_access
      linker_set_key: "false"
    }
    default_arg: false
  }
  parameters {
    basic_abi {
      type_abi {
        name: "std::function<void (Parcel &)>"
      }
      name: "_hidl_cb"
      access: public_access
      linker_set_key: "false"
    }
    default_arg: false
  }
}
functions {
  basic_abi {
    type_abi {
      name: "int"
      size: 4
      alignment: 4
    }
    name: "android::hardware::graphics::composer::V2_1::BnHwComposerClient::_hidl_getDisplayType"
    access: public_access
    linker_set_key: "_ZN7android8hardware8graphics8composer4V2_118BnHwComposerClient20_hidl_getDisplayTypeEPNS_4hidl4base4V1_08BnHwBaseERKNS0_6ParcelEPSA_NSt3__18functionIFvRSA_EEE"
  }
  mangled_function_name: "_ZN7android8hardware8graphics8composer4V2_118BnHwComposerClient20_hidl_getDisplayTypeEPNS_4hidl4base4V1_08BnHwBaseERKNS0_6ParcelEPSA_NSt3__18functionIFvRSA_EEE"
  source_file: "/out/soong/.intermediates/hardware/interfaces/graphics/composer/2.1/android.hardware.graphics.composer@2.1_genc++_headers/gen/android/hardware/graphics/composer/2.1/BnHwComposerClient.h"
  parameters {
    basic_abi {
      type_abi {
        name: "android::hidl::base::V1_0::BnHwBase *"
        size: 4
        alignment: 4
      }
      name: "_hidl_this"
      access: public_access
      linker_set_key: "false"
    }
    default_arg: false
  }
  parameters {
    basic_abi {
      type_abi {
        name: "const android::hardware::Parcel &"
      }
      name: "_hidl_data"
      access: public_access
      linker_set_key: "false"
    }
    default_arg: false
  }
  parameters {
    basic_abi {
      type_abi {
        name: "android::hardware::Parcel *"
        size: 4
        alignment: 4
      }
      name: "_hidl_reply"
      access: public_access
      linker_set_key: "false"
    }
    default_arg: false
  }
  parameters {
    basic_abi {
      type_abi {
        name: "std::function<void (Parcel &)>"
      }
      name: "_hidl_cb"
      access: public_access
      linker_set_key: "false"
    }
    default_arg: false
  }
}
functions {
  basic_abi {
    type_abi {
      name: "int"
      size: 4
      alignment: 4
    }
    name: "android::hardware::graphics::composer::V2_1::BnHwComposerClient::_hidl_getDozeSupport"
    access: public_access
    linker_set_key: "_ZN7android8hardware8graphics8composer4V2_118BnHwComposerClient20_hidl_getDozeSupportEPNS_4hidl4base4V1_08BnHwBaseERKNS0_6ParcelEPSA_NSt3__18functionIFvRSA_EEE"
  }
  mangled_function_name: "_ZN7android8hardware8graphics8composer4V2_118BnHwComposerClient20_hidl_getDozeSupportEPNS_4hidl4base4V1_08BnHwBaseERKNS0_6ParcelEPSA_NSt3__18functionIFvRSA_EEE"
  source_file: "/out/soong/.intermediates/hardware/interfaces/graphics/composer/2.1/android.hardware.graphics.composer@2.1_genc++_headers/gen/android/hardware/graphics/composer/2.1/BnHwComposerClient.h"
  parameters {
    basic_abi {
      type_abi {
        name: "android::hidl::base::V1_0::BnHwBase *"
        size: 4
        alignment: 4
      }
      name: "_hidl_this"
      access: public_access
      linker_set_key: "false"
    }
    default_arg: false
  }
  parameters {
    basic_abi {
      type_abi {
        name: "const android::hardware::Parcel &"
      }
      name: "_hidl_data"
      access: public_access
      linker_set_key: "false"
    }
    default_arg: false
  }
  parameters {
    basic_abi {
      type_abi {
        name: "android::hardware::Parcel *"
        size: 4
        alignment: 4
      }
      name: "_hidl_reply"
      access: public_access
      linker_set_key: "false"
    }
    default_arg: false
  }
  parameters {
    basic_abi {
      type_abi {
        name: "std::function<void (Parcel &)>"
      }
      name: "_hidl_cb"
      access: public_access
      linker_set_key: "false"
    }
    default_arg: false
  }
}
functions {
  basic_abi {
    type_abi {
      name: "int"
      size: 4
      alignment: 4
    }
    name: "android::hardware::graphics::composer::V2_1::BnHwComposerClient::_hidl_getHdrCapabilities"
    access: public_access
    linker_set_key: "_ZN7android8hardware8graphics8composer4V2_118BnHwComposerClient24_hidl_getHdrCapabilitiesEPNS_4hidl4base4V1_08BnHwBaseERKNS0_6ParcelEPSA_NSt3__18functionIFvRSA_EEE"
  }
  mangled_function_name: "_ZN7android8hardware8graphics8composer4V2_118BnHwComposerClient24_hidl_getHdrCapabilitiesEPNS_4hidl4base4V1_08BnHwBaseERKNS0_6ParcelEPSA_NSt3__18functionIFvRSA_EEE"
  source_file: "/out/soong/.intermediates/hardware/interfaces/graphics/composer/2.1/android.hardware.graphics.composer@2.1_genc++_headers/gen/android/hardware/graphics/composer/2.1/BnHwComposerClient.h"
  parameters {
    basic_abi {
      type_abi {
        name: "android::hidl::base::V1_0::BnHwBase *"
        size: 4
        alignment: 4
      }
      name: "_hidl_this"
      access: public_access
      linker_set_key: "false"
    }
    default_arg: false
  }
  parameters {
    basic_abi {
      type_abi {
        name: "const android::hardware::Parcel &"
      }
      name: "_hidl_data"
      access: public_access
      linker_set_key: "false"
    }
    default_arg: false
  }
  parameters {
    basic_abi {
      type_abi {
        name: "android::hardware::Parcel *"
        size: 4
        alignment: 4
      }
      name: "_hidl_reply"
      access: public_access
      linker_set_key: "false"
    }
    default_arg: false
  }
  parameters {
    basic_abi {
      type_abi {
        name: "std::function<void (Parcel &)>"
      }
      name: "_hidl_cb"
      access: public_access
      linker_set_key: "false"
    }
    default_arg: false
  }
}
functions {
  basic_abi {
    type_abi {
      name: "int"
      size: 4
      alignment: 4
    }
    name: "android::hardware::graphics::composer::V2_1::BnHwComposerClient::_hidl_setClientTargetSlotCount"
    access: public_access
    linker_set_key: "_ZN7android8hardware8graphics8composer4V2_118BnHwComposerClient30_hidl_setClientTargetSlotCountEPNS_4hidl4base4V1_08BnHwBaseERKNS0_6ParcelEPSA_NSt3__18functionIFvRSA_EEE"
  }
  mangled_function_name: "_ZN7android8hardware8graphics8composer4V2_118BnHwComposerClient30_hidl_setClientTargetSlotCountEPNS_4hidl4base4V1_08BnHwBaseERKNS0_6ParcelEPSA_NSt3__18functionIFvRSA_EEE"
  source_file: "/out/soong/.intermediates/hardware/interfaces/graphics/composer/2.1/android.hardware.graphics.composer@2.1_genc++_headers/gen/android/hardware/graphics/composer/2.1/BnHwComposerClient.h"
  parameters {
    basic_abi {
      type_abi {
        name: "android::hidl::base::V1_0::BnHwBase *"
        size: 4
        alignment: 4
      }
      name: "_hidl_this"
      access: public_access
      linker_set_key: "false"
    }
    default_arg: false
  }
  parameters {
    basic_abi {
      type_abi {
        name: "const android::hardware::Parcel &"
      }
      name: "_hidl_data"
      access: public_access
      linker_set_key: "false"
    }
    default_arg: false
  }
  parameters {
    basic_abi {
      type_abi {
        name: "android::hardware::Parcel *"
        size: 4
        alignment: 4
      }
      name: "_hidl_reply"
      access: public_access
      linker_set_key: "false"
    }
    default_arg: false
  }
  parameters {
    basic_abi {
      type_abi {
        name: "std::function<void (Parcel &)>"
      }
      name: "_hidl_cb"
      access: public_access
      linker_set_key: "false"
    }
    default_arg: false
  }
}
functions {
  basic_abi {
    type_abi {
      name: "int"
      size: 4
      alignment: 4
    }
    name: "android::hardware::graphics::composer::V2_1::BnHwComposerClient::_hidl_setActiveConfig"
    access: public_access
    linker_set_key: "_ZN7android8hardware8graphics8composer4V2_118BnHwComposerClient21_hidl_setActiveConfigEPNS_4hidl4base4V1_08BnHwBaseERKNS0_6ParcelEPSA_NSt3__18functionIFvRSA_EEE"
  }
  mangled_function_name: "_ZN7android8hardware8graphics8composer4V2_118BnHwComposerClient21_hidl_setActiveConfigEPNS_4hidl4base4V1_08BnHwBaseERKNS0_6ParcelEPSA_NSt3__18functionIFvRSA_EEE"
  source_file: "/out/soong/.intermediates/hardware/interfaces/graphics/composer/2.1/android.hardware.graphics.composer@2.1_genc++_headers/gen/android/hardware/graphics/composer/2.1/BnHwComposerClient.h"
  parameters {
    basic_abi {
      type_abi {
        name: "android::hidl::base::V1_0::BnHwBase *"
        size: 4
        alignment: 4
      }
      name: "_hidl_this"
      access: public_access
      linker_set_key: "false"
    }
    default_arg: false
  }
  parameters {
    basic_abi {
      type_abi {
        name: "const android::hardware::Parcel &"
      }
      name: "_hidl_data"
      access: public_access
      linker_set_key: "false"
    }
    default_arg: false
  }
  parameters {
    basic_abi {
      type_abi {
        name: "android::hardware::Parcel *"
        size: 4
        alignment: 4
      }
      name: "_hidl_reply"
      access: public_access
      linker_set_key: "false"
    }
    default_arg: false
  }
  parameters {
    basic_abi {
      type_abi {
        name: "std::function<void (Parcel &)>"
      }
      name: "_hidl_cb"
      access: public_access
      linker_set_key: "false"
    }
    default_arg: false
  }
}
functions {
  basic_abi {
    type_abi {
      name: "int"
      size: 4
      alignment: 4
    }
    name: "android::hardware::graphics::composer::V2_1::BnHwComposerClient::_hidl_setColorMode"
    access: public_access
    linker_set_key: "_ZN7android8hardware8graphics8composer4V2_118BnHwComposerClient18_hidl_setColorModeEPNS_4hidl4base4V1_08BnHwBaseERKNS0_6ParcelEPSA_NSt3__18functionIFvRSA_EEE"
  }
  mangled_function_name: "_ZN7android8hardware8graphics8composer4V2_118BnHwComposerClient18_hidl_setColorModeEPNS_4hidl4base4V1_08BnHwBaseERKNS0_6ParcelEPSA_NSt3__18functionIFvRSA_EEE"
  source_file: "/out/soong/.intermediates/hardware/interfaces/graphics/composer/2.1/android.hardware.graphics.composer@2.1_genc++_headers/gen/android/hardware/graphics/composer/2.1/BnHwComposerClient.h"
  parameters {
    basic_abi {
      type_abi {
        name: "android::hidl::base::V1_0::BnHwBase *"
        size: 4
        alignment: 4
      }
      name: "_hidl_this"
      access: public_access
      linker_set_key: "false"
    }
    default_arg: false
  }
  parameters {
    basic_abi {
      type_abi {
        name: "const android::hardware::Parcel &"
      }
      name: "_hidl_data"
      access: public_access
      linker_set_key: "false"
    }
    default_arg: false
  }
  parameters {
    basic_abi {
      type_abi {
        name: "android::hardware::Parcel *"
        size: 4
        alignment: 4
      }
      name: "_hidl_reply"
      access: public_access
      linker_set_key: "false"
    }
    default_arg: false
  }
  parameters {
    basic_abi {
      type_abi {
        name: "std::function<void (Parcel &)>"
      }
      name: "_hidl_cb"
      access: public_access
      linker_set_key: "false"
    }
    default_arg: false
  }
}
functions {
  basic_abi {
    type_abi {
      name: "int"
      size: 4
      alignment: 4
    }
    name: "android::hardware::graphics::composer::V2_1::BnHwComposerClient::_hidl_setPowerMode"
    access: public_access
    linker_set_key: "_ZN7android8hardware8graphics8composer4V2_118BnHwComposerClient18_hidl_setPowerModeEPNS_4hidl4base4V1_08BnHwBaseERKNS0_6ParcelEPSA_NSt3__18functionIFvRSA_EEE"
  }
  mangled_function_name: "_ZN7android8hardware8graphics8composer4V2_118BnHwComposerClient18_hidl_setPowerModeEPNS_4hidl4base4V1_08BnHwBaseERKNS0_6ParcelEPSA_NSt3__18functionIFvRSA_EEE"
  source_file: "/out/soong/.intermediates/hardware/interfaces/graphics/composer/2.1/android.hardware.graphics.composer@2.1_genc++_headers/gen/android/hardware/graphics/composer/2.1/BnHwComposerClient.h"
  parameters {
    basic_abi {
      type_abi {
        name: "android::hidl::base::V1_0::BnHwBase *"
        size: 4
        alignment: 4
      }
      name: "_hidl_this"
      access: public_access
      linker_set_key: "false"
    }
    default_arg: false
  }
  parameters {
    basic_abi {
      type_abi {
        name: "const android::hardware::Parcel &"
      }
      name: "_hidl_data"
      access: public_access
      linker_set_key: "false"
    }
    default_arg: false
  }
  parameters {
    basic_abi {
      type_abi {
        name: "android::hardware::Parcel *"
        size: 4
        alignment: 4
      }
      name: "_hidl_reply"
      access: public_access
      linker_set_key: "false"
    }
    default_arg: false
  }
  parameters {
    basic_abi {
      type_abi {
        name: "std::function<void (Parcel &)>"
      }
      name: "_hidl_cb"
      access: public_access
      linker_set_key: "false"
    }
    default_arg: false
  }
}
functions {
  basic_abi {
    type_abi {
      name: "int"
      size: 4
      alignment: 4
    }
    name: "android::hardware::graphics::composer::V2_1::BnHwComposerClient::_hidl_setVsyncEnabled"
    access: public_access
    linker_set_key: "_ZN7android8hardware8graphics8composer4V2_118BnHwComposerClient21_hidl_setVsyncEnabledEPNS_4hidl4base4V1_08BnHwBaseERKNS0_6ParcelEPSA_NSt3__18functionIFvRSA_EEE"
  }
  mangled_function_name: "_ZN7android8hardware8graphics8composer4V2_118BnHwComposerClient21_hidl_setVsyncEnabledEPNS_4hidl4base4V1_08BnHwBaseERKNS0_6ParcelEPSA_NSt3__18functionIFvRSA_EEE"
  source_file: "/out/soong/.intermediates/hardware/interfaces/graphics/composer/2.1/android.hardware.graphics.composer@2.1_genc++_headers/gen/android/hardware/graphics/composer/2.1/BnHwComposerClient.h"
  parameters {
    basic_abi {
      type_abi {
        name: "android::hidl::base::V1_0::BnHwBase *"
        size: 4
        alignment: 4
      }
      name: "_hidl_this"
      access: public_access
      linker_set_key: "false"
    }
    default_arg: false
  }
  parameters {
    basic_abi {
      type_abi {
        name: "const android::hardware::Parcel &"
      }
      name: "_hidl_data"
      access: public_access
      linker_set_key: "false"
    }
    default_arg: false
  }
  parameters {
    basic_abi {
      type_abi {
        name: "android::hardware::Parcel *"
        size: 4
        alignment: 4
      }
      name: "_hidl_reply"
      access: public_access
      linker_set_key: "false"
    }
    default_arg: false
  }
  parameters {
    basic_abi {
      type_abi {
        name: "std::function<void (Parcel &)>"
      }
      name: "_hidl_cb"
      access: public_access
      linker_set_key: "false"
    }
    default_arg: false
  }
}
functions {
  basic_abi {
    type_abi {
      name: "int"
      size: 4
      alignment: 4
    }
    name: "android::hardware::graphics::composer::V2_1::BnHwComposerClient::_hidl_setInputCommandQueue"
    access: public_access
    linker_set_key: "_ZN7android8hardware8graphics8composer4V2_118BnHwComposerClient26_hidl_setInputCommandQueueEPNS_4hidl4base4V1_08BnHwBaseERKNS0_6ParcelEPSA_NSt3__18functionIFvRSA_EEE"
  }
  mangled_function_name: "_ZN7android8hardware8graphics8composer4V2_118BnHwComposerClient26_hidl_setInputCommandQueueEPNS_4hidl4base4V1_08BnHwBaseERKNS0_6ParcelEPSA_NSt3__18functionIFvRSA_EEE"
  source_file: "/out/soong/.intermediates/hardware/interfaces/graphics/composer/2.1/android.hardware.graphics.composer@2.1_genc++_headers/gen/android/hardware/graphics/composer/2.1/BnHwComposerClient.h"
  parameters {
    basic_abi {
      type_abi {
        name: "android::hidl::base::V1_0::BnHwBase *"
        size: 4
        alignment: 4
      }
      name: "_hidl_this"
      access: public_access
      linker_set_key: "false"
    }
    default_arg: false
  }
  parameters {
    basic_abi {
      type_abi {
        name: "const android::hardware::Parcel &"
      }
      name: "_hidl_data"
      access: public_access
      linker_set_key: "false"
    }
    default_arg: false
  }
  parameters {
    basic_abi {
      type_abi {
        name: "android::hardware::Parcel *"
        size: 4
        alignment: 4
      }
      name: "_hidl_reply"
      access: public_access
      linker_set_key: "false"
    }
    default_arg: false
  }
  parameters {
    basic_abi {
      type_abi {
        name: "std::function<void (Parcel &)>"
      }
      name: "_hidl_cb"
      access: public_access
      linker_set_key: "false"
    }
    default_arg: false
  }
}
functions {
  basic_abi {
    type_abi {
      name: "int"
      size: 4
      alignment: 4
    }
    name: "android::hardware::graphics::composer::V2_1::BnHwComposerClient::_hidl_getOutputCommandQueue"
    access: public_access
    linker_set_key: "_ZN7android8hardware8graphics8composer4V2_118BnHwComposerClient27_hidl_getOutputCommandQueueEPNS_4hidl4base4V1_08BnHwBaseERKNS0_6ParcelEPSA_NSt3__18functionIFvRSA_EEE"
  }
  mangled_function_name: "_ZN7android8hardware8graphics8composer4V2_118BnHwComposerClient27_hidl_getOutputCommandQueueEPNS_4hidl4base4V1_08BnHwBaseERKNS0_6ParcelEPSA_NSt3__18functionIFvRSA_EEE"
  source_file: "/out/soong/.intermediates/hardware/interfaces/graphics/composer/2.1/android.hardware.graphics.composer@2.1_genc++_headers/gen/android/hardware/graphics/composer/2.1/BnHwComposerClient.h"
  parameters {
    basic_abi {
      type_abi {
        name: "android::hidl::base::V1_0::BnHwBase *"
        size: 4
        alignment: 4
      }
      name: "_hidl_this"
      access: public_access
      linker_set_key: "false"
    }
    default_arg: false
  }
  parameters {
    basic_abi {
      type_abi {
        name: "const android::hardware::Parcel &"
      }
      name: "_hidl_data"
      access: public_access
      linker_set_key: "false"
    }
    default_arg: false
  }
  parameters {
    basic_abi {
      type_abi {
        name: "android::hardware::Parcel *"
        size: 4
        alignment: 4
      }
      name: "_hidl_reply"
      access: public_access
      linker_set_key: "false"
    }
    default_arg: false
  }
  parameters {
    basic_abi {
      type_abi {
        name: "std::function<void (Parcel &)>"
      }
      name: "_hidl_cb"
      access: public_access
      linker_set_key: "false"
    }
    default_arg: false
  }
}
functions {
  basic_abi {
    type_abi {
      name: "int"
      size: 4
      alignment: 4
    }
    name: "android::hardware::graphics::composer::V2_1::BnHwComposerClient::_hidl_executeCommands"
    access: public_access
    linker_set_key: "_ZN7android8hardware8graphics8composer4V2_118BnHwComposerClient21_hidl_executeCommandsEPNS_4hidl4base4V1_08BnHwBaseERKNS0_6ParcelEPSA_NSt3__18functionIFvRSA_EEE"
  }
  mangled_function_name: "_ZN7android8hardware8graphics8composer4V2_118BnHwComposerClient21_hidl_executeCommandsEPNS_4hidl4base4V1_08BnHwBaseERKNS0_6ParcelEPSA_NSt3__18functionIFvRSA_EEE"
  source_file: "/out/soong/.intermediates/hardware/interfaces/graphics/composer/2.1/android.hardware.graphics.composer@2.1_genc++_headers/gen/android/hardware/graphics/composer/2.1/BnHwComposerClient.h"
  parameters {
    basic_abi {
      type_abi {
        name: "android::hidl::base::V1_0::BnHwBase *"
        size: 4
        alignment: 4
      }
      name: "_hidl_this"
      access: public_access
      linker_set_key: "false"
    }
    default_arg: false
  }
  parameters {
    basic_abi {
      type_abi {
        name: "const android::hardware::Parcel &"
      }
      name: "_hidl_data"
      access: public_access
      linker_set_key: "false"
    }
    default_arg: false
  }
  parameters {
    basic_abi {
      type_abi {
        name: "android::hardware::Parcel *"
        size: 4
        alignment: 4
      }
      name: "_hidl_reply"
      access: public_access
      linker_set_key: "false"
    }
    default_arg: false
  }
  parameters {
    basic_abi {
      type_abi {
        name: "std::function<void (Parcel &)>"
      }
      name: "_hidl_cb"
      access: public_access
      linker_set_key: "false"
    }
    default_arg: false
  }
}
functions {
  basic_abi {
    type_abi {
      name: "android::hardware::Return<void>"
    }
    name: "android::hardware::graphics::composer::V2_1::BnHwComposerClient::ping"
    access: private_access
    linker_set_key: "_ZN7android8hardware8graphics8composer4V2_118BnHwComposerClient4pingEv"
  }
  mangled_function_name: "_ZN7android8hardware8graphics8composer4V2_118BnHwComposerClient4pingEv"
  source_file: "/out/soong/.intermediates/hardware/interfaces/graphics/composer/2.1/android.hardware.graphics.composer@2.1_genc++_headers/gen/android/hardware/graphics/composer/2.1/BnHwComposerClient.h"
}
functions {
  basic_abi {
    type_abi {
      name: "android::hardware::Return<void>"
    }
    name: "android::hardware::graphics::composer::V2_1::BnHwComposerClient::getDebugInfo"
    access: private_access
    linker_set_key: "_ZN7android8hardware8graphics8composer4V2_118BnHwComposerClient12getDebugInfoENSt3__18functionIFvRKNS_4hidl4base4V1_09DebugInfoEEEE"
  }
  mangled_function_name: "_ZN7android8hardware8graphics8composer4V2_118BnHwComposerClient12getDebugInfoENSt3__18functionIFvRKNS_4hidl4base4V1_09DebugInfoEEEE"
  source_file: "/out/soong/.intermediates/hardware/interfaces/graphics/composer/2.1/android.hardware.graphics.composer@2.1_genc++_headers/gen/android/hardware/graphics/composer/2.1/BnHwComposerClient.h"
  parameters {
    basic_abi {
      type_abi {
        name: "std::function<void (const DebugInfo &)>"
      }
      name: "_hidl_cb"
      access: public_access
      linker_set_key: "false"
    }
    default_arg: false
  }
}
functions {
  basic_abi {
    type_abi {
      name: "void"
    }
    name: "android::hardware::graphics::composer::V2_1::BpHwComposerClient::BpHwComposerClient"
    access: public_access
    linker_set_key: "_ZN7android8hardware8graphics8composer4V2_118BpHwComposerClientC2ERKNS_2spINS0_7IBinderEEE"
  }
  mangled_function_name: "_ZN7android8hardware8graphics8composer4V2_118BpHwComposerClientC2ERKNS_2spINS0_7IBinderEEE"
  source_file: "/out/soong/.intermediates/hardware/interfaces/graphics/composer/2.1/android.hardware.graphics.composer@2.1_genc++_headers/gen/android/hardware/graphics/composer/2.1/BpHwComposerClient.h"
  parameters {
    basic_abi {
      type_abi {
        name: "const android::sp<android::hardware::IBinder> &"
      }
      name: "_hidl_impl"
      access: public_access
      linker_set_key: "false"
    }
    default_arg: false
  }
}
functions {
  basic_abi {
    type_abi {
      name: "void"
    }
    name: "android::hardware::graphics::composer::V2_1::BpHwComposerClient::BpHwComposerClient"
    access: public_access
    linker_set_key: "_ZN7android8hardware8graphics8composer4V2_118BpHwComposerClientC1ERKNS_2spINS0_7IBinderEEE"
  }
  mangled_function_name: "_ZN7android8hardware8graphics8composer4V2_118BpHwComposerClientC1ERKNS_2spINS0_7IBinderEEE"
  source_file: "/out/soong/.intermediates/hardware/interfaces/graphics/composer/2.1/android.hardware.graphics.composer@2.1_genc++_headers/gen/android/hardware/graphics/composer/2.1/BpHwComposerClient.h"
  parameters {
    basic_abi {
      type_abi {
        name: "const android::sp<android::hardware::IBinder> &"
      }
      name: "_hidl_impl"
      access: public_access
      linker_set_key: "false"
    }
    default_arg: false
  }
}
functions {
  basic_abi {
    type_abi {
      name: "android::hardware::Return<void>"
    }
    name: "android::hardware::graphics::composer::V2_1::BpHwComposerClient::_hidl_registerCallback"
    access: public_access
    linker_set_key: "_ZN7android8hardware8graphics8composer4V2_118BpHwComposerClient22_hidl_registerCallbackEPNS0_10IInterfaceEPNS0_7details16HidlInstrumentorERKNS_2spINS3_17IComposerCallbackEEE"
  }
  mangled_function_name: "_ZN7android8hardware8graphics8composer4V2_118BpHwComposerClient22_hidl_registerCallbackEPNS0_10IInterfaceEPNS0_7details16HidlInstrumentorERKNS_2spINS3_17IComposerCallbackEEE"
  source_file: "/out/soong/.intermediates/hardware/interfaces/graphics/composer/2.1/android.hardware.graphics.composer@2.1_genc++_headers/gen/android/hardware/graphics/composer/2.1/BpHwComposerClient.h"
  parameters {
    basic_abi {
      type_abi {
        name: "android::hardware::IInterface *"
        size: 4
        alignment: 4
      }
      name: "_hidl_this"
      access: public_access
      linker_set_key: "false"
    }
    default_arg: false
  }
  parameters {
    basic_abi {
      type_abi {
        name: "android::hardware::details::HidlInstrumentor *"
        size: 4
        alignment: 4
      }
      name: "_hidl_this_instrumentor"
      access: public_access
      linker_set_key: "false"
    }
    default_arg: false
  }
  parameters {
    basic_abi {
      type_abi {
        name: "const android::sp<android::hardware::graphics::composer::V2_1::IComposerCallback> &"
      }
      name: "callback"
      access: public_access
      linker_set_key: "false"
    }
    default_arg: false
  }
}
functions {
  basic_abi {
    type_abi {
      name: "android::hardware::Return<unsigned int>"
    }
    name: "android::hardware::graphics::composer::V2_1::BpHwComposerClient::_hidl_getMaxVirtualDisplayCount"
    access: public_access
    linker_set_key: "_ZN7android8hardware8graphics8composer4V2_118BpHwComposerClient31_hidl_getMaxVirtualDisplayCountEPNS0_10IInterfaceEPNS0_7details16HidlInstrumentorE"
  }
  mangled_function_name: "_ZN7android8hardware8graphics8composer4V2_118BpHwComposerClient31_hidl_getMaxVirtualDisplayCountEPNS0_10IInterfaceEPNS0_7details16HidlInstrumentorE"
  source_file: "/out/soong/.intermediates/hardware/interfaces/graphics/composer/2.1/android.hardware.graphics.composer@2.1_genc++_headers/gen/android/hardware/graphics/composer/2.1/BpHwComposerClient.h"
  parameters {
    basic_abi {
      type_abi {
        name: "android::hardware::IInterface *"
        size: 4
        alignment: 4
      }
      name: "_hidl_this"
      access: public_access
      linker_set_key: "false"
    }
    default_arg: false
  }
  parameters {
    basic_abi {
      type_abi {
        name: "android::hardware::details::HidlInstrumentor *"
        size: 4
        alignment: 4
      }
      name: "_hidl_this_instrumentor"
      access: public_access
      linker_set_key: "false"
    }
    default_arg: false
  }
}
functions {
  basic_abi {
    type_abi {
      name: "android::hardware::Return<void>"
    }
    name: "android::hardware::graphics::composer::V2_1::BpHwComposerClient::_hidl_createVirtualDisplay"
    access: public_access
    linker_set_key: "_ZN7android8hardware8graphics8composer4V2_118BpHwComposerClient26_hidl_createVirtualDisplayEPNS0_10IInterfaceEPNS0_7details16HidlInstrumentorEjjNS1_6common4V1_011PixelFormatEjNSt3__18functionIFvNS3_5ErrorEySC_EEE"
  }
  mangled_function_name: "_ZN7android8hardware8graphics8composer4V2_118BpHwComposerClient26_hidl_createVirtualDisplayEPNS0_10IInterfaceEPNS0_7details16HidlInstrumentorEjjNS1_6common4V1_011PixelFormatEjNSt3__18functionIFvNS3_5ErrorEySC_EEE"
  source_file: "/out/soong/.intermediates/hardware/interfaces/graphics/composer/2.1/android.hardware.graphics.composer@2.1_genc++_headers/gen/android/hardware/graphics/composer/2.1/BpHwComposerClient.h"
  parameters {
    basic_abi {
      type_abi {
        name: "android::hardware::IInterface *"
        size: 4
        alignment: 4
      }
      name: "_hidl_this"
      access: public_access
      linker_set_key: "false"
    }
    default_arg: false
  }
  parameters {
    basic_abi {
      type_abi {
        name: "android::hardware::details::HidlInstrumentor *"
        size: 4
        alignment: 4
      }
      name: "_hidl_this_instrumentor"
      access: public_access
      linker_set_key: "false"
    }
    default_arg: false
  }
  parameters {
    basic_abi {
      type_abi {
        name: "unsigned int"
        size: 4
        alignment: 4
      }
      name: "width"
      access: public_access
      linker_set_key: "false"
    }
    default_arg: false
  }
  parameters {
    basic_abi {
      type_abi {
        name: "unsigned int"
        size: 4
        alignment: 4
      }
      name: "height"
      access: public_access
      linker_set_key: "false"
    }
    default_arg: false
  }
  parameters {
    basic_abi {
      type_abi {
        name: "android::hardware::graphics::common::V1_0::PixelFormat"
      }
      name: "formatHint"
      access: public_access
      linker_set_key: "false"
    }
    default_arg: false
  }
  parameters {
    basic_abi {
      type_abi {
        name: "unsigned int"
        size: 4
        alignment: 4
      }
      name: "outputBufferSlotCount"
      access: public_access
      linker_set_key: "false"
    }
    default_arg: false
  }
  parameters {
    basic_abi {
      type_abi {
        name: "std::function<void (Error, unsigned long long, PixelFormat)>"
      }
      name: "_hidl_cb"
      access: public_access
      linker_set_key: "false"
    }
    default_arg: false
  }
}
functions {
  basic_abi {
    type_abi {
      name: "android::hardware::Return<android::hardware::graphics::composer::V2_1::Error>"
    }
    name: "android::hardware::graphics::composer::V2_1::BpHwComposerClient::_hidl_destroyVirtualDisplay"
    access: public_access
    linker_set_key: "_ZN7android8hardware8graphics8composer4V2_118BpHwComposerClient27_hidl_destroyVirtualDisplayEPNS0_10IInterfaceEPNS0_7details16HidlInstrumentorEy"
  }
  mangled_function_name: "_ZN7android8hardware8graphics8composer4V2_118BpHwComposerClient27_hidl_destroyVirtualDisplayEPNS0_10IInterfaceEPNS0_7details16HidlInstrumentorEy"
  source_file: "/out/soong/.intermediates/hardware/interfaces/graphics/composer/2.1/android.hardware.graphics.composer@2.1_genc++_headers/gen/android/hardware/graphics/composer/2.1/BpHwComposerClient.h"
  parameters {
    basic_abi {
      type_abi {
        name: "android::hardware::IInterface *"
        size: 4
        alignment: 4
      }
      name: "_hidl_this"
      access: public_access
      linker_set_key: "false"
    }
    default_arg: false
  }
  parameters {
    basic_abi {
      type_abi {
        name: "android::hardware::details::HidlInstrumentor *"
        size: 4
        alignment: 4
      }
      name: "_hidl_this_instrumentor"
      access: public_access
      linker_set_key: "false"
    }
    default_arg: false
  }
  parameters {
    basic_abi {
      type_abi {
        name: "unsigned long long"
        size: 8
        alignment: 8
      }
      name: "display"
      access: public_access
      linker_set_key: "false"
    }
    default_arg: false
  }
}
functions {
  basic_abi {
    type_abi {
      name: "android::hardware::Return<void>"
    }
    name: "android::hardware::graphics::composer::V2_1::BpHwComposerClient::_hidl_createLayer"
    access: public_access
    linker_set_key: "_ZN7android8hardware8graphics8composer4V2_118BpHwComposerClient17_hidl_createLayerEPNS0_10IInterfaceEPNS0_7details16HidlInstrumentorEyjNSt3__18functionIFvNS3_5ErrorEyEEE"
  }
  mangled_function_name: "_ZN7android8hardware8graphics8composer4V2_118BpHwComposerClient17_hidl_createLayerEPNS0_10IInterfaceEPNS0_7details16HidlInstrumentorEyjNSt3__18functionIFvNS3_5ErrorEyEEE"
  source_file: "/out/soong/.intermediates/hardware/interfaces/graphics/composer/2.1/android.hardware.graphics.composer@2.1_genc++_headers/gen/android/hardware/graphics/composer/2.1/BpHwComposerClient.h"
  parameters {
    basic_abi {
      type_abi {
        name: "android::hardware::IInterface *"
        size: 4
        alignment: 4
      }
      name: "_hidl_this"
      access: public_access
      linker_set_key: "false"
    }
    default_arg: false
  }
  parameters {
    basic_abi {
      type_abi {
        name: "android::hardware::details::HidlInstrumentor *"
        size: 4
        alignment: 4
      }
      name: "_hidl_this_instrumentor"
      access: public_access
      linker_set_key: "false"
    }
    default_arg: false
  }
  parameters {
    basic_abi {
      type_abi {
        name: "unsigned long long"
        size: 8
        alignment: 8
      }
      name: "display"
      access: public_access
      linker_set_key: "false"
    }
    default_arg: false
  }
  parameters {
    basic_abi {
      type_abi {
        name: "unsigned int"
        size: 4
        alignment: 4
      }
      name: "bufferSlotCount"
      access: public_access
      linker_set_key: "false"
    }
    default_arg: false
  }
  parameters {
    basic_abi {
      type_abi {
        name: "std::function<void (Error, unsigned long long)>"
      }
      name: "_hidl_cb"
      access: public_access
      linker_set_key: "false"
    }
    default_arg: false
  }
}
functions {
  basic_abi {
    type_abi {
      name: "android::hardware::Return<android::hardware::graphics::composer::V2_1::Error>"
    }
    name: "android::hardware::graphics::composer::V2_1::BpHwComposerClient::_hidl_destroyLayer"
    access: public_access
    linker_set_key: "_ZN7android8hardware8graphics8composer4V2_118BpHwComposerClient18_hidl_destroyLayerEPNS0_10IInterfaceEPNS0_7details16HidlInstrumentorEyy"
  }
  mangled_function_name: "_ZN7android8hardware8graphics8composer4V2_118BpHwComposerClient18_hidl_destroyLayerEPNS0_10IInterfaceEPNS0_7details16HidlInstrumentorEyy"
  source_file: "/out/soong/.intermediates/hardware/interfaces/graphics/composer/2.1/android.hardware.graphics.composer@2.1_genc++_headers/gen/android/hardware/graphics/composer/2.1/BpHwComposerClient.h"
  parameters {
    basic_abi {
      type_abi {
        name: "android::hardware::IInterface *"
        size: 4
        alignment: 4
      }
      name: "_hidl_this"
      access: public_access
      linker_set_key: "false"
    }
    default_arg: false
  }
  parameters {
    basic_abi {
      type_abi {
        name: "android::hardware::details::HidlInstrumentor *"
        size: 4
        alignment: 4
      }
      name: "_hidl_this_instrumentor"
      access: public_access
      linker_set_key: "false"
    }
    default_arg: false
  }
  parameters {
    basic_abi {
      type_abi {
        name: "unsigned long long"
        size: 8
        alignment: 8
      }
      name: "display"
      access: public_access
      linker_set_key: "false"
    }
    default_arg: false
  }
  parameters {
    basic_abi {
      type_abi {
        name: "unsigned long long"
        size: 8
        alignment: 8
      }
      name: "layer"
      access: public_access
      linker_set_key: "false"
    }
    default_arg: false
  }
}
functions {
  basic_abi {
    type_abi {
      name: "android::hardware::Return<void>"
    }
    name: "android::hardware::graphics::composer::V2_1::BpHwComposerClient::_hidl_getActiveConfig"
    access: public_access
    linker_set_key: "_ZN7android8hardware8graphics8composer4V2_118BpHwComposerClient21_hidl_getActiveConfigEPNS0_10IInterfaceEPNS0_7details16HidlInstrumentorEyNSt3__18functionIFvNS3_5ErrorEjEEE"
  }
  mangled_function_name: "_ZN7android8hardware8graphics8composer4V2_118BpHwComposerClient21_hidl_getActiveConfigEPNS0_10IInterfaceEPNS0_7details16HidlInstrumentorEyNSt3__18functionIFvNS3_5ErrorEjEEE"
  source_file: "/out/soong/.intermediates/hardware/interfaces/graphics/composer/2.1/android.hardware.graphics.composer@2.1_genc++_headers/gen/android/hardware/graphics/composer/2.1/BpHwComposerClient.h"
  parameters {
    basic_abi {
      type_abi {
        name: "android::hardware::IInterface *"
        size: 4
        alignment: 4
      }
      name: "_hidl_this"
      access: public_access
      linker_set_key: "false"
    }
    default_arg: false
  }
  parameters {
    basic_abi {
      type_abi {
        name: "android::hardware::details::HidlInstrumentor *"
        size: 4
        alignment: 4
      }
      name: "_hidl_this_instrumentor"
      access: public_access
      linker_set_key: "false"
    }
    default_arg: false
  }
  parameters {
    basic_abi {
      type_abi {
        name: "unsigned long long"
        size: 8
        alignment: 8
      }
      name: "display"
      access: public_access
      linker_set_key: "false"
    }
    default_arg: false
  }
  parameters {
    basic_abi {
      type_abi {
        name: "std::function<void (Error, unsigned int)>"
      }
      name: "_hidl_cb"
      access: public_access
      linker_set_key: "false"
    }
    default_arg: false
  }
}
functions {
  basic_abi {
    type_abi {
      name: "android::hardware::Return<android::hardware::graphics::composer::V2_1::Error>"
    }
    name: "android::hardware::graphics::composer::V2_1::BpHwComposerClient::_hidl_getClientTargetSupport"
    access: public_access
    linker_set_key: "_ZN7android8hardware8graphics8composer4V2_118BpHwComposerClient28_hidl_getClientTargetSupportEPNS0_10IInterfaceEPNS0_7details16HidlInstrumentorEyjjNS1_6common4V1_011PixelFormatENSB_9DataspaceE"
  }
  mangled_function_name: "_ZN7android8hardware8graphics8composer4V2_118BpHwComposerClient28_hidl_getClientTargetSupportEPNS0_10IInterfaceEPNS0_7details16HidlInstrumentorEyjjNS1_6common4V1_011PixelFormatENSB_9DataspaceE"
  source_file: "/out/soong/.intermediates/hardware/interfaces/graphics/composer/2.1/android.hardware.graphics.composer@2.1_genc++_headers/gen/android/hardware/graphics/composer/2.1/BpHwComposerClient.h"
  parameters {
    basic_abi {
      type_abi {
        name: "android::hardware::IInterface *"
        size: 4
        alignment: 4
      }
      name: "_hidl_this"
      access: public_access
      linker_set_key: "false"
    }
    default_arg: false
  }
  parameters {
    basic_abi {
      type_abi {
        name: "android::hardware::details::HidlInstrumentor *"
        size: 4
        alignment: 4
      }
      name: "_hidl_this_instrumentor"
      access: public_access
      linker_set_key: "false"
    }
    default_arg: false
  }
  parameters {
    basic_abi {
      type_abi {
        name: "unsigned long long"
        size: 8
        alignment: 8
      }
      name: "display"
      access: public_access
      linker_set_key: "false"
    }
    default_arg: false
  }
  parameters {
    basic_abi {
      type_abi {
        name: "unsigned int"
        size: 4
        alignment: 4
      }
      name: "width"
      access: public_access
      linker_set_key: "false"
    }
    default_arg: false
  }
  parameters {
    basic_abi {
      type_abi {
        name: "unsigned int"
        size: 4
        alignment: 4
      }
      name: "height"
      access: public_access
      linker_set_key: "false"
    }
    default_arg: false
  }
  parameters {
    basic_abi {
      type_abi {
        name: "android::hardware::graphics::common::V1_0::PixelFormat"
      }
      name: "format"
      access: public_access
      linker_set_key: "false"
    }
    default_arg: false
  }
  parameters {
    basic_abi {
      type_abi {
        name: "android::hardware::graphics::common::V1_0::Dataspace"
      }
      name: "dataspace"
      access: public_access
      linker_set_key: "false"
    }
    default_arg: false
  }
}
functions {
  basic_abi {
    type_abi {
      name: "android::hardware::Return<void>"
    }
    name: "android::hardware::graphics::composer::V2_1::BpHwComposerClient::_hidl_getColorModes"
    access: public_access
    linker_set_key: "_ZN7android8hardware8graphics8composer4V2_118BpHwComposerClient19_hidl_getColorModesEPNS0_10IInterfaceEPNS0_7details16HidlInstrumentorEyNSt3__18functionIFvNS3_5ErrorERKNS0_8hidl_vecINS1_6common4V1_09ColorModeEEEEEE"
  }
  mangled_function_name: "_ZN7android8hardware8graphics8composer4V2_118BpHwComposerClient19_hidl_getColorModesEPNS0_10IInterfaceEPNS0_7details16HidlInstrumentorEyNSt3__18functionIFvNS3_5ErrorERKNS0_8hidl_vecINS1_6common4V1_09ColorModeEEEEEE"
  source_file: "/out/soong/.intermediates/hardware/interfaces/graphics/composer/2.1/android.hardware.graphics.composer@2.1_genc++_headers/gen/android/hardware/graphics/composer/2.1/BpHwComposerClient.h"
  parameters {
    basic_abi {
      type_abi {
        name: "android::hardware::IInterface *"
        size: 4
        alignment: 4
      }
      name: "_hidl_this"
      access: public_access
      linker_set_key: "false"
    }
    default_arg: false
  }
  parameters {
    basic_abi {
      type_abi {
        name: "android::hardware::details::HidlInstrumentor *"
        size: 4
        alignment: 4
      }
      name: "_hidl_this_instrumentor"
      access: public_access
      linker_set_key: "false"
    }
    default_arg: false
  }
  parameters {
    basic_abi {
      type_abi {
        name: "unsigned long long"
        size: 8
        alignment: 8
      }
      name: "display"
      access: public_access
      linker_set_key: "false"
    }
    default_arg: false
  }
  parameters {
    basic_abi {
      type_abi {
        name: "std::function<void (Error, const hidl_vec<ColorMode> &)>"
      }
      name: "_hidl_cb"
      access: public_access
      linker_set_key: "false"
    }
    default_arg: false
  }
}
functions {
  basic_abi {
    type_abi {
      name: "android::hardware::Return<void>"
    }
    name: "android::hardware::graphics::composer::V2_1::BpHwComposerClient::_hidl_getDisplayAttribute"
    access: public_access
    linker_set_key: "_ZN7android8hardware8graphics8composer4V2_118BpHwComposerClient25_hidl_getDisplayAttributeEPNS0_10IInterfaceEPNS0_7details16HidlInstrumentorEyjNS3_15IComposerClient9AttributeENSt3__18functionIFvNS3_5ErrorEiEEE"
  }
  mangled_function_name: "_ZN7android8hardware8graphics8composer4V2_118BpHwComposerClient25_hidl_getDisplayAttributeEPNS0_10IInterfaceEPNS0_7details16HidlInstrumentorEyjNS3_15IComposerClient9AttributeENSt3__18functionIFvNS3_5ErrorEiEEE"
  source_file: "/out/soong/.intermediates/hardware/interfaces/graphics/composer/2.1/android.hardware.graphics.composer@2.1_genc++_headers/gen/android/hardware/graphics/composer/2.1/BpHwComposerClient.h"
  parameters {
    basic_abi {
      type_abi {
        name: "android::hardware::IInterface *"
        size: 4
        alignment: 4
      }
      name: "_hidl_this"
      access: public_access
      linker_set_key: "false"
    }
    default_arg: false
  }
  parameters {
    basic_abi {
      type_abi {
        name: "android::hardware::details::HidlInstrumentor *"
        size: 4
        alignment: 4
      }
      name: "_hidl_this_instrumentor"
      access: public_access
      linker_set_key: "false"
    }
    default_arg: false
  }
  parameters {
    basic_abi {
      type_abi {
        name: "unsigned long long"
        size: 8
        alignment: 8
      }
      name: "display"
      access: public_access
      linker_set_key: "false"
    }
    default_arg: false
  }
  parameters {
    basic_abi {
      type_abi {
        name: "unsigned int"
        size: 4
        alignment: 4
      }
      name: "config"
      access: public_access
      linker_set_key: "false"
    }
    default_arg: false
  }
  parameters {
    basic_abi {
      type_abi {
        name: "android::hardware::graphics::composer::V2_1::IComposerClient::Attribute"
      }
      name: "attribute"
      access: public_access
      linker_set_key: "false"
    }
    default_arg: false
  }
  parameters {
    basic_abi {
      type_abi {
        name: "std::function<void (Error, int)>"
      }
      name: "_hidl_cb"
      access: public_access
      linker_set_key: "false"
    }
    default_arg: false
  }
}
functions {
  basic_abi {
    type_abi {
      name: "android::hardware::Return<void>"
    }
    name: "android::hardware::graphics::composer::V2_1::BpHwComposerClient::_hidl_getDisplayConfigs"
    access: public_access
    linker_set_key: "_ZN7android8hardware8graphics8composer4V2_118BpHwComposerClient23_hidl_getDisplayConfigsEPNS0_10IInterfaceEPNS0_7details16HidlInstrumentorEyNSt3__18functionIFvNS3_5ErrorERKNS0_8hidl_vecIjEEEEE"
  }
  mangled_function_name: "_ZN7android8hardware8graphics8composer4V2_118BpHwComposerClient23_hidl_getDisplayConfigsEPNS0_10IInterfaceEPNS0_7details16HidlInstrumentorEyNSt3__18functionIFvNS3_5ErrorERKNS0_8hidl_vecIjEEEEE"
  source_file: "/out/soong/.intermediates/hardware/interfaces/graphics/composer/2.1/android.hardware.graphics.composer@2.1_genc++_headers/gen/android/hardware/graphics/composer/2.1/BpHwComposerClient.h"
  parameters {
    basic_abi {
      type_abi {
        name: "android::hardware::IInterface *"
        size: 4
        alignment: 4
      }
      name: "_hidl_this"
      access: public_access
      linker_set_key: "false"
    }
    default_arg: false
  }
  parameters {
    basic_abi {
      type_abi {
        name: "android::hardware::details::HidlInstrumentor *"
        size: 4
        alignment: 4
      }
      name: "_hidl_this_instrumentor"
      access: public_access
      linker_set_key: "false"
    }
    default_arg: false
  }
  parameters {
    basic_abi {
      type_abi {
        name: "unsigned long long"
        size: 8
        alignment: 8
      }
      name: "display"
      access: public_access
      linker_set_key: "false"
    }
    default_arg: false
  }
  parameters {
    basic_abi {
      type_abi {
        name: "std::function<void (Error, const hidl_vec<unsigned int> &)>"
      }
      name: "_hidl_cb"
      access: public_access
      linker_set_key: "false"
    }
    default_arg: false
  }
}
functions {
  basic_abi {
    type_abi {
      name: "android::hardware::Return<void>"
    }
    name: "android::hardware::graphics::composer::V2_1::BpHwComposerClient::_hidl_getDisplayName"
    access: public_access
    linker_set_key: "_ZN7android8hardware8graphics8composer4V2_118BpHwComposerClient20_hidl_getDisplayNameEPNS0_10IInterfaceEPNS0_7details16HidlInstrumentorEyNSt3__18functionIFvNS3_5ErrorERKNS0_11hidl_stringEEEE"
  }
  mangled_function_name: "_ZN7android8hardware8graphics8composer4V2_118BpHwComposerClient20_hidl_getDisplayNameEPNS0_10IInterfaceEPNS0_7details16HidlInstrumentorEyNSt3__18functionIFvNS3_5ErrorERKNS0_11hidl_stringEEEE"
  source_file: "/out/soong/.intermediates/hardware/interfaces/graphics/composer/2.1/android.hardware.graphics.composer@2.1_genc++_headers/gen/android/hardware/graphics/composer/2.1/BpHwComposerClient.h"
  parameters {
    basic_abi {
      type_abi {
        name: "android::hardware::IInterface *"
        size: 4
        alignment: 4
      }
      name: "_hidl_this"
      access: public_access
      linker_set_key: "false"
    }
    default_arg: false
  }
  parameters {
    basic_abi {
      type_abi {
        name: "android::hardware::details::HidlInstrumentor *"
        size: 4
        alignment: 4
      }
      name: "_hidl_this_instrumentor"
      access: public_access
      linker_set_key: "false"
    }
    default_arg: false
  }
  parameters {
    basic_abi {
      type_abi {
        name: "unsigned long long"
        size: 8
        alignment: 8
      }
      name: "display"
      access: public_access
      linker_set_key: "false"
    }
    default_arg: false
  }
  parameters {
    basic_abi {
      type_abi {
        name: "std::function<void (Error, const hidl_string &)>"
      }
      name: "_hidl_cb"
      access: public_access
      linker_set_key: "false"
    }
    default_arg: false
  }
}
functions {
  basic_abi {
    type_abi {
      name: "android::hardware::Return<void>"
    }
    name: "android::hardware::graphics::composer::V2_1::BpHwComposerClient::_hidl_getDisplayType"
    access: public_access
    linker_set_key: "_ZN7android8hardware8graphics8composer4V2_118BpHwComposerClient20_hidl_getDisplayTypeEPNS0_10IInterfaceEPNS0_7details16HidlInstrumentorEyNSt3__18functionIFvNS3_5ErrorENS3_15IComposerClient11DisplayTypeEEEE"
  }
  mangled_function_name: "_ZN7android8hardware8graphics8composer4V2_118BpHwComposerClient20_hidl_getDisplayTypeEPNS0_10IInterfaceEPNS0_7details16HidlInstrumentorEyNSt3__18functionIFvNS3_5ErrorENS3_15IComposerClient11DisplayTypeEEEE"
  source_file: "/out/soong/.intermediates/hardware/interfaces/graphics/composer/2.1/android.hardware.graphics.composer@2.1_genc++_headers/gen/android/hardware/graphics/composer/2.1/BpHwComposerClient.h"
  parameters {
    basic_abi {
      type_abi {
        name: "android::hardware::IInterface *"
        size: 4
        alignment: 4
      }
      name: "_hidl_this"
      access: public_access
      linker_set_key: "false"
    }
    default_arg: false
  }
  parameters {
    basic_abi {
      type_abi {
        name: "android::hardware::details::HidlInstrumentor *"
        size: 4
        alignment: 4
      }
      name: "_hidl_this_instrumentor"
      access: public_access
      linker_set_key: "false"
    }
    default_arg: false
  }
  parameters {
    basic_abi {
      type_abi {
        name: "unsigned long long"
        size: 8
        alignment: 8
      }
      name: "display"
      access: public_access
      linker_set_key: "false"
    }
    default_arg: false
  }
  parameters {
    basic_abi {
      type_abi {
        name: "std::function<void (Error, DisplayType)>"
      }
      name: "_hidl_cb"
      access: public_access
      linker_set_key: "false"
    }
    default_arg: false
  }
}
functions {
  basic_abi {
    type_abi {
      name: "android::hardware::Return<void>"
    }
    name: "android::hardware::graphics::composer::V2_1::BpHwComposerClient::_hidl_getDozeSupport"
    access: public_access
    linker_set_key: "_ZN7android8hardware8graphics8composer4V2_118BpHwComposerClient20_hidl_getDozeSupportEPNS0_10IInterfaceEPNS0_7details16HidlInstrumentorEyNSt3__18functionIFvNS3_5ErrorEbEEE"
  }
  mangled_function_name: "_ZN7android8hardware8graphics8composer4V2_118BpHwComposerClient20_hidl_getDozeSupportEPNS0_10IInterfaceEPNS0_7details16HidlInstrumentorEyNSt3__18functionIFvNS3_5ErrorEbEEE"
  source_file: "/out/soong/.intermediates/hardware/interfaces/graphics/composer/2.1/android.hardware.graphics.composer@2.1_genc++_headers/gen/android/hardware/graphics/composer/2.1/BpHwComposerClient.h"
  parameters {
    basic_abi {
      type_abi {
        name: "android::hardware::IInterface *"
        size: 4
        alignment: 4
      }
      name: "_hidl_this"
      access: public_access
      linker_set_key: "false"
    }
    default_arg: false
  }
  parameters {
    basic_abi {
      type_abi {
        name: "android::hardware::details::HidlInstrumentor *"
        size: 4
        alignment: 4
      }
      name: "_hidl_this_instrumentor"
      access: public_access
      linker_set_key: "false"
    }
    default_arg: false
  }
  parameters {
    basic_abi {
      type_abi {
        name: "unsigned long long"
        size: 8
        alignment: 8
      }
      name: "display"
      access: public_access
      linker_set_key: "false"
    }
    default_arg: false
  }
  parameters {
    basic_abi {
      type_abi {
        name: "std::function<void (Error, bool)>"
      }
      name: "_hidl_cb"
      access: public_access
      linker_set_key: "false"
    }
    default_arg: false
  }
}
functions {
  basic_abi {
    type_abi {
      name: "android::hardware::Return<void>"
    }
    name: "android::hardware::graphics::composer::V2_1::BpHwComposerClient::_hidl_getHdrCapabilities"
    access: public_access
    linker_set_key: "_ZN7android8hardware8graphics8composer4V2_118BpHwComposerClient24_hidl_getHdrCapabilitiesEPNS0_10IInterfaceEPNS0_7details16HidlInstrumentorEyNSt3__18functionIFvNS3_5ErrorERKNS0_8hidl_vecINS1_6common4V1_03HdrEEEfffEEE"
  }
  mangled_function_name: "_ZN7android8hardware8graphics8composer4V2_118BpHwComposerClient24_hidl_getHdrCapabilitiesEPNS0_10IInterfaceEPNS0_7details16HidlInstrumentorEyNSt3__18functionIFvNS3_5ErrorERKNS0_8hidl_vecINS1_6common4V1_03HdrEEEfffEEE"
  source_file: "/out/soong/.intermediates/hardware/interfaces/graphics/composer/2.1/android.hardware.graphics.composer@2.1_genc++_headers/gen/android/hardware/graphics/composer/2.1/BpHwComposerClient.h"
  parameters {
    basic_abi {
      type_abi {
        name: "android::hardware::IInterface *"
        size: 4
        alignment: 4
      }
      name: "_hidl_this"
      access: public_access
      linker_set_key: "false"
    }
    default_arg: false
  }
  parameters {
    basic_abi {
      type_abi {
        name: "android::hardware::details::HidlInstrumentor *"
        size: 4
        alignment: 4
      }
      name: "_hidl_this_instrumentor"
      access: public_access
      linker_set_key: "false"
    }
    default_arg: false
  }
  parameters {
    basic_abi {
      type_abi {
        name: "unsigned long long"
        size: 8
        alignment: 8
      }
      name: "display"
      access: public_access
      linker_set_key: "false"
    }
    default_arg: false
  }
  parameters {
    basic_abi {
      type_abi {
        name: "std::function<void (Error, const hidl_vec<Hdr> &, float, float, float)>"
      }
      name: "_hidl_cb"
      access: public_access
      linker_set_key: "false"
    }
    default_arg: false
  }
}
functions {
  basic_abi {
    type_abi {
      name: "android::hardware::Return<android::hardware::graphics::composer::V2_1::Error>"
    }
    name: "android::hardware::graphics::composer::V2_1::BpHwComposerClient::_hidl_setClientTargetSlotCount"
    access: public_access
    linker_set_key: "_ZN7android8hardware8graphics8composer4V2_118BpHwComposerClient30_hidl_setClientTargetSlotCountEPNS0_10IInterfaceEPNS0_7details16HidlInstrumentorEyj"
  }
  mangled_function_name: "_ZN7android8hardware8graphics8composer4V2_118BpHwComposerClient30_hidl_setClientTargetSlotCountEPNS0_10IInterfaceEPNS0_7details16HidlInstrumentorEyj"
  source_file: "/out/soong/.intermediates/hardware/interfaces/graphics/composer/2.1/android.hardware.graphics.composer@2.1_genc++_headers/gen/android/hardware/graphics/composer/2.1/BpHwComposerClient.h"
  parameters {
    basic_abi {
      type_abi {
        name: "android::hardware::IInterface *"
        size: 4
        alignment: 4
      }
      name: "_hidl_this"
      access: public_access
      linker_set_key: "false"
    }
    default_arg: false
  }
  parameters {
    basic_abi {
      type_abi {
        name: "android::hardware::details::HidlInstrumentor *"
        size: 4
        alignment: 4
      }
      name: "_hidl_this_instrumentor"
      access: public_access
      linker_set_key: "false"
    }
    default_arg: false
  }
  parameters {
    basic_abi {
      type_abi {
        name: "unsigned long long"
        size: 8
        alignment: 8
      }
      name: "display"
      access: public_access
      linker_set_key: "false"
    }
    default_arg: false
  }
  parameters {
    basic_abi {
      type_abi {
        name: "unsigned int"
        size: 4
        alignment: 4
      }
      name: "clientTargetSlotCount"
      access: public_access
      linker_set_key: "false"
    }
    default_arg: false
  }
}
functions {
  basic_abi {
    type_abi {
      name: "android::hardware::Return<android::hardware::graphics::composer::V2_1::Error>"
    }
    name: "android::hardware::graphics::composer::V2_1::BpHwComposerClient::_hidl_setActiveConfig"
    access: public_access
    linker_set_key: "_ZN7android8hardware8graphics8composer4V2_118BpHwComposerClient21_hidl_setActiveConfigEPNS0_10IInterfaceEPNS0_7details16HidlInstrumentorEyj"
  }
  mangled_function_name: "_ZN7android8hardware8graphics8composer4V2_118BpHwComposerClient21_hidl_setActiveConfigEPNS0_10IInterfaceEPNS0_7details16HidlInstrumentorEyj"
  source_file: "/out/soong/.intermediates/hardware/interfaces/graphics/composer/2.1/android.hardware.graphics.composer@2.1_genc++_headers/gen/android/hardware/graphics/composer/2.1/BpHwComposerClient.h"
  parameters {
    basic_abi {
      type_abi {
        name: "android::hardware::IInterface *"
        size: 4
        alignment: 4
      }
      name: "_hidl_this"
      access: public_access
      linker_set_key: "false"
    }
    default_arg: false
  }
  parameters {
    basic_abi {
      type_abi {
        name: "android::hardware::details::HidlInstrumentor *"
        size: 4
        alignment: 4
      }
      name: "_hidl_this_instrumentor"
      access: public_access
      linker_set_key: "false"
    }
    default_arg: false
  }
  parameters {
    basic_abi {
      type_abi {
        name: "unsigned long long"
        size: 8
        alignment: 8
      }
      name: "display"
      access: public_access
      linker_set_key: "false"
    }
    default_arg: false
  }
  parameters {
    basic_abi {
      type_abi {
        name: "unsigned int"
        size: 4
        alignment: 4
      }
      name: "config"
      access: public_access
      linker_set_key: "false"
    }
    default_arg: false
  }
}
functions {
  basic_abi {
    type_abi {
      name: "android::hardware::Return<android::hardware::graphics::composer::V2_1::Error>"
    }
    name: "android::hardware::graphics::composer::V2_1::BpHwComposerClient::_hidl_setColorMode"
    access: public_access
    linker_set_key: "_ZN7android8hardware8graphics8composer4V2_118BpHwComposerClient18_hidl_setColorModeEPNS0_10IInterfaceEPNS0_7details16HidlInstrumentorEyNS1_6common4V1_09ColorModeE"
  }
  mangled_function_name: "_ZN7android8hardware8graphics8composer4V2_118BpHwComposerClient18_hidl_setColorModeEPNS0_10IInterfaceEPNS0_7details16HidlInstrumentorEyNS1_6common4V1_09ColorModeE"
  source_file: "/out/soong/.intermediates/hardware/interfaces/graphics/composer/2.1/android.hardware.graphics.composer@2.1_genc++_headers/gen/android/hardware/graphics/composer/2.1/BpHwComposerClient.h"
  parameters {
    basic_abi {
      type_abi {
        name: "android::hardware::IInterface *"
        size: 4
        alignment: 4
      }
      name: "_hidl_this"
      access: public_access
      linker_set_key: "false"
    }
    default_arg: false
  }
  parameters {
    basic_abi {
      type_abi {
        name: "android::hardware::details::HidlInstrumentor *"
        size: 4
        alignment: 4
      }
      name: "_hidl_this_instrumentor"
      access: public_access
      linker_set_key: "false"
    }
    default_arg: false
  }
  parameters {
    basic_abi {
      type_abi {
        name: "unsigned long long"
        size: 8
        alignment: 8
      }
      name: "display"
      access: public_access
      linker_set_key: "false"
    }
    default_arg: false
  }
  parameters {
    basic_abi {
      type_abi {
        name: "android::hardware::graphics::common::V1_0::ColorMode"
      }
      name: "mode"
      access: public_access
      linker_set_key: "false"
    }
    default_arg: false
  }
}
functions {
  basic_abi {
    type_abi {
      name: "android::hardware::Return<android::hardware::graphics::composer::V2_1::Error>"
    }
    name: "android::hardware::graphics::composer::V2_1::BpHwComposerClient::_hidl_setPowerMode"
    access: public_access
    linker_set_key: "_ZN7android8hardware8graphics8composer4V2_118BpHwComposerClient18_hidl_setPowerModeEPNS0_10IInterfaceEPNS0_7details16HidlInstrumentorEyNS3_15IComposerClient9PowerModeE"
  }
  mangled_function_name: "_ZN7android8hardware8graphics8composer4V2_118BpHwComposerClient18_hidl_setPowerModeEPNS0_10IInterfaceEPNS0_7details16HidlInstrumentorEyNS3_15IComposerClient9PowerModeE"
  source_file: "/out/soong/.intermediates/hardware/interfaces/graphics/composer/2.1/android.hardware.graphics.composer@2.1_genc++_headers/gen/android/hardware/graphics/composer/2.1/BpHwComposerClient.h"
  parameters {
    basic_abi {
      type_abi {
        name: "android::hardware::IInterface *"
        size: 4
        alignment: 4
      }
      name: "_hidl_this"
      access: public_access
      linker_set_key: "false"
    }
    default_arg: false
  }
  parameters {
    basic_abi {
      type_abi {
        name: "android::hardware::details::HidlInstrumentor *"
        size: 4
        alignment: 4
      }
      name: "_hidl_this_instrumentor"
      access: public_access
      linker_set_key: "false"
    }
    default_arg: false
  }
  parameters {
    basic_abi {
      type_abi {
        name: "unsigned long long"
        size: 8
        alignment: 8
      }
      name: "display"
      access: public_access
      linker_set_key: "false"
    }
    default_arg: false
  }
  parameters {
    basic_abi {
      type_abi {
        name: "android::hardware::graphics::composer::V2_1::IComposerClient::PowerMode"
      }
      name: "mode"
      access: public_access
      linker_set_key: "false"
    }
    default_arg: false
  }
}
functions {
  basic_abi {
    type_abi {
      name: "android::hardware::Return<android::hardware::graphics::composer::V2_1::Error>"
    }
    name: "android::hardware::graphics::composer::V2_1::BpHwComposerClient::_hidl_setVsyncEnabled"
    access: public_access
    linker_set_key: "_ZN7android8hardware8graphics8composer4V2_118BpHwComposerClient21_hidl_setVsyncEnabledEPNS0_10IInterfaceEPNS0_7details16HidlInstrumentorEyNS3_15IComposerClient5VsyncE"
  }
  mangled_function_name: "_ZN7android8hardware8graphics8composer4V2_118BpHwComposerClient21_hidl_setVsyncEnabledEPNS0_10IInterfaceEPNS0_7details16HidlInstrumentorEyNS3_15IComposerClient5VsyncE"
  source_file: "/out/soong/.intermediates/hardware/interfaces/graphics/composer/2.1/android.hardware.graphics.composer@2.1_genc++_headers/gen/android/hardware/graphics/composer/2.1/BpHwComposerClient.h"
  parameters {
    basic_abi {
      type_abi {
        name: "android::hardware::IInterface *"
        size: 4
        alignment: 4
      }
      name: "_hidl_this"
      access: public_access
      linker_set_key: "false"
    }
    default_arg: false
  }
  parameters {
    basic_abi {
      type_abi {
        name: "android::hardware::details::HidlInstrumentor *"
        size: 4
        alignment: 4
      }
      name: "_hidl_this_instrumentor"
      access: public_access
      linker_set_key: "false"
    }
    default_arg: false
  }
  parameters {
    basic_abi {
      type_abi {
        name: "unsigned long long"
        size: 8
        alignment: 8
      }
      name: "display"
      access: public_access
      linker_set_key: "false"
    }
    default_arg: false
  }
  parameters {
    basic_abi {
      type_abi {
        name: "android::hardware::graphics::composer::V2_1::IComposerClient::Vsync"
      }
      name: "enabled"
      access: public_access
      linker_set_key: "false"
    }
    default_arg: false
  }
}
functions {
  basic_abi {
    type_abi {
      name: "android::hardware::Return<android::hardware::graphics::composer::V2_1::Error>"
    }
    name: "android::hardware::graphics::composer::V2_1::BpHwComposerClient::_hidl_setInputCommandQueue"
    access: public_access
    linker_set_key: "_ZN7android8hardware8graphics8composer4V2_118BpHwComposerClient26_hidl_setInputCommandQueueEPNS0_10IInterfaceEPNS0_7details16HidlInstrumentorERKNS0_12MQDescriptorIjLNS0_8MQFlavorE1EEE"
  }
  mangled_function_name: "_ZN7android8hardware8graphics8composer4V2_118BpHwComposerClient26_hidl_setInputCommandQueueEPNS0_10IInterfaceEPNS0_7details16HidlInstrumentorERKNS0_12MQDescriptorIjLNS0_8MQFlavorE1EEE"
  source_file: "/out/soong/.intermediates/hardware/interfaces/graphics/composer/2.1/android.hardware.graphics.composer@2.1_genc++_headers/gen/android/hardware/graphics/composer/2.1/BpHwComposerClient.h"
  parameters {
    basic_abi {
      type_abi {
        name: "android::hardware::IInterface *"
        size: 4
        alignment: 4
      }
      name: "_hidl_this"
      access: public_access
      linker_set_key: "false"
    }
    default_arg: false
  }
  parameters {
    basic_abi {
      type_abi {
        name: "android::hardware::details::HidlInstrumentor *"
        size: 4
        alignment: 4
      }
      name: "_hidl_this_instrumentor"
      access: public_access
      linker_set_key: "false"
    }
    default_arg: false
  }
  parameters {
    basic_abi {
      type_abi {
        name: "const android::hardware::MQDescriptor<unsigned int, android::hardware::MQFlavor::kSynchronizedReadWrite> &"
      }
      name: "descriptor"
      access: public_access
      linker_set_key: "false"
    }
    default_arg: false
  }
}
functions {
  basic_abi {
    type_abi {
      name: "android::hardware::Return<void>"
    }
    name: "android::hardware::graphics::composer::V2_1::BpHwComposerClient::_hidl_getOutputCommandQueue"
    access: public_access
    linker_set_key: "_ZN7android8hardware8graphics8composer4V2_118BpHwComposerClient27_hidl_getOutputCommandQueueEPNS0_10IInterfaceEPNS0_7details16HidlInstrumentorENSt3__18functionIFvNS3_5ErrorERKNS0_12MQDescriptorIjLNS0_8MQFlavorE1EEEEEE"
  }
  mangled_function_name: "_ZN7android8hardware8graphics8composer4V2_118BpHwComposerClient27_hidl_getOutputCommandQueueEPNS0_10IInterfaceEPNS0_7details16HidlInstrumentorENSt3__18functionIFvNS3_5ErrorERKNS0_12MQDescriptorIjLNS0_8MQFlavorE1EEEEEE"
  source_file: "/out/soong/.intermediates/hardware/interfaces/graphics/composer/2.1/android.hardware.graphics.composer@2.1_genc++_headers/gen/android/hardware/graphics/composer/2.1/BpHwComposerClient.h"
  parameters {
    basic_abi {
      type_abi {
        name: "android::hardware::IInterface *"
        size: 4
        alignment: 4
      }
      name: "_hidl_this"
      access: public_access
      linker_set_key: "false"
    }
    default_arg: false
  }
  parameters {
    basic_abi {
      type_abi {
        name: "android::hardware::details::HidlInstrumentor *"
        size: 4
        alignment: 4
      }
      name: "_hidl_this_instrumentor"
      access: public_access
      linker_set_key: "false"
    }
    default_arg: false
  }
  parameters {
    basic_abi {
      type_abi {
        name: "std::function<void (Error, const MQDescriptor<unsigned int, android::hardware::MQFlavor::kSynchronizedReadWrite> &)>"
      }
      name: "_hidl_cb"
      access: public_access
      linker_set_key: "false"
    }
    default_arg: false
  }
}
functions {
  basic_abi {
    type_abi {
      name: "android::hardware::Return<void>"
    }
    name: "android::hardware::graphics::composer::V2_1::BpHwComposerClient::_hidl_executeCommands"
    access: public_access
    linker_set_key: "_ZN7android8hardware8graphics8composer4V2_118BpHwComposerClient21_hidl_executeCommandsEPNS0_10IInterfaceEPNS0_7details16HidlInstrumentorEjRKNS0_8hidl_vecINS0_11hidl_handleEEENSt3__18functionIFvNS3_5ErrorEbjSE_EEE"
  }
  mangled_function_name: "_ZN7android8hardware8graphics8composer4V2_118BpHwComposerClient21_hidl_executeCommandsEPNS0_10IInterfaceEPNS0_7details16HidlInstrumentorEjRKNS0_8hidl_vecINS0_11hidl_handleEEENSt3__18functionIFvNS3_5ErrorEbjSE_EEE"
  source_file: "/out/soong/.intermediates/hardware/interfaces/graphics/composer/2.1/android.hardware.graphics.composer@2.1_genc++_headers/gen/android/hardware/graphics/composer/2.1/BpHwComposerClient.h"
  parameters {
    basic_abi {
      type_abi {
        name: "android::hardware::IInterface *"
        size: 4
        alignment: 4
      }
      name: "_hidl_this"
      access: public_access
      linker_set_key: "false"
    }
    default_arg: false
  }
  parameters {
    basic_abi {
      type_abi {
        name: "android::hardware::details::HidlInstrumentor *"
        size: 4
        alignment: 4
      }
      name: "_hidl_this_instrumentor"
      access: public_access
      linker_set_key: "false"
    }
    default_arg: false
  }
  parameters {
    basic_abi {
      type_abi {
        name: "unsigned int"
        size: 4
        alignment: 4
      }
      name: "inLength"
      access: public_access
      linker_set_key: "false"
    }
    default_arg: false
  }
  parameters {
    basic_abi {
      type_abi {
        name: "const android::hardware::hidl_vec<android::hardware::hidl_handle> &"
      }
      name: "inHandles"
      access: public_access
      linker_set_key: "false"
    }
    default_arg: false
  }
  parameters {
    basic_abi {
      type_abi {
        name: "std::function<void (Error, bool, unsigned int, const hidl_vec<hidl_handle> &)>"
      }
      name: "_hidl_cb"
      access: public_access
      linker_set_key: "false"
    }
    default_arg: false
  }
}
functions {
  basic_abi {
    type_abi {
      name: "android::hardware::Return<void>"
    }
    name: "android::hardware::graphics::composer::V2_1::BpHwComposerClient::registerCallback"
    access: public_access
    linker_set_key: "_ZN7android8hardware8graphics8composer4V2_118BpHwComposerClient16registerCallbackERKNS_2spINS3_17IComposerCallbackEEE"
  }
  mangled_function_name: "_ZN7android8hardware8graphics8composer4V2_118BpHwComposerClient16registerCallbackERKNS_2spINS3_17IComposerCallbackEEE"
  source_file: "/out/soong/.intermediates/hardware/interfaces/graphics/composer/2.1/android.hardware.graphics.composer@2.1_genc++_headers/gen/android/hardware/graphics/composer/2.1/BpHwComposerClient.h"
  parameters {
    basic_abi {
      type_abi {
        name: "const android::sp<android::hardware::graphics::composer::V2_1::IComposerCallback> &"
      }
      name: "callback"
      access: public_access
      linker_set_key: "false"
    }
    default_arg: false
  }
}
functions {
  basic_abi {
    type_abi {
      name: "android::hardware::Return<unsigned int>"
    }
    name: "android::hardware::graphics::composer::V2_1::BpHwComposerClient::getMaxVirtualDisplayCount"
    access: public_access
    linker_set_key: "_ZN7android8hardware8graphics8composer4V2_118BpHwComposerClient25getMaxVirtualDisplayCountEv"
  }
  mangled_function_name: "_ZN7android8hardware8graphics8composer4V2_118BpHwComposerClient25getMaxVirtualDisplayCountEv"
  source_file: "/out/soong/.intermediates/hardware/interfaces/graphics/composer/2.1/android.hardware.graphics.composer@2.1_genc++_headers/gen/android/hardware/graphics/composer/2.1/BpHwComposerClient.h"
}
functions {
  basic_abi {
    type_abi {
      name: "android::hardware::Return<void>"
    }
    name: "android::hardware::graphics::composer::V2_1::BpHwComposerClient::createVirtualDisplay"
    access: public_access
    linker_set_key: "_ZN7android8hardware8graphics8composer4V2_118BpHwComposerClient20createVirtualDisplayEjjNS1_6common4V1_011PixelFormatEjNSt3__18functionIFvNS3_5ErrorEyS7_EEE"
  }
  mangled_function_name: "_ZN7android8hardware8graphics8composer4V2_118BpHwComposerClient20createVirtualDisplayEjjNS1_6common4V1_011PixelFormatEjNSt3__18functionIFvNS3_5ErrorEyS7_EEE"
  source_file: "/out/soong/.intermediates/hardware/interfaces/graphics/composer/2.1/android.hardware.graphics.composer@2.1_genc++_headers/gen/android/hardware/graphics/composer/2.1/BpHwComposerClient.h"
  parameters {
    basic_abi {
      type_abi {
        name: "unsigned int"
        size: 4
        alignment: 4
      }
      name: "width"
      access: public_access
      linker_set_key: "false"
    }
    default_arg: false
  }
  parameters {
    basic_abi {
      type_abi {
        name: "unsigned int"
        size: 4
        alignment: 4
      }
      name: "height"
      access: public_access
      linker_set_key: "false"
    }
    default_arg: false
  }
  parameters {
    basic_abi {
      type_abi {
        name: "android::hardware::graphics::common::V1_0::PixelFormat"
      }
      name: "formatHint"
      access: public_access
      linker_set_key: "false"
    }
    default_arg: false
  }
  parameters {
    basic_abi {
      type_abi {
        name: "unsigned int"
        size: 4
        alignment: 4
      }
      name: "outputBufferSlotCount"
      access: public_access
      linker_set_key: "false"
    }
    default_arg: false
  }
  parameters {
    basic_abi {
      type_abi {
        name: "std::function<void (Error, unsigned long long, PixelFormat)>"
      }
      name: "_hidl_cb"
      access: public_access
      linker_set_key: "false"
    }
    default_arg: false
  }
}
functions {
  basic_abi {
    type_abi {
      name: "android::hardware::Return<android::hardware::graphics::composer::V2_1::Error>"
    }
    name: "android::hardware::graphics::composer::V2_1::BpHwComposerClient::destroyVirtualDisplay"
    access: public_access
    linker_set_key: "_ZN7android8hardware8graphics8composer4V2_118BpHwComposerClient21destroyVirtualDisplayEy"
  }
  mangled_function_name: "_ZN7android8hardware8graphics8composer4V2_118BpHwComposerClient21destroyVirtualDisplayEy"
  source_file: "/out/soong/.intermediates/hardware/interfaces/graphics/composer/2.1/android.hardware.graphics.composer@2.1_genc++_headers/gen/android/hardware/graphics/composer/2.1/BpHwComposerClient.h"
  parameters {
    basic_abi {
      type_abi {
        name: "unsigned long long"
        size: 8
        alignment: 8
      }
      name: "display"
      access: public_access
      linker_set_key: "false"
    }
    default_arg: false
  }
}
functions {
  basic_abi {
    type_abi {
      name: "android::hardware::Return<void>"
    }
    name: "android::hardware::graphics::composer::V2_1::BpHwComposerClient::createLayer"
    access: public_access
    linker_set_key: "_ZN7android8hardware8graphics8composer4V2_118BpHwComposerClient11createLayerEyjNSt3__18functionIFvNS3_5ErrorEyEEE"
  }
  mangled_function_name: "_ZN7android8hardware8graphics8composer4V2_118BpHwComposerClient11createLayerEyjNSt3__18functionIFvNS3_5ErrorEyEEE"
  source_file: "/out/soong/.intermediates/hardware/interfaces/graphics/composer/2.1/android.hardware.graphics.composer@2.1_genc++_headers/gen/android/hardware/graphics/composer/2.1/BpHwComposerClient.h"
  parameters {
    basic_abi {
      type_abi {
        name: "unsigned long long"
        size: 8
        alignment: 8
      }
      name: "display"
      access: public_access
      linker_set_key: "false"
    }
    default_arg: false
  }
  parameters {
    basic_abi {
      type_abi {
        name: "unsigned int"
        size: 4
        alignment: 4
      }
      name: "bufferSlotCount"
      access: public_access
      linker_set_key: "false"
    }
    default_arg: false
  }
  parameters {
    basic_abi {
      type_abi {
        name: "std::function<void (Error, unsigned long long)>"
      }
      name: "_hidl_cb"
      access: public_access
      linker_set_key: "false"
    }
    default_arg: false
  }
}
functions {
  basic_abi {
    type_abi {
      name: "android::hardware::Return<android::hardware::graphics::composer::V2_1::Error>"
    }
    name: "android::hardware::graphics::composer::V2_1::BpHwComposerClient::destroyLayer"
    access: public_access
    linker_set_key: "_ZN7android8hardware8graphics8composer4V2_118BpHwComposerClient12destroyLayerEyy"
  }
  mangled_function_name: "_ZN7android8hardware8graphics8composer4V2_118BpHwComposerClient12destroyLayerEyy"
  source_file: "/out/soong/.intermediates/hardware/interfaces/graphics/composer/2.1/android.hardware.graphics.composer@2.1_genc++_headers/gen/android/hardware/graphics/composer/2.1/BpHwComposerClient.h"
  parameters {
    basic_abi {
      type_abi {
        name: "unsigned long long"
        size: 8
        alignment: 8
      }
      name: "display"
      access: public_access
      linker_set_key: "false"
    }
    default_arg: false
  }
  parameters {
    basic_abi {
      type_abi {
        name: "unsigned long long"
        size: 8
        alignment: 8
      }
      name: "layer"
      access: public_access
      linker_set_key: "false"
    }
    default_arg: false
  }
}
functions {
  basic_abi {
    type_abi {
      name: "android::hardware::Return<void>"
    }
    name: "android::hardware::graphics::composer::V2_1::BpHwComposerClient::getActiveConfig"
    access: public_access
    linker_set_key: "_ZN7android8hardware8graphics8composer4V2_118BpHwComposerClient15getActiveConfigEyNSt3__18functionIFvNS3_5ErrorEjEEE"
  }
  mangled_function_name: "_ZN7android8hardware8graphics8composer4V2_118BpHwComposerClient15getActiveConfigEyNSt3__18functionIFvNS3_5ErrorEjEEE"
  source_file: "/out/soong/.intermediates/hardware/interfaces/graphics/composer/2.1/android.hardware.graphics.composer@2.1_genc++_headers/gen/android/hardware/graphics/composer/2.1/BpHwComposerClient.h"
  parameters {
    basic_abi {
      type_abi {
        name: "unsigned long long"
        size: 8
        alignment: 8
      }
      name: "display"
      access: public_access
      linker_set_key: "false"
    }
    default_arg: false
  }
  parameters {
    basic_abi {
      type_abi {
        name: "std::function<void (Error, unsigned int)>"
      }
      name: "_hidl_cb"
      access: public_access
      linker_set_key: "false"
    }
    default_arg: false
  }
}
functions {
  basic_abi {
    type_abi {
      name: "android::hardware::Return<android::hardware::graphics::composer::V2_1::Error>"
    }
    name: "android::hardware::graphics::composer::V2_1::BpHwComposerClient::getClientTargetSupport"
    access: public_access
    linker_set_key: "_ZN7android8hardware8graphics8composer4V2_118BpHwComposerClient22getClientTargetSupportEyjjNS1_6common4V1_011PixelFormatENS6_9DataspaceE"
  }
  mangled_function_name: "_ZN7android8hardware8graphics8composer4V2_118BpHwComposerClient22getClientTargetSupportEyjjNS1_6common4V1_011PixelFormatENS6_9DataspaceE"
  source_file: "/out/soong/.intermediates/hardware/interfaces/graphics/composer/2.1/android.hardware.graphics.composer@2.1_genc++_headers/gen/android/hardware/graphics/composer/2.1/BpHwComposerClient.h"
  parameters {
    basic_abi {
      type_abi {
        name: "unsigned long long"
        size: 8
        alignment: 8
      }
      name: "display"
      access: public_access
      linker_set_key: "false"
    }
    default_arg: false
  }
  parameters {
    basic_abi {
      type_abi {
        name: "unsigned int"
        size: 4
        alignment: 4
      }
      name: "width"
      access: public_access
      linker_set_key: "false"
    }
    default_arg: false
  }
  parameters {
    basic_abi {
      type_abi {
        name: "unsigned int"
        size: 4
        alignment: 4
      }
      name: "height"
      access: public_access
      linker_set_key: "false"
    }
    default_arg: false
  }
  parameters {
    basic_abi {
      type_abi {
        name: "android::hardware::graphics::common::V1_0::PixelFormat"
      }
      name: "format"
      access: public_access
      linker_set_key: "false"
    }
    default_arg: false
  }
  parameters {
    basic_abi {
      type_abi {
        name: "android::hardware::graphics::common::V1_0::Dataspace"
      }
      name: "dataspace"
      access: public_access
      linker_set_key: "false"
    }
    default_arg: false
  }
}
functions {
  basic_abi {
    type_abi {
      name: "android::hardware::Return<void>"
    }
    name: "android::hardware::graphics::composer::V2_1::BpHwComposerClient::getColorModes"
    access: public_access
    linker_set_key: "_ZN7android8hardware8graphics8composer4V2_118BpHwComposerClient13getColorModesEyNSt3__18functionIFvNS3_5ErrorERKNS0_8hidl_vecINS1_6common4V1_09ColorModeEEEEEE"
  }
  mangled_function_name: "_ZN7android8hardware8graphics8composer4V2_118BpHwComposerClient13getColorModesEyNSt3__18functionIFvNS3_5ErrorERKNS0_8hidl_vecINS1_6common4V1_09ColorModeEEEEEE"
  source_file: "/out/soong/.intermediates/hardware/interfaces/graphics/composer/2.1/android.hardware.graphics.composer@2.1_genc++_headers/gen/android/hardware/graphics/composer/2.1/BpHwComposerClient.h"
  parameters {
    basic_abi {
      type_abi {
        name: "unsigned long long"
        size: 8
        alignment: 8
      }
      name: "display"
      access: public_access
      linker_set_key: "false"
    }
    default_arg: false
  }
  parameters {
    basic_abi {
      type_abi {
        name: "std::function<void (Error, const hidl_vec<ColorMode> &)>"
      }
      name: "_hidl_cb"
      access: public_access
      linker_set_key: "false"
    }
    default_arg: false
  }
}
functions {
  basic_abi {
    type_abi {
      name: "android::hardware::Return<void>"
    }
    name: "android::hardware::graphics::composer::V2_1::BpHwComposerClient::getDisplayAttribute"
    access: public_access
    linker_set_key: "_ZN7android8hardware8graphics8composer4V2_118BpHwComposerClient19getDisplayAttributeEyjNS3_15IComposerClient9AttributeENSt3__18functionIFvNS3_5ErrorEiEEE"
  }
  mangled_function_name: "_ZN7android8hardware8graphics8composer4V2_118BpHwComposerClient19getDisplayAttributeEyjNS3_15IComposerClient9AttributeENSt3__18functionIFvNS3_5ErrorEiEEE"
  source_file: "/out/soong/.intermediates/hardware/interfaces/graphics/composer/2.1/android.hardware.graphics.composer@2.1_genc++_headers/gen/android/hardware/graphics/composer/2.1/BpHwComposerClient.h"
  parameters {
    basic_abi {
      type_abi {
        name: "unsigned long long"
        size: 8
        alignment: 8
      }
      name: "display"
      access: public_access
      linker_set_key: "false"
    }
    default_arg: false
  }
  parameters {
    basic_abi {
      type_abi {
        name: "unsigned int"
        size: 4
        alignment: 4
      }
      name: "config"
      access: public_access
      linker_set_key: "false"
    }
    default_arg: false
  }
  parameters {
    basic_abi {
      type_abi {
        name: "android::hardware::graphics::composer::V2_1::IComposerClient::Attribute"
      }
      name: "attribute"
      access: public_access
      linker_set_key: "false"
    }
    default_arg: false
  }
  parameters {
    basic_abi {
      type_abi {
        name: "std::function<void (Error, int)>"
      }
      name: "_hidl_cb"
      access: public_access
      linker_set_key: "false"
    }
    default_arg: false
  }
}
functions {
  basic_abi {
    type_abi {
      name: "android::hardware::Return<void>"
    }
    name: "android::hardware::graphics::composer::V2_1::BpHwComposerClient::getDisplayConfigs"
    access: public_access
    linker_set_key: "_ZN7android8hardware8graphics8composer4V2_118BpHwComposerClient17getDisplayConfigsEyNSt3__18functionIFvNS3_5ErrorERKNS0_8hidl_vecIjEEEEE"
  }
  mangled_function_name: "_ZN7android8hardware8graphics8composer4V2_118BpHwComposerClient17getDisplayConfigsEyNSt3__18functionIFvNS3_5ErrorERKNS0_8hidl_vecIjEEEEE"
  source_file: "/out/soong/.intermediates/hardware/interfaces/graphics/composer/2.1/android.hardware.graphics.composer@2.1_genc++_headers/gen/android/hardware/graphics/composer/2.1/BpHwComposerClient.h"
  parameters {
    basic_abi {
      type_abi {
        name: "unsigned long long"
        size: 8
        alignment: 8
      }
      name: "display"
      access: public_access
      linker_set_key: "false"
    }
    default_arg: false
  }
  parameters {
    basic_abi {
      type_abi {
        name: "std::function<void (Error, const hidl_vec<unsigned int> &)>"
      }
      name: "_hidl_cb"
      access: public_access
      linker_set_key: "false"
    }
    default_arg: false
  }
}
functions {
  basic_abi {
    type_abi {
      name: "android::hardware::Return<void>"
    }
    name: "android::hardware::graphics::composer::V2_1::BpHwComposerClient::getDisplayName"
    access: public_access
    linker_set_key: "_ZN7android8hardware8graphics8composer4V2_118BpHwComposerClient14getDisplayNameEyNSt3__18functionIFvNS3_5ErrorERKNS0_11hidl_stringEEEE"
  }
  mangled_function_name: "_ZN7android8hardware8graphics8composer4V2_118BpHwComposerClient14getDisplayNameEyNSt3__18functionIFvNS3_5ErrorERKNS0_11hidl_stringEEEE"
  source_file: "/out/soong/.intermediates/hardware/interfaces/graphics/composer/2.1/android.hardware.graphics.composer@2.1_genc++_headers/gen/android/hardware/graphics/composer/2.1/BpHwComposerClient.h"
  parameters {
    basic_abi {
      type_abi {
        name: "unsigned long long"
        size: 8
        alignment: 8
      }
      name: "display"
      access: public_access
      linker_set_key: "false"
    }
    default_arg: false
  }
  parameters {
    basic_abi {
      type_abi {
        name: "std::function<void (Error, const hidl_string &)>"
      }
      name: "_hidl_cb"
      access: public_access
      linker_set_key: "false"
    }
    default_arg: false
  }
}
functions {
  basic_abi {
    type_abi {
      name: "android::hardware::Return<void>"
    }
    name: "android::hardware::graphics::composer::V2_1::BpHwComposerClient::getDisplayType"
    access: public_access
    linker_set_key: "_ZN7android8hardware8graphics8composer4V2_118BpHwComposerClient14getDisplayTypeEyNSt3__18functionIFvNS3_5ErrorENS3_15IComposerClient11DisplayTypeEEEE"
  }
  mangled_function_name: "_ZN7android8hardware8graphics8composer4V2_118BpHwComposerClient14getDisplayTypeEyNSt3__18functionIFvNS3_5ErrorENS3_15IComposerClient11DisplayTypeEEEE"
  source_file: "/out/soong/.intermediates/hardware/interfaces/graphics/composer/2.1/android.hardware.graphics.composer@2.1_genc++_headers/gen/android/hardware/graphics/composer/2.1/BpHwComposerClient.h"
  parameters {
    basic_abi {
      type_abi {
        name: "unsigned long long"
        size: 8
        alignment: 8
      }
      name: "display"
      access: public_access
      linker_set_key: "false"
    }
    default_arg: false
  }
  parameters {
    basic_abi {
      type_abi {
        name: "std::function<void (Error, DisplayType)>"
      }
      name: "_hidl_cb"
      access: public_access
      linker_set_key: "false"
    }
    default_arg: false
  }
}
functions {
  basic_abi {
    type_abi {
      name: "android::hardware::Return<void>"
    }
    name: "android::hardware::graphics::composer::V2_1::BpHwComposerClient::getDozeSupport"
    access: public_access
    linker_set_key: "_ZN7android8hardware8graphics8composer4V2_118BpHwComposerClient14getDozeSupportEyNSt3__18functionIFvNS3_5ErrorEbEEE"
  }
  mangled_function_name: "_ZN7android8hardware8graphics8composer4V2_118BpHwComposerClient14getDozeSupportEyNSt3__18functionIFvNS3_5ErrorEbEEE"
  source_file: "/out/soong/.intermediates/hardware/interfaces/graphics/composer/2.1/android.hardware.graphics.composer@2.1_genc++_headers/gen/android/hardware/graphics/composer/2.1/BpHwComposerClient.h"
  parameters {
    basic_abi {
      type_abi {
        name: "unsigned long long"
        size: 8
        alignment: 8
      }
      name: "display"
      access: public_access
      linker_set_key: "false"
    }
    default_arg: false
  }
  parameters {
    basic_abi {
      type_abi {
        name: "std::function<void (Error, bool)>"
      }
      name: "_hidl_cb"
      access: public_access
      linker_set_key: "false"
    }
    default_arg: false
  }
}
functions {
  basic_abi {
    type_abi {
      name: "android::hardware::Return<void>"
    }
    name: "android::hardware::graphics::composer::V2_1::BpHwComposerClient::getHdrCapabilities"
    access: public_access
    linker_set_key: "_ZN7android8hardware8graphics8composer4V2_118BpHwComposerClient18getHdrCapabilitiesEyNSt3__18functionIFvNS3_5ErrorERKNS0_8hidl_vecINS1_6common4V1_03HdrEEEfffEEE"
  }
  mangled_function_name: "_ZN7android8hardware8graphics8composer4V2_118BpHwComposerClient18getHdrCapabilitiesEyNSt3__18functionIFvNS3_5ErrorERKNS0_8hidl_vecINS1_6common4V1_03HdrEEEfffEEE"
  source_file: "/out/soong/.intermediates/hardware/interfaces/graphics/composer/2.1/android.hardware.graphics.composer@2.1_genc++_headers/gen/android/hardware/graphics/composer/2.1/BpHwComposerClient.h"
  parameters {
    basic_abi {
      type_abi {
        name: "unsigned long long"
        size: 8
        alignment: 8
      }
      name: "display"
      access: public_access
      linker_set_key: "false"
    }
    default_arg: false
  }
  parameters {
    basic_abi {
      type_abi {
        name: "std::function<void (Error, const hidl_vec<Hdr> &, float, float, float)>"
      }
      name: "_hidl_cb"
      access: public_access
      linker_set_key: "false"
    }
    default_arg: false
  }
}
functions {
  basic_abi {
    type_abi {
      name: "android::hardware::Return<android::hardware::graphics::composer::V2_1::Error>"
    }
    name: "android::hardware::graphics::composer::V2_1::BpHwComposerClient::setClientTargetSlotCount"
    access: public_access
    linker_set_key: "_ZN7android8hardware8graphics8composer4V2_118BpHwComposerClient24setClientTargetSlotCountEyj"
  }
  mangled_function_name: "_ZN7android8hardware8graphics8composer4V2_118BpHwComposerClient24setClientTargetSlotCountEyj"
  source_file: "/out/soong/.intermediates/hardware/interfaces/graphics/composer/2.1/android.hardware.graphics.composer@2.1_genc++_headers/gen/android/hardware/graphics/composer/2.1/BpHwComposerClient.h"
  parameters {
    basic_abi {
      type_abi {
        name: "unsigned long long"
        size: 8
        alignment: 8
      }
      name: "display"
      access: public_access
      linker_set_key: "false"
    }
    default_arg: false
  }
  parameters {
    basic_abi {
      type_abi {
        name: "unsigned int"
        size: 4
        alignment: 4
      }
      name: "clientTargetSlotCount"
      access: public_access
      linker_set_key: "false"
    }
    default_arg: false
  }
}
functions {
  basic_abi {
    type_abi {
      name: "android::hardware::Return<android::hardware::graphics::composer::V2_1::Error>"
    }
    name: "android::hardware::graphics::composer::V2_1::BpHwComposerClient::setActiveConfig"
    access: public_access
    linker_set_key: "_ZN7android8hardware8graphics8composer4V2_118BpHwComposerClient15setActiveConfigEyj"
  }
  mangled_function_name: "_ZN7android8hardware8graphics8composer4V2_118BpHwComposerClient15setActiveConfigEyj"
  source_file: "/out/soong/.intermediates/hardware/interfaces/graphics/composer/2.1/android.hardware.graphics.composer@2.1_genc++_headers/gen/android/hardware/graphics/composer/2.1/BpHwComposerClient.h"
  parameters {
    basic_abi {
      type_abi {
        name: "unsigned long long"
        size: 8
        alignment: 8
      }
      name: "display"
      access: public_access
      linker_set_key: "false"
    }
    default_arg: false
  }
  parameters {
    basic_abi {
      type_abi {
        name: "unsigned int"
        size: 4
        alignment: 4
      }
      name: "config"
      access: public_access
      linker_set_key: "false"
    }
    default_arg: false
  }
}
functions {
  basic_abi {
    type_abi {
      name: "android::hardware::Return<android::hardware::graphics::composer::V2_1::Error>"
    }
    name: "android::hardware::graphics::composer::V2_1::BpHwComposerClient::setColorMode"
    access: public_access
    linker_set_key: "_ZN7android8hardware8graphics8composer4V2_118BpHwComposerClient12setColorModeEyNS1_6common4V1_09ColorModeE"
  }
  mangled_function_name: "_ZN7android8hardware8graphics8composer4V2_118BpHwComposerClient12setColorModeEyNS1_6common4V1_09ColorModeE"
  source_file: "/out/soong/.intermediates/hardware/interfaces/graphics/composer/2.1/android.hardware.graphics.composer@2.1_genc++_headers/gen/android/hardware/graphics/composer/2.1/BpHwComposerClient.h"
  parameters {
    basic_abi {
      type_abi {
        name: "unsigned long long"
        size: 8
        alignment: 8
      }
      name: "display"
      access: public_access
      linker_set_key: "false"
    }
    default_arg: false
  }
  parameters {
    basic_abi {
      type_abi {
        name: "android::hardware::graphics::common::V1_0::ColorMode"
      }
      name: "mode"
      access: public_access
      linker_set_key: "false"
    }
    default_arg: false
  }
}
functions {
  basic_abi {
    type_abi {
      name: "android::hardware::Return<android::hardware::graphics::composer::V2_1::Error>"
    }
    name: "android::hardware::graphics::composer::V2_1::BpHwComposerClient::setPowerMode"
    access: public_access
    linker_set_key: "_ZN7android8hardware8graphics8composer4V2_118BpHwComposerClient12setPowerModeEyNS3_15IComposerClient9PowerModeE"
  }
  mangled_function_name: "_ZN7android8hardware8graphics8composer4V2_118BpHwComposerClient12setPowerModeEyNS3_15IComposerClient9PowerModeE"
  source_file: "/out/soong/.intermediates/hardware/interfaces/graphics/composer/2.1/android.hardware.graphics.composer@2.1_genc++_headers/gen/android/hardware/graphics/composer/2.1/BpHwComposerClient.h"
  parameters {
    basic_abi {
      type_abi {
        name: "unsigned long long"
        size: 8
        alignment: 8
      }
      name: "display"
      access: public_access
      linker_set_key: "false"
    }
    default_arg: false
  }
  parameters {
    basic_abi {
      type_abi {
        name: "android::hardware::graphics::composer::V2_1::IComposerClient::PowerMode"
      }
      name: "mode"
      access: public_access
      linker_set_key: "false"
    }
    default_arg: false
  }
}
functions {
  basic_abi {
    type_abi {
      name: "android::hardware::Return<android::hardware::graphics::composer::V2_1::Error>"
    }
    name: "android::hardware::graphics::composer::V2_1::BpHwComposerClient::setVsyncEnabled"
    access: public_access
    linker_set_key: "_ZN7android8hardware8graphics8composer4V2_118BpHwComposerClient15setVsyncEnabledEyNS3_15IComposerClient5VsyncE"
  }
  mangled_function_name: "_ZN7android8hardware8graphics8composer4V2_118BpHwComposerClient15setVsyncEnabledEyNS3_15IComposerClient5VsyncE"
  source_file: "/out/soong/.intermediates/hardware/interfaces/graphics/composer/2.1/android.hardware.graphics.composer@2.1_genc++_headers/gen/android/hardware/graphics/composer/2.1/BpHwComposerClient.h"
  parameters {
    basic_abi {
      type_abi {
        name: "unsigned long long"
        size: 8
        alignment: 8
      }
      name: "display"
      access: public_access
      linker_set_key: "false"
    }
    default_arg: false
  }
  parameters {
    basic_abi {
      type_abi {
        name: "android::hardware::graphics::composer::V2_1::IComposerClient::Vsync"
      }
      name: "enabled"
      access: public_access
      linker_set_key: "false"
    }
    default_arg: false
  }
}
functions {
  basic_abi {
    type_abi {
      name: "android::hardware::Return<android::hardware::graphics::composer::V2_1::Error>"
    }
    name: "android::hardware::graphics::composer::V2_1::BpHwComposerClient::setInputCommandQueue"
    access: public_access
    linker_set_key: "_ZN7android8hardware8graphics8composer4V2_118BpHwComposerClient20setInputCommandQueueERKNS0_12MQDescriptorIjLNS0_8MQFlavorE1EEE"
  }
  mangled_function_name: "_ZN7android8hardware8graphics8composer4V2_118BpHwComposerClient20setInputCommandQueueERKNS0_12MQDescriptorIjLNS0_8MQFlavorE1EEE"
  source_file: "/out/soong/.intermediates/hardware/interfaces/graphics/composer/2.1/android.hardware.graphics.composer@2.1_genc++_headers/gen/android/hardware/graphics/composer/2.1/BpHwComposerClient.h"
  parameters {
    basic_abi {
      type_abi {
        name: "const android::hardware::MQDescriptor<unsigned int, android::hardware::MQFlavor::kSynchronizedReadWrite> &"
      }
      name: "descriptor"
      access: public_access
      linker_set_key: "false"
    }
    default_arg: false
  }
}
functions {
  basic_abi {
    type_abi {
      name: "android::hardware::Return<void>"
    }
    name: "android::hardware::graphics::composer::V2_1::BpHwComposerClient::getOutputCommandQueue"
    access: public_access
    linker_set_key: "_ZN7android8hardware8graphics8composer4V2_118BpHwComposerClient21getOutputCommandQueueENSt3__18functionIFvNS3_5ErrorERKNS0_12MQDescriptorIjLNS0_8MQFlavorE1EEEEEE"
  }
  mangled_function_name: "_ZN7android8hardware8graphics8composer4V2_118BpHwComposerClient21getOutputCommandQueueENSt3__18functionIFvNS3_5ErrorERKNS0_12MQDescriptorIjLNS0_8MQFlavorE1EEEEEE"
  source_file: "/out/soong/.intermediates/hardware/interfaces/graphics/composer/2.1/android.hardware.graphics.composer@2.1_genc++_headers/gen/android/hardware/graphics/composer/2.1/BpHwComposerClient.h"
  parameters {
    basic_abi {
      type_abi {
        name: "std::function<void (Error, const MQDescriptor<unsigned int, android::hardware::MQFlavor::kSynchronizedReadWrite> &)>"
      }
      name: "_hidl_cb"
      access: public_access
      linker_set_key: "false"
    }
    default_arg: false
  }
}
functions {
  basic_abi {
    type_abi {
      name: "android::hardware::Return<void>"
    }
    name: "android::hardware::graphics::composer::V2_1::BpHwComposerClient::executeCommands"
    access: public_access
    linker_set_key: "_ZN7android8hardware8graphics8composer4V2_118BpHwComposerClient15executeCommandsEjRKNS0_8hidl_vecINS0_11hidl_handleEEENSt3__18functionIFvNS3_5ErrorEbjS9_EEE"
  }
  mangled_function_name: "_ZN7android8hardware8graphics8composer4V2_118BpHwComposerClient15executeCommandsEjRKNS0_8hidl_vecINS0_11hidl_handleEEENSt3__18functionIFvNS3_5ErrorEbjS9_EEE"
  source_file: "/out/soong/.intermediates/hardware/interfaces/graphics/composer/2.1/android.hardware.graphics.composer@2.1_genc++_headers/gen/android/hardware/graphics/composer/2.1/BpHwComposerClient.h"
  parameters {
    basic_abi {
      type_abi {
        name: "unsigned int"
        size: 4
        alignment: 4
      }
      name: "inLength"
      access: public_access
      linker_set_key: "false"
    }
    default_arg: false
  }
  parameters {
    basic_abi {
      type_abi {
        name: "const android::hardware::hidl_vec<android::hardware::hidl_handle> &"
      }
      name: "inHandles"
      access: public_access
      linker_set_key: "false"
    }
    default_arg: false
  }
  parameters {
    basic_abi {
      type_abi {
        name: "std::function<void (Error, bool, unsigned int, const hidl_vec<hidl_handle> &)>"
      }
      name: "_hidl_cb"
      access: public_access
      linker_set_key: "false"
    }
    default_arg: false
  }
}
functions {
  basic_abi {
    type_abi {
      name: "android::hardware::Return<void>"
    }
    name: "android::hardware::graphics::composer::V2_1::BpHwComposerClient::interfaceChain"
    access: public_access
    linker_set_key: "_ZN7android8hardware8graphics8composer4V2_118BpHwComposerClient14interfaceChainENSt3__18functionIFvRKNS0_8hidl_vecINS0_11hidl_stringEEEEEE"
  }
  mangled_function_name: "_ZN7android8hardware8graphics8composer4V2_118BpHwComposerClient14interfaceChainENSt3__18functionIFvRKNS0_8hidl_vecINS0_11hidl_stringEEEEEE"
  source_file: "/out/soong/.intermediates/hardware/interfaces/graphics/composer/2.1/android.hardware.graphics.composer@2.1_genc++_headers/gen/android/hardware/graphics/composer/2.1/BpHwComposerClient.h"
  parameters {
    basic_abi {
      type_abi {
        name: "std::function<void (const hidl_vec<hidl_string> &)>"
      }
      name: "_hidl_cb"
      access: public_access
      linker_set_key: "false"
    }
    default_arg: false
  }
}
functions {
  basic_abi {
    type_abi {
      name: "android::hardware::Return<void>"
    }
    name: "android::hardware::graphics::composer::V2_1::BpHwComposerClient::debug"
    access: public_access
    linker_set_key: "_ZN7android8hardware8graphics8composer4V2_118BpHwComposerClient5debugERKNS0_11hidl_handleERKNS0_8hidl_vecINS0_11hidl_stringEEE"
  }
  mangled_function_name: "_ZN7android8hardware8graphics8composer4V2_118BpHwComposerClient5debugERKNS0_11hidl_handleERKNS0_8hidl_vecINS0_11hidl_stringEEE"
  source_file: "/out/soong/.intermediates/hardware/interfaces/graphics/composer/2.1/android.hardware.graphics.composer@2.1_genc++_headers/gen/android/hardware/graphics/composer/2.1/BpHwComposerClient.h"
  parameters {
    basic_abi {
      type_abi {
        name: "const android::hardware::hidl_handle &"
      }
      name: "fd"
      access: public_access
      linker_set_key: "false"
    }
    default_arg: false
  }
  parameters {
    basic_abi {
      type_abi {
        name: "const android::hardware::hidl_vec<android::hardware::hidl_string> &"
      }
      name: "options"
      access: public_access
      linker_set_key: "false"
    }
    default_arg: false
  }
}
functions {
  basic_abi {
    type_abi {
      name: "android::hardware::Return<void>"
    }
    name: "android::hardware::graphics::composer::V2_1::BpHwComposerClient::interfaceDescriptor"
    access: public_access
    linker_set_key: "_ZN7android8hardware8graphics8composer4V2_118BpHwComposerClient19interfaceDescriptorENSt3__18functionIFvRKNS0_11hidl_stringEEEE"
  }
  mangled_function_name: "_ZN7android8hardware8graphics8composer4V2_118BpHwComposerClient19interfaceDescriptorENSt3__18functionIFvRKNS0_11hidl_stringEEEE"
  source_file: "/out/soong/.intermediates/hardware/interfaces/graphics/composer/2.1/android.hardware.graphics.composer@2.1_genc++_headers/gen/android/hardware/graphics/composer/2.1/BpHwComposerClient.h"
  parameters {
    basic_abi {
      type_abi {
        name: "std::function<void (const hidl_string &)>"
      }
      name: "_hidl_cb"
      access: public_access
      linker_set_key: "false"
    }
    default_arg: false
  }
}
functions {
  basic_abi {
    type_abi {
      name: "android::hardware::Return<void>"
    }
    name: "android::hardware::graphics::composer::V2_1::BpHwComposerClient::getHashChain"
    access: public_access
    linker_set_key: "_ZN7android8hardware8graphics8composer4V2_118BpHwComposerClient12getHashChainENSt3__18functionIFvRKNS0_8hidl_vecINS0_10hidl_arrayIhLj32EJEEEEEEEE"
  }
  mangled_function_name: "_ZN7android8hardware8graphics8composer4V2_118BpHwComposerClient12getHashChainENSt3__18functionIFvRKNS0_8hidl_vecINS0_10hidl_arrayIhLj32EJEEEEEEEE"
  source_file: "/out/soong/.intermediates/hardware/interfaces/graphics/composer/2.1/android.hardware.graphics.composer@2.1_genc++_headers/gen/android/hardware/graphics/composer/2.1/BpHwComposerClient.h"
  parameters {
    basic_abi {
      type_abi {
        name: "std::function<void (const hidl_vec<hidl_array<unsigned char, 32> > &)>"
      }
      name: "_hidl_cb"
      access: public_access
      linker_set_key: "false"
    }
    default_arg: false
  }
}
functions {
  basic_abi {
    type_abi {
      name: "android::hardware::Return<void>"
    }
    name: "android::hardware::graphics::composer::V2_1::BpHwComposerClient::setHALInstrumentation"
    access: public_access
    linker_set_key: "_ZN7android8hardware8graphics8composer4V2_118BpHwComposerClient21setHALInstrumentationEv"
  }
  mangled_function_name: "_ZN7android8hardware8graphics8composer4V2_118BpHwComposerClient21setHALInstrumentationEv"
  source_file: "/out/soong/.intermediates/hardware/interfaces/graphics/composer/2.1/android.hardware.graphics.composer@2.1_genc++_headers/gen/android/hardware/graphics/composer/2.1/BpHwComposerClient.h"
}
functions {
  basic_abi {
    type_abi {
      name: "android::hardware::Return<bool>"
    }
    name: "android::hardware::graphics::composer::V2_1::BpHwComposerClient::linkToDeath"
    access: public_access
    linker_set_key: "_ZN7android8hardware8graphics8composer4V2_118BpHwComposerClient11linkToDeathERKNS_2spINS0_20hidl_death_recipientEEEy"
  }
  mangled_function_name: "_ZN7android8hardware8graphics8composer4V2_118BpHwComposerClient11linkToDeathERKNS_2spINS0_20hidl_death_recipientEEEy"
  source_file: "/out/soong/.intermediates/hardware/interfaces/graphics/composer/2.1/android.hardware.graphics.composer@2.1_genc++_headers/gen/android/hardware/graphics/composer/2.1/BpHwComposerClient.h"
  parameters {
    basic_abi {
      type_abi {
        name: "const android::sp<android::hardware::hidl_death_recipient> &"
      }
      name: "recipient"
      access: public_access
      linker_set_key: "false"
    }
    default_arg: false
  }
  parameters {
    basic_abi {
      type_abi {
        name: "unsigned long long"
        size: 8
        alignment: 8
      }
      name: "cookie"
      access: public_access
      linker_set_key: "false"
    }
    default_arg: false
  }
}
functions {
  basic_abi {
    type_abi {
      name: "android::hardware::Return<void>"
    }
    name: "android::hardware::graphics::composer::V2_1::BpHwComposerClient::ping"
    access: public_access
    linker_set_key: "_ZN7android8hardware8graphics8composer4V2_118BpHwComposerClient4pingEv"
  }
  mangled_function_name: "_ZN7android8hardware8graphics8composer4V2_118BpHwComposerClient4pingEv"
  source_file: "/out/soong/.intermediates/hardware/interfaces/graphics/composer/2.1/android.hardware.graphics.composer@2.1_genc++_headers/gen/android/hardware/graphics/composer/2.1/BpHwComposerClient.h"
}
functions {
  basic_abi {
    type_abi {
      name: "android::hardware::Return<void>"
    }
    name: "android::hardware::graphics::composer::V2_1::BpHwComposerClient::getDebugInfo"
    access: public_access
    linker_set_key: "_ZN7android8hardware8graphics8composer4V2_118BpHwComposerClient12getDebugInfoENSt3__18functionIFvRKNS_4hidl4base4V1_09DebugInfoEEEE"
  }
  mangled_function_name: "_ZN7android8hardware8graphics8composer4V2_118BpHwComposerClient12getDebugInfoENSt3__18functionIFvRKNS_4hidl4base4V1_09DebugInfoEEEE"
  source_file: "/out/soong/.intermediates/hardware/interfaces/graphics/composer/2.1/android.hardware.graphics.composer@2.1_genc++_headers/gen/android/hardware/graphics/composer/2.1/BpHwComposerClient.h"
  parameters {
    basic_abi {
      type_abi {
        name: "std::function<void (const DebugInfo &)>"
      }
      name: "_hidl_cb"
      access: public_access
      linker_set_key: "false"
    }
    default_arg: false
  }
}
functions {
  basic_abi {
    type_abi {
      name: "android::hardware::Return<void>"
    }
    name: "android::hardware::graphics::composer::V2_1::BpHwComposerClient::notifySyspropsChanged"
    access: public_access
    linker_set_key: "_ZN7android8hardware8graphics8composer4V2_118BpHwComposerClient21notifySyspropsChangedEv"
  }
  mangled_function_name: "_ZN7android8hardware8graphics8composer4V2_118BpHwComposerClient21notifySyspropsChangedEv"
  source_file: "/out/soong/.intermediates/hardware/interfaces/graphics/composer/2.1/android.hardware.graphics.composer@2.1_genc++_headers/gen/android/hardware/graphics/composer/2.1/BpHwComposerClient.h"
}
functions {
  basic_abi {
    type_abi {
      name: "android::hardware::Return<bool>"
    }
    name: "android::hardware::graphics::composer::V2_1::BpHwComposerClient::unlinkToDeath"
    access: public_access
    linker_set_key: "_ZN7android8hardware8graphics8composer4V2_118BpHwComposerClient13unlinkToDeathERKNS_2spINS0_20hidl_death_recipientEEE"
  }
  mangled_function_name: "_ZN7android8hardware8graphics8composer4V2_118BpHwComposerClient13unlinkToDeathERKNS_2spINS0_20hidl_death_recipientEEE"
  source_file: "/out/soong/.intermediates/hardware/interfaces/graphics/composer/2.1/android.hardware.graphics.composer@2.1_genc++_headers/gen/android/hardware/graphics/composer/2.1/BpHwComposerClient.h"
  parameters {
    basic_abi {
      type_abi {
        name: "const android::sp<android::hardware::hidl_death_recipient> &"
      }
      name: "recipient"
      access: public_access
      linker_set_key: "false"
    }
    default_arg: false
  }
}
functions {
  basic_abi {
    type_abi {
      name: "void"
    }
    name: "android::hardware::graphics::composer::V2_1::BpHwComposer::BpHwComposer"
    access: public_access
    linker_set_key: "_ZN7android8hardware8graphics8composer4V2_112BpHwComposerC2ERKNS_2spINS0_7IBinderEEE"
  }
  mangled_function_name: "_ZN7android8hardware8graphics8composer4V2_112BpHwComposerC2ERKNS_2spINS0_7IBinderEEE"
  source_file: "/out/soong/.intermediates/hardware/interfaces/graphics/composer/2.1/android.hardware.graphics.composer@2.1_genc++_headers/gen/android/hardware/graphics/composer/2.1/BpHwComposer.h"
  parameters {
    basic_abi {
      type_abi {
        name: "const android::sp<android::hardware::IBinder> &"
      }
      name: "_hidl_impl"
      access: public_access
      linker_set_key: "false"
    }
    default_arg: false
  }
}
functions {
  basic_abi {
    type_abi {
      name: "void"
    }
    name: "android::hardware::graphics::composer::V2_1::BpHwComposer::BpHwComposer"
    access: public_access
    linker_set_key: "_ZN7android8hardware8graphics8composer4V2_112BpHwComposerC1ERKNS_2spINS0_7IBinderEEE"
  }
  mangled_function_name: "_ZN7android8hardware8graphics8composer4V2_112BpHwComposerC1ERKNS_2spINS0_7IBinderEEE"
  source_file: "/out/soong/.intermediates/hardware/interfaces/graphics/composer/2.1/android.hardware.graphics.composer@2.1_genc++_headers/gen/android/hardware/graphics/composer/2.1/BpHwComposer.h"
  parameters {
    basic_abi {
      type_abi {
        name: "const android::sp<android::hardware::IBinder> &"
      }
      name: "_hidl_impl"
      access: public_access
      linker_set_key: "false"
    }
    default_arg: false
  }
}
functions {
  basic_abi {
    type_abi {
      name: "android::hardware::Return<void>"
    }
    name: "android::hardware::graphics::composer::V2_1::BpHwComposer::_hidl_getCapabilities"
    access: public_access
    linker_set_key: "_ZN7android8hardware8graphics8composer4V2_112BpHwComposer21_hidl_getCapabilitiesEPNS0_10IInterfaceEPNS0_7details16HidlInstrumentorENSt3__18functionIFvRKNS0_8hidl_vecINS3_9IComposer10CapabilityEEEEEE"
  }
  mangled_function_name: "_ZN7android8hardware8graphics8composer4V2_112BpHwComposer21_hidl_getCapabilitiesEPNS0_10IInterfaceEPNS0_7details16HidlInstrumentorENSt3__18functionIFvRKNS0_8hidl_vecINS3_9IComposer10CapabilityEEEEEE"
  source_file: "/out/soong/.intermediates/hardware/interfaces/graphics/composer/2.1/android.hardware.graphics.composer@2.1_genc++_headers/gen/android/hardware/graphics/composer/2.1/BpHwComposer.h"
  parameters {
    basic_abi {
      type_abi {
        name: "android::hardware::IInterface *"
        size: 4
        alignment: 4
      }
      name: "_hidl_this"
      access: public_access
      linker_set_key: "false"
    }
    default_arg: false
  }
  parameters {
    basic_abi {
      type_abi {
        name: "android::hardware::details::HidlInstrumentor *"
        size: 4
        alignment: 4
      }
      name: "_hidl_this_instrumentor"
      access: public_access
      linker_set_key: "false"
    }
    default_arg: false
  }
  parameters {
    basic_abi {
      type_abi {
        name: "std::function<void (const hidl_vec<Capability> &)>"
      }
      name: "_hidl_cb"
      access: public_access
      linker_set_key: "false"
    }
    default_arg: false
  }
}
functions {
  basic_abi {
    type_abi {
      name: "android::hardware::Return<void>"
    }
    name: "android::hardware::graphics::composer::V2_1::BpHwComposer::_hidl_dumpDebugInfo"
    access: public_access
    linker_set_key: "_ZN7android8hardware8graphics8composer4V2_112BpHwComposer19_hidl_dumpDebugInfoEPNS0_10IInterfaceEPNS0_7details16HidlInstrumentorENSt3__18functionIFvRKNS0_11hidl_stringEEEE"
  }
  mangled_function_name: "_ZN7android8hardware8graphics8composer4V2_112BpHwComposer19_hidl_dumpDebugInfoEPNS0_10IInterfaceEPNS0_7details16HidlInstrumentorENSt3__18functionIFvRKNS0_11hidl_stringEEEE"
  source_file: "/out/soong/.intermediates/hardware/interfaces/graphics/composer/2.1/android.hardware.graphics.composer@2.1_genc++_headers/gen/android/hardware/graphics/composer/2.1/BpHwComposer.h"
  parameters {
    basic_abi {
      type_abi {
        name: "android::hardware::IInterface *"
        size: 4
        alignment: 4
      }
      name: "_hidl_this"
      access: public_access
      linker_set_key: "false"
    }
    default_arg: false
  }
  parameters {
    basic_abi {
      type_abi {
        name: "android::hardware::details::HidlInstrumentor *"
        size: 4
        alignment: 4
      }
      name: "_hidl_this_instrumentor"
      access: public_access
      linker_set_key: "false"
    }
    default_arg: false
  }
  parameters {
    basic_abi {
      type_abi {
        name: "std::function<void (const hidl_string &)>"
      }
      name: "_hidl_cb"
      access: public_access
      linker_set_key: "false"
    }
    default_arg: false
  }
}
functions {
  basic_abi {
    type_abi {
      name: "android::hardware::Return<void>"
    }
    name: "android::hardware::graphics::composer::V2_1::BpHwComposer::_hidl_createClient"
    access: public_access
    linker_set_key: "_ZN7android8hardware8graphics8composer4V2_112BpHwComposer18_hidl_createClientEPNS0_10IInterfaceEPNS0_7details16HidlInstrumentorENSt3__18functionIFvNS3_5ErrorERKNS_2spINS3_15IComposerClientEEEEEE"
  }
  mangled_function_name: "_ZN7android8hardware8graphics8composer4V2_112BpHwComposer18_hidl_createClientEPNS0_10IInterfaceEPNS0_7details16HidlInstrumentorENSt3__18functionIFvNS3_5ErrorERKNS_2spINS3_15IComposerClientEEEEEE"
  source_file: "/out/soong/.intermediates/hardware/interfaces/graphics/composer/2.1/android.hardware.graphics.composer@2.1_genc++_headers/gen/android/hardware/graphics/composer/2.1/BpHwComposer.h"
  parameters {
    basic_abi {
      type_abi {
        name: "android::hardware::IInterface *"
        size: 4
        alignment: 4
      }
      name: "_hidl_this"
      access: public_access
      linker_set_key: "false"
    }
    default_arg: false
  }
  parameters {
    basic_abi {
      type_abi {
        name: "android::hardware::details::HidlInstrumentor *"
        size: 4
        alignment: 4
      }
      name: "_hidl_this_instrumentor"
      access: public_access
      linker_set_key: "false"
    }
    default_arg: false
  }
  parameters {
    basic_abi {
      type_abi {
        name: "std::function<void (Error, const sp<IComposerClient> &)>"
      }
      name: "_hidl_cb"
      access: public_access
      linker_set_key: "false"
    }
    default_arg: false
  }
}
functions {
  basic_abi {
    type_abi {
      name: "android::hardware::Return<void>"
    }
    name: "android::hardware::graphics::composer::V2_1::BpHwComposer::getCapabilities"
    access: public_access
    linker_set_key: "_ZN7android8hardware8graphics8composer4V2_112BpHwComposer15getCapabilitiesENSt3__18functionIFvRKNS0_8hidl_vecINS3_9IComposer10CapabilityEEEEEE"
  }
  mangled_function_name: "_ZN7android8hardware8graphics8composer4V2_112BpHwComposer15getCapabilitiesENSt3__18functionIFvRKNS0_8hidl_vecINS3_9IComposer10CapabilityEEEEEE"
  source_file: "/out/soong/.intermediates/hardware/interfaces/graphics/composer/2.1/android.hardware.graphics.composer@2.1_genc++_headers/gen/android/hardware/graphics/composer/2.1/BpHwComposer.h"
  parameters {
    basic_abi {
      type_abi {
        name: "std::function<void (const hidl_vec<Capability> &)>"
      }
      name: "_hidl_cb"
      access: public_access
      linker_set_key: "false"
    }
    default_arg: false
  }
}
functions {
  basic_abi {
    type_abi {
      name: "android::hardware::Return<void>"
    }
    name: "android::hardware::graphics::composer::V2_1::BpHwComposer::dumpDebugInfo"
    access: public_access
    linker_set_key: "_ZN7android8hardware8graphics8composer4V2_112BpHwComposer13dumpDebugInfoENSt3__18functionIFvRKNS0_11hidl_stringEEEE"
  }
  mangled_function_name: "_ZN7android8hardware8graphics8composer4V2_112BpHwComposer13dumpDebugInfoENSt3__18functionIFvRKNS0_11hidl_stringEEEE"
  source_file: "/out/soong/.intermediates/hardware/interfaces/graphics/composer/2.1/android.hardware.graphics.composer@2.1_genc++_headers/gen/android/hardware/graphics/composer/2.1/BpHwComposer.h"
  parameters {
    basic_abi {
      type_abi {
        name: "std::function<void (const hidl_string &)>"
      }
      name: "_hidl_cb"
      access: public_access
      linker_set_key: "false"
    }
    default_arg: false
  }
}
functions {
  basic_abi {
    type_abi {
      name: "android::hardware::Return<void>"
    }
    name: "android::hardware::graphics::composer::V2_1::BpHwComposer::createClient"
    access: public_access
    linker_set_key: "_ZN7android8hardware8graphics8composer4V2_112BpHwComposer12createClientENSt3__18functionIFvNS3_5ErrorERKNS_2spINS3_15IComposerClientEEEEEE"
  }
  mangled_function_name: "_ZN7android8hardware8graphics8composer4V2_112BpHwComposer12createClientENSt3__18functionIFvNS3_5ErrorERKNS_2spINS3_15IComposerClientEEEEEE"
  source_file: "/out/soong/.intermediates/hardware/interfaces/graphics/composer/2.1/android.hardware.graphics.composer@2.1_genc++_headers/gen/android/hardware/graphics/composer/2.1/BpHwComposer.h"
  parameters {
    basic_abi {
      type_abi {
        name: "std::function<void (Error, const sp<IComposerClient> &)>"
      }
      name: "_hidl_cb"
      access: public_access
      linker_set_key: "false"
    }
    default_arg: false
  }
}
functions {
  basic_abi {
    type_abi {
      name: "android::hardware::Return<void>"
    }
    name: "android::hardware::graphics::composer::V2_1::BpHwComposer::interfaceChain"
    access: public_access
    linker_set_key: "_ZN7android8hardware8graphics8composer4V2_112BpHwComposer14interfaceChainENSt3__18functionIFvRKNS0_8hidl_vecINS0_11hidl_stringEEEEEE"
  }
  mangled_function_name: "_ZN7android8hardware8graphics8composer4V2_112BpHwComposer14interfaceChainENSt3__18functionIFvRKNS0_8hidl_vecINS0_11hidl_stringEEEEEE"
  source_file: "/out/soong/.intermediates/hardware/interfaces/graphics/composer/2.1/android.hardware.graphics.composer@2.1_genc++_headers/gen/android/hardware/graphics/composer/2.1/BpHwComposer.h"
  parameters {
    basic_abi {
      type_abi {
        name: "std::function<void (const hidl_vec<hidl_string> &)>"
      }
      name: "_hidl_cb"
      access: public_access
      linker_set_key: "false"
    }
    default_arg: false
  }
}
functions {
  basic_abi {
    type_abi {
      name: "android::hardware::Return<void>"
    }
    name: "android::hardware::graphics::composer::V2_1::BpHwComposer::debug"
    access: public_access
    linker_set_key: "_ZN7android8hardware8graphics8composer4V2_112BpHwComposer5debugERKNS0_11hidl_handleERKNS0_8hidl_vecINS0_11hidl_stringEEE"
  }
  mangled_function_name: "_ZN7android8hardware8graphics8composer4V2_112BpHwComposer5debugERKNS0_11hidl_handleERKNS0_8hidl_vecINS0_11hidl_stringEEE"
  source_file: "/out/soong/.intermediates/hardware/interfaces/graphics/composer/2.1/android.hardware.graphics.composer@2.1_genc++_headers/gen/android/hardware/graphics/composer/2.1/BpHwComposer.h"
  parameters {
    basic_abi {
      type_abi {
        name: "const android::hardware::hidl_handle &"
      }
      name: "fd"
      access: public_access
      linker_set_key: "false"
    }
    default_arg: false
  }
  parameters {
    basic_abi {
      type_abi {
        name: "const android::hardware::hidl_vec<android::hardware::hidl_string> &"
      }
      name: "options"
      access: public_access
      linker_set_key: "false"
    }
    default_arg: false
  }
}
functions {
  basic_abi {
    type_abi {
      name: "android::hardware::Return<void>"
    }
    name: "android::hardware::graphics::composer::V2_1::BpHwComposer::interfaceDescriptor"
    access: public_access
    linker_set_key: "_ZN7android8hardware8graphics8composer4V2_112BpHwComposer19interfaceDescriptorENSt3__18functionIFvRKNS0_11hidl_stringEEEE"
  }
  mangled_function_name: "_ZN7android8hardware8graphics8composer4V2_112BpHwComposer19interfaceDescriptorENSt3__18functionIFvRKNS0_11hidl_stringEEEE"
  source_file: "/out/soong/.intermediates/hardware/interfaces/graphics/composer/2.1/android.hardware.graphics.composer@2.1_genc++_headers/gen/android/hardware/graphics/composer/2.1/BpHwComposer.h"
  parameters {
    basic_abi {
      type_abi {
        name: "std::function<void (const hidl_string &)>"
      }
      name: "_hidl_cb"
      access: public_access
      linker_set_key: "false"
    }
    default_arg: false
  }
}
functions {
  basic_abi {
    type_abi {
      name: "android::hardware::Return<void>"
    }
    name: "android::hardware::graphics::composer::V2_1::BpHwComposer::getHashChain"
    access: public_access
    linker_set_key: "_ZN7android8hardware8graphics8composer4V2_112BpHwComposer12getHashChainENSt3__18functionIFvRKNS0_8hidl_vecINS0_10hidl_arrayIhLj32EJEEEEEEEE"
  }
  mangled_function_name: "_ZN7android8hardware8graphics8composer4V2_112BpHwComposer12getHashChainENSt3__18functionIFvRKNS0_8hidl_vecINS0_10hidl_arrayIhLj32EJEEEEEEEE"
  source_file: "/out/soong/.intermediates/hardware/interfaces/graphics/composer/2.1/android.hardware.graphics.composer@2.1_genc++_headers/gen/android/hardware/graphics/composer/2.1/BpHwComposer.h"
  parameters {
    basic_abi {
      type_abi {
        name: "std::function<void (const hidl_vec<hidl_array<unsigned char, 32> > &)>"
      }
      name: "_hidl_cb"
      access: public_access
      linker_set_key: "false"
    }
    default_arg: false
  }
}
functions {
  basic_abi {
    type_abi {
      name: "android::hardware::Return<void>"
    }
    name: "android::hardware::graphics::composer::V2_1::BpHwComposer::setHALInstrumentation"
    access: public_access
    linker_set_key: "_ZN7android8hardware8graphics8composer4V2_112BpHwComposer21setHALInstrumentationEv"
  }
  mangled_function_name: "_ZN7android8hardware8graphics8composer4V2_112BpHwComposer21setHALInstrumentationEv"
  source_file: "/out/soong/.intermediates/hardware/interfaces/graphics/composer/2.1/android.hardware.graphics.composer@2.1_genc++_headers/gen/android/hardware/graphics/composer/2.1/BpHwComposer.h"
}
functions {
  basic_abi {
    type_abi {
      name: "android::hardware::Return<bool>"
    }
    name: "android::hardware::graphics::composer::V2_1::BpHwComposer::linkToDeath"
    access: public_access
    linker_set_key: "_ZN7android8hardware8graphics8composer4V2_112BpHwComposer11linkToDeathERKNS_2spINS0_20hidl_death_recipientEEEy"
  }
  mangled_function_name: "_ZN7android8hardware8graphics8composer4V2_112BpHwComposer11linkToDeathERKNS_2spINS0_20hidl_death_recipientEEEy"
  source_file: "/out/soong/.intermediates/hardware/interfaces/graphics/composer/2.1/android.hardware.graphics.composer@2.1_genc++_headers/gen/android/hardware/graphics/composer/2.1/BpHwComposer.h"
  parameters {
    basic_abi {
      type_abi {
        name: "const android::sp<android::hardware::hidl_death_recipient> &"
      }
      name: "recipient"
      access: public_access
      linker_set_key: "false"
    }
    default_arg: false
  }
  parameters {
    basic_abi {
      type_abi {
        name: "unsigned long long"
        size: 8
        alignment: 8
      }
      name: "cookie"
      access: public_access
      linker_set_key: "false"
    }
    default_arg: false
  }
}
functions {
  basic_abi {
    type_abi {
      name: "android::hardware::Return<void>"
    }
    name: "android::hardware::graphics::composer::V2_1::BpHwComposer::ping"
    access: public_access
    linker_set_key: "_ZN7android8hardware8graphics8composer4V2_112BpHwComposer4pingEv"
  }
  mangled_function_name: "_ZN7android8hardware8graphics8composer4V2_112BpHwComposer4pingEv"
  source_file: "/out/soong/.intermediates/hardware/interfaces/graphics/composer/2.1/android.hardware.graphics.composer@2.1_genc++_headers/gen/android/hardware/graphics/composer/2.1/BpHwComposer.h"
}
functions {
  basic_abi {
    type_abi {
      name: "android::hardware::Return<void>"
    }
    name: "android::hardware::graphics::composer::V2_1::BpHwComposer::getDebugInfo"
    access: public_access
    linker_set_key: "_ZN7android8hardware8graphics8composer4V2_112BpHwComposer12getDebugInfoENSt3__18functionIFvRKNS_4hidl4base4V1_09DebugInfoEEEE"
  }
  mangled_function_name: "_ZN7android8hardware8graphics8composer4V2_112BpHwComposer12getDebugInfoENSt3__18functionIFvRKNS_4hidl4base4V1_09DebugInfoEEEE"
  source_file: "/out/soong/.intermediates/hardware/interfaces/graphics/composer/2.1/android.hardware.graphics.composer@2.1_genc++_headers/gen/android/hardware/graphics/composer/2.1/BpHwComposer.h"
  parameters {
    basic_abi {
      type_abi {
        name: "std::function<void (const DebugInfo &)>"
      }
      name: "_hidl_cb"
      access: public_access
      linker_set_key: "false"
    }
    default_arg: false
  }
}
functions {
  basic_abi {
    type_abi {
      name: "android::hardware::Return<void>"
    }
    name: "android::hardware::graphics::composer::V2_1::BpHwComposer::notifySyspropsChanged"
    access: public_access
    linker_set_key: "_ZN7android8hardware8graphics8composer4V2_112BpHwComposer21notifySyspropsChangedEv"
  }
  mangled_function_name: "_ZN7android8hardware8graphics8composer4V2_112BpHwComposer21notifySyspropsChangedEv"
  source_file: "/out/soong/.intermediates/hardware/interfaces/graphics/composer/2.1/android.hardware.graphics.composer@2.1_genc++_headers/gen/android/hardware/graphics/composer/2.1/BpHwComposer.h"
}
functions {
  basic_abi {
    type_abi {
      name: "android::hardware::Return<bool>"
    }
    name: "android::hardware::graphics::composer::V2_1::BpHwComposer::unlinkToDeath"
    access: public_access
    linker_set_key: "_ZN7android8hardware8graphics8composer4V2_112BpHwComposer13unlinkToDeathERKNS_2spINS0_20hidl_death_recipientEEE"
  }
  mangled_function_name: "_ZN7android8hardware8graphics8composer4V2_112BpHwComposer13unlinkToDeathERKNS_2spINS0_20hidl_death_recipientEEE"
  source_file: "/out/soong/.intermediates/hardware/interfaces/graphics/composer/2.1/android.hardware.graphics.composer@2.1_genc++_headers/gen/android/hardware/graphics/composer/2.1/BpHwComposer.h"
  parameters {
    basic_abi {
      type_abi {
        name: "const android::sp<android::hardware::hidl_death_recipient> &"
      }
      name: "recipient"
      access: public_access
      linker_set_key: "false"
    }
    default_arg: false
  }
}
functions {
  basic_abi {
    type_abi {
      name: "void"
    }
    name: "android::hardware::graphics::composer::V2_1::BnHwComposer::BnHwComposer"
    access: public_access
    linker_set_key: "_ZN7android8hardware8graphics8composer4V2_112BnHwComposerC2ERKNS_2spINS3_9IComposerEEE"
  }
  mangled_function_name: "_ZN7android8hardware8graphics8composer4V2_112BnHwComposerC2ERKNS_2spINS3_9IComposerEEE"
  source_file: "/out/soong/.intermediates/hardware/interfaces/graphics/composer/2.1/android.hardware.graphics.composer@2.1_genc++_headers/gen/android/hardware/graphics/composer/2.1/BnHwComposer.h"
  parameters {
    basic_abi {
      type_abi {
        name: "const android::sp<android::hardware::graphics::composer::V2_1::IComposer> &"
      }
      name: "_hidl_impl"
      access: public_access
      linker_set_key: "false"
    }
    default_arg: false
  }
}
functions {
  basic_abi {
    type_abi {
      name: "void"
    }
    name: "android::hardware::graphics::composer::V2_1::BnHwComposer::BnHwComposer"
    access: public_access
    linker_set_key: "_ZN7android8hardware8graphics8composer4V2_112BnHwComposerC1ERKNS_2spINS3_9IComposerEEE"
  }
  mangled_function_name: "_ZN7android8hardware8graphics8composer4V2_112BnHwComposerC1ERKNS_2spINS3_9IComposerEEE"
  source_file: "/out/soong/.intermediates/hardware/interfaces/graphics/composer/2.1/android.hardware.graphics.composer@2.1_genc++_headers/gen/android/hardware/graphics/composer/2.1/BnHwComposer.h"
  parameters {
    basic_abi {
      type_abi {
        name: "const android::sp<android::hardware::graphics::composer::V2_1::IComposer> &"
      }
      name: "_hidl_impl"
      access: public_access
      linker_set_key: "false"
    }
    default_arg: false
  }
}
functions {
  basic_abi {
    type_abi {
      name: "void"
    }
    name: "android::hardware::graphics::composer::V2_1::BnHwComposer::~BnHwComposer"
    access: public_access
    linker_set_key: "_ZN7android8hardware8graphics8composer4V2_112BnHwComposerD2Ev"
  }
  mangled_function_name: "_ZN7android8hardware8graphics8composer4V2_112BnHwComposerD2Ev"
  source_file: "/out/soong/.intermediates/hardware/interfaces/graphics/composer/2.1/android.hardware.graphics.composer@2.1_genc++_headers/gen/android/hardware/graphics/composer/2.1/BnHwComposer.h"
}
functions {
  basic_abi {
    type_abi {
      name: "void"
    }
    name: "android::hardware::graphics::composer::V2_1::BnHwComposer::~BnHwComposer"
    access: public_access
    linker_set_key: "_ZN7android8hardware8graphics8composer4V2_112BnHwComposerD1Ev"
  }
  mangled_function_name: "_ZN7android8hardware8graphics8composer4V2_112BnHwComposerD1Ev"
  source_file: "/out/soong/.intermediates/hardware/interfaces/graphics/composer/2.1/android.hardware.graphics.composer@2.1_genc++_headers/gen/android/hardware/graphics/composer/2.1/BnHwComposer.h"
}
functions {
  basic_abi {
    type_abi {
      name: "void"
    }
    name: "android::hardware::graphics::composer::V2_1::BnHwComposer::~BnHwComposer"
    access: public_access
    linker_set_key: "_ZN7android8hardware8graphics8composer4V2_112BnHwComposerD0Ev"
  }
  mangled_function_name: "_ZN7android8hardware8graphics8composer4V2_112BnHwComposerD0Ev"
  source_file: "/out/soong/.intermediates/hardware/interfaces/graphics/composer/2.1/android.hardware.graphics.composer@2.1_genc++_headers/gen/android/hardware/graphics/composer/2.1/BnHwComposer.h"
}
functions {
  basic_abi {
    type_abi {
      name: "int"
      size: 4
      alignment: 4
    }
    name: "android::hardware::graphics::composer::V2_1::BnHwComposer::onTransact"
    access: public_access
    linker_set_key: "_ZN7android8hardware8graphics8composer4V2_112BnHwComposer10onTransactEjRKNS0_6ParcelEPS5_jNSt3__18functionIFvRS5_EEE"
  }
  mangled_function_name: "_ZN7android8hardware8graphics8composer4V2_112BnHwComposer10onTransactEjRKNS0_6ParcelEPS5_jNSt3__18functionIFvRS5_EEE"
  source_file: "/out/soong/.intermediates/hardware/interfaces/graphics/composer/2.1/android.hardware.graphics.composer@2.1_genc++_headers/gen/android/hardware/graphics/composer/2.1/BnHwComposer.h"
  parameters {
    basic_abi {
      type_abi {
        name: "unsigned int"
        size: 4
        alignment: 4
      }
      name: "_hidl_code"
      access: public_access
      linker_set_key: "false"
    }
    default_arg: false
  }
  parameters {
    basic_abi {
      type_abi {
        name: "const android::hardware::Parcel &"
      }
      name: "_hidl_data"
      access: public_access
      linker_set_key: "false"
    }
    default_arg: false
  }
  parameters {
    basic_abi {
      type_abi {
        name: "android::hardware::Parcel *"
        size: 4
        alignment: 4
      }
      name: "_hidl_reply"
      access: public_access
      linker_set_key: "false"
    }
    default_arg: false
  }
  parameters {
    basic_abi {
      type_abi {
        name: "unsigned int"
        size: 4
        alignment: 4
      }
      name: "_hidl_flags"
      access: public_access
      linker_set_key: "true"
    }
    default_arg: true
  }
  parameters {
    basic_abi {
      type_abi {
        name: "std::function<void (Parcel &)>"
      }
      name: "_hidl_cb"
      access: public_access
      linker_set_key: "true"
    }
    default_arg: true
  }
}
functions {
  basic_abi {
    type_abi {
      name: "int"
      size: 4
      alignment: 4
    }
    name: "android::hardware::graphics::composer::V2_1::BnHwComposer::_hidl_getCapabilities"
    access: public_access
    linker_set_key: "_ZN7android8hardware8graphics8composer4V2_112BnHwComposer21_hidl_getCapabilitiesEPNS_4hidl4base4V1_08BnHwBaseERKNS0_6ParcelEPSA_NSt3__18functionIFvRSA_EEE"
  }
  mangled_function_name: "_ZN7android8hardware8graphics8composer4V2_112BnHwComposer21_hidl_getCapabilitiesEPNS_4hidl4base4V1_08BnHwBaseERKNS0_6ParcelEPSA_NSt3__18functionIFvRSA_EEE"
  source_file: "/out/soong/.intermediates/hardware/interfaces/graphics/composer/2.1/android.hardware.graphics.composer@2.1_genc++_headers/gen/android/hardware/graphics/composer/2.1/BnHwComposer.h"
  parameters {
    basic_abi {
      type_abi {
        name: "android::hidl::base::V1_0::BnHwBase *"
        size: 4
        alignment: 4
      }
      name: "_hidl_this"
      access: public_access
      linker_set_key: "false"
    }
    default_arg: false
  }
  parameters {
    basic_abi {
      type_abi {
        name: "const android::hardware::Parcel &"
      }
      name: "_hidl_data"
      access: public_access
      linker_set_key: "false"
    }
    default_arg: false
  }
  parameters {
    basic_abi {
      type_abi {
        name: "android::hardware::Parcel *"
        size: 4
        alignment: 4
      }
      name: "_hidl_reply"
      access: public_access
      linker_set_key: "false"
    }
    default_arg: false
  }
  parameters {
    basic_abi {
      type_abi {
        name: "std::function<void (Parcel &)>"
      }
      name: "_hidl_cb"
      access: public_access
      linker_set_key: "false"
    }
    default_arg: false
  }
}
functions {
  basic_abi {
    type_abi {
      name: "int"
      size: 4
      alignment: 4
    }
    name: "android::hardware::graphics::composer::V2_1::BnHwComposer::_hidl_dumpDebugInfo"
    access: public_access
    linker_set_key: "_ZN7android8hardware8graphics8composer4V2_112BnHwComposer19_hidl_dumpDebugInfoEPNS_4hidl4base4V1_08BnHwBaseERKNS0_6ParcelEPSA_NSt3__18functionIFvRSA_EEE"
  }
  mangled_function_name: "_ZN7android8hardware8graphics8composer4V2_112BnHwComposer19_hidl_dumpDebugInfoEPNS_4hidl4base4V1_08BnHwBaseERKNS0_6ParcelEPSA_NSt3__18functionIFvRSA_EEE"
  source_file: "/out/soong/.intermediates/hardware/interfaces/graphics/composer/2.1/android.hardware.graphics.composer@2.1_genc++_headers/gen/android/hardware/graphics/composer/2.1/BnHwComposer.h"
  parameters {
    basic_abi {
      type_abi {
        name: "android::hidl::base::V1_0::BnHwBase *"
        size: 4
        alignment: 4
      }
      name: "_hidl_this"
      access: public_access
      linker_set_key: "false"
    }
    default_arg: false
  }
  parameters {
    basic_abi {
      type_abi {
        name: "const android::hardware::Parcel &"
      }
      name: "_hidl_data"
      access: public_access
      linker_set_key: "false"
    }
    default_arg: false
  }
  parameters {
    basic_abi {
      type_abi {
        name: "android::hardware::Parcel *"
        size: 4
        alignment: 4
      }
      name: "_hidl_reply"
      access: public_access
      linker_set_key: "false"
    }
    default_arg: false
  }
  parameters {
    basic_abi {
      type_abi {
        name: "std::function<void (Parcel &)>"
      }
      name: "_hidl_cb"
      access: public_access
      linker_set_key: "false"
    }
    default_arg: false
  }
}
functions {
  basic_abi {
    type_abi {
      name: "int"
      size: 4
      alignment: 4
    }
    name: "android::hardware::graphics::composer::V2_1::BnHwComposer::_hidl_createClient"
    access: public_access
    linker_set_key: "_ZN7android8hardware8graphics8composer4V2_112BnHwComposer18_hidl_createClientEPNS_4hidl4base4V1_08BnHwBaseERKNS0_6ParcelEPSA_NSt3__18functionIFvRSA_EEE"
  }
  mangled_function_name: "_ZN7android8hardware8graphics8composer4V2_112BnHwComposer18_hidl_createClientEPNS_4hidl4base4V1_08BnHwBaseERKNS0_6ParcelEPSA_NSt3__18functionIFvRSA_EEE"
  source_file: "/out/soong/.intermediates/hardware/interfaces/graphics/composer/2.1/android.hardware.graphics.composer@2.1_genc++_headers/gen/android/hardware/graphics/composer/2.1/BnHwComposer.h"
  parameters {
    basic_abi {
      type_abi {
        name: "android::hidl::base::V1_0::BnHwBase *"
        size: 4
        alignment: 4
      }
      name: "_hidl_this"
      access: public_access
      linker_set_key: "false"
    }
    default_arg: false
  }
  parameters {
    basic_abi {
      type_abi {
        name: "const android::hardware::Parcel &"
      }
      name: "_hidl_data"
      access: public_access
      linker_set_key: "false"
    }
    default_arg: false
  }
  parameters {
    basic_abi {
      type_abi {
        name: "android::hardware::Parcel *"
        size: 4
        alignment: 4
      }
      name: "_hidl_reply"
      access: public_access
      linker_set_key: "false"
    }
    default_arg: false
  }
  parameters {
    basic_abi {
      type_abi {
        name: "std::function<void (Parcel &)>"
      }
      name: "_hidl_cb"
      access: public_access
      linker_set_key: "false"
    }
    default_arg: false
  }
}
functions {
  basic_abi {
    type_abi {
      name: "android::hardware::Return<void>"
    }
    name: "android::hardware::graphics::composer::V2_1::BnHwComposer::ping"
    access: private_access
    linker_set_key: "_ZN7android8hardware8graphics8composer4V2_112BnHwComposer4pingEv"
  }
  mangled_function_name: "_ZN7android8hardware8graphics8composer4V2_112BnHwComposer4pingEv"
  source_file: "/out/soong/.intermediates/hardware/interfaces/graphics/composer/2.1/android.hardware.graphics.composer@2.1_genc++_headers/gen/android/hardware/graphics/composer/2.1/BnHwComposer.h"
}
functions {
  basic_abi {
    type_abi {
      name: "android::hardware::Return<void>"
    }
    name: "android::hardware::graphics::composer::V2_1::BnHwComposer::getDebugInfo"
    access: private_access
    linker_set_key: "_ZN7android8hardware8graphics8composer4V2_112BnHwComposer12getDebugInfoENSt3__18functionIFvRKNS_4hidl4base4V1_09DebugInfoEEEE"
  }
  mangled_function_name: "_ZN7android8hardware8graphics8composer4V2_112BnHwComposer12getDebugInfoENSt3__18functionIFvRKNS_4hidl4base4V1_09DebugInfoEEEE"
  source_file: "/out/soong/.intermediates/hardware/interfaces/graphics/composer/2.1/android.hardware.graphics.composer@2.1_genc++_headers/gen/android/hardware/graphics/composer/2.1/BnHwComposer.h"
  parameters {
    basic_abi {
      type_abi {
        name: "std::function<void (const DebugInfo &)>"
      }
      name: "_hidl_cb"
      access: public_access
      linker_set_key: "false"
    }
    default_arg: false
  }
}
functions {
  basic_abi {
    type_abi {
      name: "void"
    }
    name: "android::hardware::graphics::composer::V2_1::BsComposer::BsComposer"
    access: public_access
    linker_set_key: "_ZN7android8hardware8graphics8composer4V2_110BsComposerC2ENS_2spINS3_9IComposerEEE"
  }
  mangled_function_name: "_ZN7android8hardware8graphics8composer4V2_110BsComposerC2ENS_2spINS3_9IComposerEEE"
  source_file: "/out/soong/.intermediates/hardware/interfaces/graphics/composer/2.1/android.hardware.graphics.composer@2.1_genc++_headers/gen/android/hardware/graphics/composer/2.1/BsComposer.h"
  parameters {
    basic_abi {
      type_abi {
        name: "const android::sp<android::hardware::graphics::composer::V2_1::IComposer>"
      }
      name: "impl"
      access: public_access
      linker_set_key: "false"
    }
    default_arg: false
  }
}
functions {
  basic_abi {
    type_abi {
      name: "void"
    }
    name: "android::hardware::graphics::composer::V2_1::BsComposer::BsComposer"
    access: public_access
    linker_set_key: "_ZN7android8hardware8graphics8composer4V2_110BsComposerC1ENS_2spINS3_9IComposerEEE"
  }
  mangled_function_name: "_ZN7android8hardware8graphics8composer4V2_110BsComposerC1ENS_2spINS3_9IComposerEEE"
  source_file: "/out/soong/.intermediates/hardware/interfaces/graphics/composer/2.1/android.hardware.graphics.composer@2.1_genc++_headers/gen/android/hardware/graphics/composer/2.1/BsComposer.h"
  parameters {
    basic_abi {
      type_abi {
        name: "const android::sp<android::hardware::graphics::composer::V2_1::IComposer>"
      }
      name: "impl"
      access: public_access
      linker_set_key: "false"
    }
    default_arg: false
  }
}
functions {
  basic_abi {
    type_abi {
      name: "android::hardware::Return<void>"
    }
    name: "android::hardware::graphics::composer::V2_1::BsComposer::addOnewayTask"
    access: private_access
    linker_set_key: "_ZN7android8hardware8graphics8composer4V2_110BsComposer13addOnewayTaskENSt3__18functionIFvvEEE"
  }
  mangled_function_name: "_ZN7android8hardware8graphics8composer4V2_110BsComposer13addOnewayTaskENSt3__18functionIFvvEEE"
  source_file: "/out/soong/.intermediates/hardware/interfaces/graphics/composer/2.1/android.hardware.graphics.composer@2.1_genc++_headers/gen/android/hardware/graphics/composer/2.1/BsComposer.h"
  parameters {
    basic_abi {
      type_abi {
        name: "std::function<void ()>"
      }
      name: ""
      access: public_access
      linker_set_key: "false"
    }
    default_arg: false
  }
}
functions {
  basic_abi {
    type_abi {
      name: "void"
    }
    name: "android::hardware::graphics::composer::V2_1::BsComposerCallback::BsComposerCallback"
    access: public_access
    linker_set_key: "_ZN7android8hardware8graphics8composer4V2_118BsComposerCallbackC2ENS_2spINS3_17IComposerCallbackEEE"
  }
  mangled_function_name: "_ZN7android8hardware8graphics8composer4V2_118BsComposerCallbackC2ENS_2spINS3_17IComposerCallbackEEE"
  source_file: "/out/soong/.intermediates/hardware/interfaces/graphics/composer/2.1/android.hardware.graphics.composer@2.1_genc++_headers/gen/android/hardware/graphics/composer/2.1/BsComposerCallback.h"
  parameters {
    basic_abi {
      type_abi {
        name: "const android::sp<android::hardware::graphics::composer::V2_1::IComposerCallback>"
      }
      name: "impl"
      access: public_access
      linker_set_key: "false"
    }
    default_arg: false
  }
}
functions {
  basic_abi {
    type_abi {
      name: "void"
    }
    name: "android::hardware::graphics::composer::V2_1::BsComposerCallback::BsComposerCallback"
    access: public_access
    linker_set_key: "_ZN7android8hardware8graphics8composer4V2_118BsComposerCallbackC1ENS_2spINS3_17IComposerCallbackEEE"
  }
  mangled_function_name: "_ZN7android8hardware8graphics8composer4V2_118BsComposerCallbackC1ENS_2spINS3_17IComposerCallbackEEE"
  source_file: "/out/soong/.intermediates/hardware/interfaces/graphics/composer/2.1/android.hardware.graphics.composer@2.1_genc++_headers/gen/android/hardware/graphics/composer/2.1/BsComposerCallback.h"
  parameters {
    basic_abi {
      type_abi {
        name: "const android::sp<android::hardware::graphics::composer::V2_1::IComposerCallback>"
      }
      name: "impl"
      access: public_access
      linker_set_key: "false"
    }
    default_arg: false
  }
}
functions {
  basic_abi {
    type_abi {
      name: "android::hardware::Return<void>"
    }
    name: "android::hardware::graphics::composer::V2_1::BsComposerCallback::addOnewayTask"
    access: private_access
    linker_set_key: "_ZN7android8hardware8graphics8composer4V2_118BsComposerCallback13addOnewayTaskENSt3__18functionIFvvEEE"
  }
  mangled_function_name: "_ZN7android8hardware8graphics8composer4V2_118BsComposerCallback13addOnewayTaskENSt3__18functionIFvvEEE"
  source_file: "/out/soong/.intermediates/hardware/interfaces/graphics/composer/2.1/android.hardware.graphics.composer@2.1_genc++_headers/gen/android/hardware/graphics/composer/2.1/BsComposerCallback.h"
  parameters {
    basic_abi {
      type_abi {
        name: "std::function<void ()>"
      }
      name: ""
      access: public_access
      linker_set_key: "false"
    }
    default_arg: false
  }
}
functions {
  basic_abi {
    type_abi {
      name: "void"
    }
    name: "android::hardware::graphics::composer::V2_1::BsComposerClient::BsComposerClient"
    access: public_access
    linker_set_key: "_ZN7android8hardware8graphics8composer4V2_116BsComposerClientC2ENS_2spINS3_15IComposerClientEEE"
  }
  mangled_function_name: "_ZN7android8hardware8graphics8composer4V2_116BsComposerClientC2ENS_2spINS3_15IComposerClientEEE"
  source_file: "/out/soong/.intermediates/hardware/interfaces/graphics/composer/2.1/android.hardware.graphics.composer@2.1_genc++_headers/gen/android/hardware/graphics/composer/2.1/BsComposerClient.h"
  parameters {
    basic_abi {
      type_abi {
        name: "const android::sp<android::hardware::graphics::composer::V2_1::IComposerClient>"
      }
      name: "impl"
      access: public_access
      linker_set_key: "false"
    }
    default_arg: false
  }
}
functions {
  basic_abi {
    type_abi {
      name: "void"
    }
    name: "android::hardware::graphics::composer::V2_1::BsComposerClient::BsComposerClient"
    access: public_access
    linker_set_key: "_ZN7android8hardware8graphics8composer4V2_116BsComposerClientC1ENS_2spINS3_15IComposerClientEEE"
  }
  mangled_function_name: "_ZN7android8hardware8graphics8composer4V2_116BsComposerClientC1ENS_2spINS3_15IComposerClientEEE"
  source_file: "/out/soong/.intermediates/hardware/interfaces/graphics/composer/2.1/android.hardware.graphics.composer@2.1_genc++_headers/gen/android/hardware/graphics/composer/2.1/BsComposerClient.h"
  parameters {
    basic_abi {
      type_abi {
        name: "const android::sp<android::hardware::graphics::composer::V2_1::IComposerClient>"
      }
      name: "impl"
      access: public_access
      linker_set_key: "false"
    }
    default_arg: false
  }
}
functions {
  basic_abi {
    type_abi {
      name: "android::hardware::Return<void>"
    }
    name: "android::hardware::graphics::composer::V2_1::BsComposerClient::addOnewayTask"
    access: private_access
    linker_set_key: "_ZN7android8hardware8graphics8composer4V2_116BsComposerClient13addOnewayTaskENSt3__18functionIFvvEEE"
  }
  mangled_function_name: "_ZN7android8hardware8graphics8composer4V2_116BsComposerClient13addOnewayTaskENSt3__18functionIFvvEEE"
  source_file: "/out/soong/.intermediates/hardware/interfaces/graphics/composer/2.1/android.hardware.graphics.composer@2.1_genc++_headers/gen/android/hardware/graphics/composer/2.1/BsComposerClient.h"
  parameters {
    basic_abi {
      type_abi {
        name: "std::function<void ()>"
      }
      name: ""
      access: public_access
      linker_set_key: "false"
    }
    default_arg: false
  }
}
enums {
  basic_abi {
    type_abi {
      name: "int"
      size: 4
      alignment: 4
    }
    name: "android::hardware::graphics::composer::V2_1::Error"
    access: public_access
    linker_set_key: "android::hardware::graphics::composer::V2_1::Error"
  }
  enum_fields {
    basic_abi {
      type_abi {
        name: "android::hardware::graphics::composer::V2_1::Error"
        size: 4
        alignment: 4
      }
      name: "android::hardware::graphics::composer::V2_1::Error::NONE"
      access: public_access
      linker_set_key: "0"
    }
    enum_field_value: 0
  }
  enum_fields {
    basic_abi {
      type_abi {
        name: "android::hardware::graphics::composer::V2_1::Error"
        size: 4
        alignment: 4
      }
      name: "android::hardware::graphics::composer::V2_1::Error::BAD_CONFIG"
      access: public_access
      linker_set_key: "1"
    }
    enum_field_value: 1
  }
  enum_fields {
    basic_abi {
      type_abi {
        name: "android::hardware::graphics::composer::V2_1::Error"
        size: 4
        alignment: 4
      }
      name: "android::hardware::graphics::composer::V2_1::Error::BAD_DISPLAY"
      access: public_access
      linker_set_key: "2"
    }
    enum_field_value: 2
  }
  enum_fields {
    basic_abi {
      type_abi {
        name: "android::hardware::graphics::composer::V2_1::Error"
        size: 4
        alignment: 4
      }
      name: "android::hardware::graphics::composer::V2_1::Error::BAD_LAYER"
      access: public_access
      linker_set_key: "3"
    }
    enum_field_value: 3
  }
  enum_fields {
    basic_abi {
      type_abi {
        name: "android::hardware::graphics::composer::V2_1::Error"
        size: 4
        alignment: 4
      }
      name: "android::hardware::graphics::composer::V2_1::Error::BAD_PARAMETER"
      access: public_access
      linker_set_key: "4"
    }
    enum_field_value: 4
  }
  enum_fields {
    basic_abi {
      type_abi {
        name: "android::hardware::graphics::composer::V2_1::Error"
        size: 4
        alignment: 4
      }
      name: "android::hardware::graphics::composer::V2_1::Error::NO_RESOURCES"
      access: public_access
      linker_set_key: "6"
    }
    enum_field_value: 6
  }
  enum_fields {
    basic_abi {
      type_abi {
        name: "android::hardware::graphics::composer::V2_1::Error"
        size: 4
        alignment: 4
      }
      name: "android::hardware::graphics::composer::V2_1::Error::NOT_VALIDATED"
      access: public_access
      linker_set_key: "7"
    }
    enum_field_value: 7
  }
  enum_fields {
    basic_abi {
      type_abi {
        name: "android::hardware::graphics::composer::V2_1::Error"
        size: 4
        alignment: 4
      }
      name: "android::hardware::graphics::composer::V2_1::Error::UNSUPPORTED"
      access: public_access
      linker_set_key: "8"
    }
    enum_field_value: 8
  }
  source_file: "/out/soong/.intermediates/hardware/interfaces/graphics/composer/2.1/android.hardware.graphics.composer@2.1_genc++_headers/gen/android/hardware/graphics/composer/2.1/types.h"
}
enums {
  basic_abi {
    type_abi {
      name: "int"
      size: 4
      alignment: 4
    }
    name: "android::hardware::graphics::composer::V2_1::IComposerCallback::Connection"
    access: public_access
    linker_set_key: "android::hardware::graphics::composer::V2_1::IComposerCallback::Connection"
  }
  enum_fields {
    basic_abi {
      type_abi {
        name: "android::hardware::graphics::composer::V2_1::IComposerCallback::Connection"
        size: 4
        alignment: 4
      }
      name: "android::hardware::graphics::composer::V2_1::IComposerCallback::Connection::INVALID"
      access: public_access
      linker_set_key: "0"
    }
    enum_field_value: 0
  }
  enum_fields {
    basic_abi {
      type_abi {
        name: "android::hardware::graphics::composer::V2_1::IComposerCallback::Connection"
        size: 4
        alignment: 4
      }
      name: "android::hardware::graphics::composer::V2_1::IComposerCallback::Connection::CONNECTED"
      access: public_access
      linker_set_key: "1"
    }
    enum_field_value: 1
  }
  enum_fields {
    basic_abi {
      type_abi {
        name: "android::hardware::graphics::composer::V2_1::IComposerCallback::Connection"
        size: 4
        alignment: 4
      }
      name: "android::hardware::graphics::composer::V2_1::IComposerCallback::Connection::DISCONNECTED"
      access: public_access
      linker_set_key: "2"
    }
    enum_field_value: 2
  }
  source_file: "/out/soong/.intermediates/hardware/interfaces/graphics/composer/2.1/android.hardware.graphics.composer@2.1_genc++_headers/gen/android/hardware/graphics/composer/2.1/IComposerCallback.h"
}
enums {
  basic_abi {
    type_abi {
      name: "int"
      size: 4
      alignment: 4
    }
    name: "android::hardware::graphics::composer::V2_1::IComposerClient::Attribute"
    access: public_access
    linker_set_key: "android::hardware::graphics::composer::V2_1::IComposerClient::Attribute"
  }
  enum_fields {
    basic_abi {
      type_abi {
        name: "android::hardware::graphics::composer::V2_1::IComposerClient::Attribute"
        size: 4
        alignment: 4
      }
      name: "android::hardware::graphics::composer::V2_1::IComposerClient::Attribute::INVALID"
      access: public_access
      linker_set_key: "0"
    }
    enum_field_value: 0
  }
  enum_fields {
    basic_abi {
      type_abi {
        name: "android::hardware::graphics::composer::V2_1::IComposerClient::Attribute"
        size: 4
        alignment: 4
      }
      name: "android::hardware::graphics::composer::V2_1::IComposerClient::Attribute::WIDTH"
      access: public_access
      linker_set_key: "1"
    }
    enum_field_value: 1
  }
  enum_fields {
    basic_abi {
      type_abi {
        name: "android::hardware::graphics::composer::V2_1::IComposerClient::Attribute"
        size: 4
        alignment: 4
      }
      name: "android::hardware::graphics::composer::V2_1::IComposerClient::Attribute::HEIGHT"
      access: public_access
      linker_set_key: "2"
    }
    enum_field_value: 2
  }
  enum_fields {
    basic_abi {
      type_abi {
        name: "android::hardware::graphics::composer::V2_1::IComposerClient::Attribute"
        size: 4
        alignment: 4
      }
      name: "android::hardware::graphics::composer::V2_1::IComposerClient::Attribute::VSYNC_PERIOD"
      access: public_access
      linker_set_key: "3"
    }
    enum_field_value: 3
  }
  enum_fields {
    basic_abi {
      type_abi {
        name: "android::hardware::graphics::composer::V2_1::IComposerClient::Attribute"
        size: 4
        alignment: 4
      }
      name: "android::hardware::graphics::composer::V2_1::IComposerClient::Attribute::DPI_X"
      access: public_access
      linker_set_key: "4"
    }
    enum_field_value: 4
  }
  enum_fields {
    basic_abi {
      type_abi {
        name: "android::hardware::graphics::composer::V2_1::IComposerClient::Attribute"
        size: 4
        alignment: 4
      }
      name: "android::hardware::graphics::composer::V2_1::IComposerClient::Attribute::DPI_Y"
      access: public_access
      linker_set_key: "5"
    }
    enum_field_value: 5
  }
  source_file: "/out/soong/.intermediates/hardware/interfaces/graphics/composer/2.1/android.hardware.graphics.composer@2.1_genc++_headers/gen/android/hardware/graphics/composer/2.1/IComposerClient.h"
}
enums {
  basic_abi {
    type_abi {
      name: "unsigned int"
      size: 4
      alignment: 4
    }
    name: "android::hardware::graphics::composer::V2_1::IComposerClient::DisplayRequest"
    access: public_access
    linker_set_key: "android::hardware::graphics::composer::V2_1::IComposerClient::DisplayRequest"
  }
  enum_fields {
    basic_abi {
      type_abi {
        name: "android::hardware::graphics::composer::V2_1::IComposerClient::DisplayRequest"
        size: 4
        alignment: 4
      }
      name: "android::hardware::graphics::composer::V2_1::IComposerClient::DisplayRequest::FLIP_CLIENT_TARGET"
      access: public_access
      linker_set_key: "1"
    }
    enum_field_value: 1
  }
  enum_fields {
    basic_abi {
      type_abi {
        name: "android::hardware::graphics::composer::V2_1::IComposerClient::DisplayRequest"
        size: 4
        alignment: 4
      }
      name: "android::hardware::graphics::composer::V2_1::IComposerClient::DisplayRequest::WRITE_CLIENT_TARGET_TO_OUTPUT"
      access: public_access
      linker_set_key: "2"
    }
    enum_field_value: 2
  }
  source_file: "/out/soong/.intermediates/hardware/interfaces/graphics/composer/2.1/android.hardware.graphics.composer@2.1_genc++_headers/gen/android/hardware/graphics/composer/2.1/IComposerClient.h"
}
enums {
  basic_abi {
    type_abi {
      name: "unsigned int"
      size: 4
      alignment: 4
    }
    name: "android::hardware::graphics::composer::V2_1::IComposerClient::LayerRequest"
    access: public_access
    linker_set_key: "android::hardware::graphics::composer::V2_1::IComposerClient::LayerRequest"
  }
  enum_fields {
    basic_abi {
      type_abi {
        name: "android::hardware::graphics::composer::V2_1::IComposerClient::LayerRequest"
        size: 4
        alignment: 4
      }
      name: "android::hardware::graphics::composer::V2_1::IComposerClient::LayerRequest::CLEAR_CLIENT_TARGET"
      access: public_access
      linker_set_key: "1"
    }
    enum_field_value: 1
  }
  source_file: "/out/soong/.intermediates/hardware/interfaces/graphics/composer/2.1/android.hardware.graphics.composer@2.1_genc++_headers/gen/android/hardware/graphics/composer/2.1/IComposerClient.h"
}
enums {
  basic_abi {
    type_abi {
      name: "int"
      size: 4
      alignment: 4
    }
    name: "android::hardware::graphics::composer::V2_1::IComposerClient::PowerMode"
    access: public_access
    linker_set_key: "android::hardware::graphics::composer::V2_1::IComposerClient::PowerMode"
  }
  enum_fields {
    basic_abi {
      type_abi {
        name: "android::hardware::graphics::composer::V2_1::IComposerClient::PowerMode"
        size: 4
        alignment: 4
      }
      name: "android::hardware::graphics::composer::V2_1::IComposerClient::PowerMode::OFF"
      access: public_access
      linker_set_key: "0"
    }
    enum_field_value: 0
  }
  enum_fields {
    basic_abi {
      type_abi {
        name: "android::hardware::graphics::composer::V2_1::IComposerClient::PowerMode"
        size: 4
        alignment: 4
      }
      name: "android::hardware::graphics::composer::V2_1::IComposerClient::PowerMode::DOZE"
      access: public_access
      linker_set_key: "1"
    }
    enum_field_value: 1
  }
  enum_fields {
    basic_abi {
      type_abi {
        name: "android::hardware::graphics::composer::V2_1::IComposerClient::PowerMode"
        size: 4
        alignment: 4
      }
      name: "android::hardware::graphics::composer::V2_1::IComposerClient::PowerMode::DOZE_SUSPEND"
      access: public_access
      linker_set_key: "3"
    }
    enum_field_value: 3
  }
  enum_fields {
    basic_abi {
      type_abi {
        name: "android::hardware::graphics::composer::V2_1::IComposerClient::PowerMode"
        size: 4
        alignment: 4
      }
      name: "android::hardware::graphics::composer::V2_1::IComposerClient::PowerMode::ON"
      access: public_access
      linker_set_key: "2"
    }
    enum_field_value: 2
  }
  source_file: "/out/soong/.intermediates/hardware/interfaces/graphics/composer/2.1/android.hardware.graphics.composer@2.1_genc++_headers/gen/android/hardware/graphics/composer/2.1/IComposerClient.h"
}
enums {
  basic_abi {
    type_abi {
      name: "int"
      size: 4
      alignment: 4
    }
    name: "android::hardware::graphics::composer::V2_1::IComposerClient::Vsync"
    access: public_access
    linker_set_key: "android::hardware::graphics::composer::V2_1::IComposerClient::Vsync"
  }
  enum_fields {
    basic_abi {
      type_abi {
        name: "android::hardware::graphics::composer::V2_1::IComposerClient::Vsync"
        size: 4
        alignment: 4
      }
      name: "android::hardware::graphics::composer::V2_1::IComposerClient::Vsync::INVALID"
      access: public_access
      linker_set_key: "0"
    }
    enum_field_value: 0
  }
  enum_fields {
    basic_abi {
      type_abi {
        name: "android::hardware::graphics::composer::V2_1::IComposerClient::Vsync"
        size: 4
        alignment: 4
      }
      name: "android::hardware::graphics::composer::V2_1::IComposerClient::Vsync::ENABLE"
      access: public_access
      linker_set_key: "1"
    }
    enum_field_value: 1
  }
  enum_fields {
    basic_abi {
      type_abi {
        name: "android::hardware::graphics::composer::V2_1::IComposerClient::Vsync"
        size: 4
        alignment: 4
      }
      name: "android::hardware::graphics::composer::V2_1::IComposerClient::Vsync::DISABLE"
      access: public_access
      linker_set_key: "2"
    }
    enum_field_value: 2
  }
  source_file: "/out/soong/.intermediates/hardware/interfaces/graphics/composer/2.1/android.hardware.graphics.composer@2.1_genc++_headers/gen/android/hardware/graphics/composer/2.1/IComposerClient.h"
}
enums {
  basic_abi {
    type_abi {
      name: "int"
      size: 4
      alignment: 4
    }
    name: "android::hardware::graphics::composer::V2_1::IComposerClient::BlendMode"
    access: public_access
    linker_set_key: "android::hardware::graphics::composer::V2_1::IComposerClient::BlendMode"
  }
  enum_fields {
    basic_abi {
      type_abi {
        name: "android::hardware::graphics::composer::V2_1::IComposerClient::BlendMode"
        size: 4
        alignment: 4
      }
      name: "android::hardware::graphics::composer::V2_1::IComposerClient::BlendMode::INVALID"
      access: public_access
      linker_set_key: "0"
    }
    enum_field_value: 0
  }
  enum_fields {
    basic_abi {
      type_abi {
        name: "android::hardware::graphics::composer::V2_1::IComposerClient::BlendMode"
        size: 4
        alignment: 4
      }
      name: "android::hardware::graphics::composer::V2_1::IComposerClient::BlendMode::NONE"
      access: public_access
      linker_set_key: "1"
    }
    enum_field_value: 1
  }
  enum_fields {
    basic_abi {
      type_abi {
        name: "android::hardware::graphics::composer::V2_1::IComposerClient::BlendMode"
        size: 4
        alignment: 4
      }
      name: "android::hardware::graphics::composer::V2_1::IComposerClient::BlendMode::PREMULTIPLIED"
      access: public_access
      linker_set_key: "2"
    }
    enum_field_value: 2
  }
  enum_fields {
    basic_abi {
      type_abi {
        name: "android::hardware::graphics::composer::V2_1::IComposerClient::BlendMode"
        size: 4
        alignment: 4
      }
      name: "android::hardware::graphics::composer::V2_1::IComposerClient::BlendMode::COVERAGE"
      access: public_access
      linker_set_key: "3"
    }
    enum_field_value: 3
  }
  source_file: "/out/soong/.intermediates/hardware/interfaces/graphics/composer/2.1/android.hardware.graphics.composer@2.1_genc++_headers/gen/android/hardware/graphics/composer/2.1/IComposerClient.h"
}
enums {
  basic_abi {
    type_abi {
      name: "int"
      size: 4
      alignment: 4
    }
    name: "android::hardware::graphics::composer::V2_1::IComposerClient::Composition"
    access: public_access
    linker_set_key: "android::hardware::graphics::composer::V2_1::IComposerClient::Composition"
  }
  enum_fields {
    basic_abi {
      type_abi {
        name: "android::hardware::graphics::composer::V2_1::IComposerClient::Composition"
        size: 4
        alignment: 4
      }
      name: "android::hardware::graphics::composer::V2_1::IComposerClient::Composition::INVALID"
      access: public_access
      linker_set_key: "0"
    }
    enum_field_value: 0
  }
  enum_fields {
    basic_abi {
      type_abi {
        name: "android::hardware::graphics::composer::V2_1::IComposerClient::Composition"
        size: 4
        alignment: 4
      }
      name: "android::hardware::graphics::composer::V2_1::IComposerClient::Composition::CLIENT"
      access: public_access
      linker_set_key: "1"
    }
    enum_field_value: 1
  }
  enum_fields {
    basic_abi {
      type_abi {
        name: "android::hardware::graphics::composer::V2_1::IComposerClient::Composition"
        size: 4
        alignment: 4
      }
      name: "android::hardware::graphics::composer::V2_1::IComposerClient::Composition::DEVICE"
      access: public_access
      linker_set_key: "2"
    }
    enum_field_value: 2
  }
  enum_fields {
    basic_abi {
      type_abi {
        name: "android::hardware::graphics::composer::V2_1::IComposerClient::Composition"
        size: 4
        alignment: 4
      }
      name: "android::hardware::graphics::composer::V2_1::IComposerClient::Composition::SOLID_COLOR"
      access: public_access
      linker_set_key: "3"
    }
    enum_field_value: 3
  }
  enum_fields {
    basic_abi {
      type_abi {
        name: "android::hardware::graphics::composer::V2_1::IComposerClient::Composition"
        size: 4
        alignment: 4
      }
      name: "android::hardware::graphics::composer::V2_1::IComposerClient::Composition::CURSOR"
      access: public_access
      linker_set_key: "4"
    }
    enum_field_value: 4
  }
  enum_fields {
    basic_abi {
      type_abi {
        name: "android::hardware::graphics::composer::V2_1::IComposerClient::Composition"
        size: 4
        alignment: 4
      }
      name: "android::hardware::graphics::composer::V2_1::IComposerClient::Composition::SIDEBAND"
      access: public_access
      linker_set_key: "5"
    }
    enum_field_value: 5
  }
  source_file: "/out/soong/.intermediates/hardware/interfaces/graphics/composer/2.1/android.hardware.graphics.composer@2.1_genc++_headers/gen/android/hardware/graphics/composer/2.1/IComposerClient.h"
}
enums {
  basic_abi {
    type_abi {
      name: "int"
      size: 4
      alignment: 4
    }
    name: "android::hardware::graphics::composer::V2_1::IComposerClient::DisplayType"
    access: public_access
    linker_set_key: "android::hardware::graphics::composer::V2_1::IComposerClient::DisplayType"
  }
  enum_fields {
    basic_abi {
      type_abi {
        name: "android::hardware::graphics::composer::V2_1::IComposerClient::DisplayType"
        size: 4
        alignment: 4
      }
      name: "android::hardware::graphics::composer::V2_1::IComposerClient::DisplayType::INVALID"
      access: public_access
      linker_set_key: "0"
    }
    enum_field_value: 0
  }
  enum_fields {
    basic_abi {
      type_abi {
        name: "android::hardware::graphics::composer::V2_1::IComposerClient::DisplayType"
        size: 4
        alignment: 4
      }
      name: "android::hardware::graphics::composer::V2_1::IComposerClient::DisplayType::PHYSICAL"
      access: public_access
      linker_set_key: "1"
    }
    enum_field_value: 1
  }
  enum_fields {
    basic_abi {
      type_abi {
        name: "android::hardware::graphics::composer::V2_1::IComposerClient::DisplayType"
        size: 4
        alignment: 4
      }
      name: "android::hardware::graphics::composer::V2_1::IComposerClient::DisplayType::VIRTUAL"
      access: public_access
      linker_set_key: "2"
    }
    enum_field_value: 2
  }
  source_file: "/out/soong/.intermediates/hardware/interfaces/graphics/composer/2.1/android.hardware.graphics.composer@2.1_genc++_headers/gen/android/hardware/graphics/composer/2.1/IComposerClient.h"
}
enums {
  basic_abi {
    type_abi {
      name: "int"
      size: 4
      alignment: 4
    }
    name: "android::hardware::graphics::composer::V2_1::IComposerClient::HandleIndex"
    access: public_access
    linker_set_key: "android::hardware::graphics::composer::V2_1::IComposerClient::HandleIndex"
  }
  enum_fields {
    basic_abi {
      type_abi {
        name: "android::hardware::graphics::composer::V2_1::IComposerClient::HandleIndex"
        size: 4
        alignment: 4
      }
      name: "android::hardware::graphics::composer::V2_1::IComposerClient::HandleIndex::EMPTY"
      access: public_access
      linker_set_key: "18446744073709551615"
    }
    enum_field_value: -1
  }
  enum_fields {
    basic_abi {
      type_abi {
        name: "android::hardware::graphics::composer::V2_1::IComposerClient::HandleIndex"
        size: 4
        alignment: 4
      }
      name: "android::hardware::graphics::composer::V2_1::IComposerClient::HandleIndex::CACHED"
      access: public_access
      linker_set_key: "18446744073709551614"
    }
    enum_field_value: -2
  }
  source_file: "/out/soong/.intermediates/hardware/interfaces/graphics/composer/2.1/android.hardware.graphics.composer@2.1_genc++_headers/gen/android/hardware/graphics/composer/2.1/IComposerClient.h"
}
enums {
  basic_abi {
    type_abi {
      name: "int"
      size: 4
      alignment: 4
    }
    name: "android::hardware::graphics::composer::V2_1::IComposerClient::Command"
    access: public_access
    linker_set_key: "android::hardware::graphics::composer::V2_1::IComposerClient::Command"
  }
  enum_fields {
    basic_abi {
      type_abi {
        name: "android::hardware::graphics::composer::V2_1::IComposerClient::Command"
        size: 4
        alignment: 4
      }
      name: "android::hardware::graphics::composer::V2_1::IComposerClient::Command::LENGTH_MASK"
      access: public_access
      linker_set_key: "65535"
    }
    enum_field_value: 65535
  }
  enum_fields {
    basic_abi {
      type_abi {
        name: "android::hardware::graphics::composer::V2_1::IComposerClient::Command"
        size: 4
        alignment: 4
      }
      name: "android::hardware::graphics::composer::V2_1::IComposerClient::Command::OPCODE_SHIFT"
      access: public_access
      linker_set_key: "16"
    }
    enum_field_value: 16
  }
  enum_fields {
    basic_abi {
      type_abi {
        name: "android::hardware::graphics::composer::V2_1::IComposerClient::Command"
        size: 4
        alignment: 4
      }
      name: "android::hardware::graphics::composer::V2_1::IComposerClient::Command::OPCODE_MASK"
      access: public_access
      linker_set_key: "18446744073709486080"
    }
    enum_field_value: -65536
  }
  enum_fields {
    basic_abi {
      type_abi {
        name: "android::hardware::graphics::composer::V2_1::IComposerClient::Command"
        size: 4
        alignment: 4
      }
      name: "android::hardware::graphics::composer::V2_1::IComposerClient::Command::SELECT_DISPLAY"
      access: public_access
      linker_set_key: "0"
    }
    enum_field_value: 0
  }
  enum_fields {
    basic_abi {
      type_abi {
        name: "android::hardware::graphics::composer::V2_1::IComposerClient::Command"
        size: 4
        alignment: 4
      }
      name: "android::hardware::graphics::composer::V2_1::IComposerClient::Command::SELECT_LAYER"
      access: public_access
      linker_set_key: "65536"
    }
    enum_field_value: 65536
  }
  enum_fields {
    basic_abi {
      type_abi {
        name: "android::hardware::graphics::composer::V2_1::IComposerClient::Command"
        size: 4
        alignment: 4
      }
      name: "android::hardware::graphics::composer::V2_1::IComposerClient::Command::SET_ERROR"
      access: public_access
      linker_set_key: "16777216"
    }
    enum_field_value: 16777216
  }
  enum_fields {
    basic_abi {
      type_abi {
        name: "android::hardware::graphics::composer::V2_1::IComposerClient::Command"
        size: 4
        alignment: 4
      }
      name: "android::hardware::graphics::composer::V2_1::IComposerClient::Command::SET_CHANGED_COMPOSITION_TYPES"
      access: public_access
      linker_set_key: "16842752"
    }
    enum_field_value: 16842752
  }
  enum_fields {
    basic_abi {
      type_abi {
        name: "android::hardware::graphics::composer::V2_1::IComposerClient::Command"
        size: 4
        alignment: 4
      }
      name: "android::hardware::graphics::composer::V2_1::IComposerClient::Command::SET_DISPLAY_REQUESTS"
      access: public_access
      linker_set_key: "16908288"
    }
    enum_field_value: 16908288
  }
  enum_fields {
    basic_abi {
      type_abi {
        name: "android::hardware::graphics::composer::V2_1::IComposerClient::Command"
        size: 4
        alignment: 4
      }
      name: "android::hardware::graphics::composer::V2_1::IComposerClient::Command::SET_PRESENT_FENCE"
      access: public_access
      linker_set_key: "16973824"
    }
    enum_field_value: 16973824
  }
  enum_fields {
    basic_abi {
      type_abi {
        name: "android::hardware::graphics::composer::V2_1::IComposerClient::Command"
        size: 4
        alignment: 4
      }
      name: "android::hardware::graphics::composer::V2_1::IComposerClient::Command::SET_RELEASE_FENCES"
      access: public_access
      linker_set_key: "17039360"
    }
    enum_field_value: 17039360
  }
  enum_fields {
    basic_abi {
      type_abi {
        name: "android::hardware::graphics::composer::V2_1::IComposerClient::Command"
        size: 4
        alignment: 4
      }
      name: "android::hardware::graphics::composer::V2_1::IComposerClient::Command::SET_COLOR_TRANSFORM"
      access: public_access
      linker_set_key: "33554432"
    }
    enum_field_value: 33554432
  }
  enum_fields {
    basic_abi {
      type_abi {
        name: "android::hardware::graphics::composer::V2_1::IComposerClient::Command"
        size: 4
        alignment: 4
      }
      name: "android::hardware::graphics::composer::V2_1::IComposerClient::Command::SET_CLIENT_TARGET"
      access: public_access
      linker_set_key: "33619968"
    }
    enum_field_value: 33619968
  }
  enum_fields {
    basic_abi {
      type_abi {
        name: "android::hardware::graphics::composer::V2_1::IComposerClient::Command"
        size: 4
        alignment: 4
      }
      name: "android::hardware::graphics::composer::V2_1::IComposerClient::Command::SET_OUTPUT_BUFFER"
      access: public_access
      linker_set_key: "33685504"
    }
    enum_field_value: 33685504
  }
  enum_fields {
    basic_abi {
      type_abi {
        name: "android::hardware::graphics::composer::V2_1::IComposerClient::Command"
        size: 4
        alignment: 4
      }
      name: "android::hardware::graphics::composer::V2_1::IComposerClient::Command::VALIDATE_DISPLAY"
      access: public_access
      linker_set_key: "33751040"
    }
    enum_field_value: 33751040
  }
  enum_fields {
    basic_abi {
      type_abi {
        name: "android::hardware::graphics::composer::V2_1::IComposerClient::Command"
        size: 4
        alignment: 4
      }
      name: "android::hardware::graphics::composer::V2_1::IComposerClient::Command::ACCEPT_DISPLAY_CHANGES"
      access: public_access
      linker_set_key: "33816576"
    }
    enum_field_value: 33816576
  }
  enum_fields {
    basic_abi {
      type_abi {
        name: "android::hardware::graphics::composer::V2_1::IComposerClient::Command"
        size: 4
        alignment: 4
      }
      name: "android::hardware::graphics::composer::V2_1::IComposerClient::Command::PRESENT_DISPLAY"
      access: public_access
      linker_set_key: "33882112"
    }
    enum_field_value: 33882112
  }
  enum_fields {
    basic_abi {
      type_abi {
        name: "android::hardware::graphics::composer::V2_1::IComposerClient::Command"
        size: 4
        alignment: 4
      }
      name: "android::hardware::graphics::composer::V2_1::IComposerClient::Command::PRESENT_OR_VALIDATE_DISPLAY"
      access: public_access
      linker_set_key: "33947648"
    }
    enum_field_value: 33947648
  }
  enum_fields {
    basic_abi {
      type_abi {
        name: "android::hardware::graphics::composer::V2_1::IComposerClient::Command"
        size: 4
        alignment: 4
      }
      name: "android::hardware::graphics::composer::V2_1::IComposerClient::Command::SET_LAYER_CURSOR_POSITION"
      access: public_access
      linker_set_key: "50331648"
    }
    enum_field_value: 50331648
  }
  enum_fields {
    basic_abi {
      type_abi {
        name: "android::hardware::graphics::composer::V2_1::IComposerClient::Command"
        size: 4
        alignment: 4
      }
      name: "android::hardware::graphics::composer::V2_1::IComposerClient::Command::SET_LAYER_BUFFER"
      access: public_access
      linker_set_key: "50397184"
    }
    enum_field_value: 50397184
  }
  enum_fields {
    basic_abi {
      type_abi {
        name: "android::hardware::graphics::composer::V2_1::IComposerClient::Command"
        size: 4
        alignment: 4
      }
      name: "android::hardware::graphics::composer::V2_1::IComposerClient::Command::SET_LAYER_SURFACE_DAMAGE"
      access: public_access
      linker_set_key: "50462720"
    }
    enum_field_value: 50462720
  }
  enum_fields {
    basic_abi {
      type_abi {
        name: "android::hardware::graphics::composer::V2_1::IComposerClient::Command"
        size: 4
        alignment: 4
      }
      name: "android::hardware::graphics::composer::V2_1::IComposerClient::Command::SET_LAYER_BLEND_MODE"
      access: public_access
      linker_set_key: "67108864"
    }
    enum_field_value: 67108864
  }
  enum_fields {
    basic_abi {
      type_abi {
        name: "android::hardware::graphics::composer::V2_1::IComposerClient::Command"
        size: 4
        alignment: 4
      }
      name: "android::hardware::graphics::composer::V2_1::IComposerClient::Command::SET_LAYER_COLOR"
      access: public_access
      linker_set_key: "67174400"
    }
    enum_field_value: 67174400
  }
  enum_fields {
    basic_abi {
      type_abi {
        name: "android::hardware::graphics::composer::V2_1::IComposerClient::Command"
        size: 4
        alignment: 4
      }
      name: "android::hardware::graphics::composer::V2_1::IComposerClient::Command::SET_LAYER_COMPOSITION_TYPE"
      access: public_access
      linker_set_key: "67239936"
    }
    enum_field_value: 67239936
  }
  enum_fields {
    basic_abi {
      type_abi {
        name: "android::hardware::graphics::composer::V2_1::IComposerClient::Command"
        size: 4
        alignment: 4
      }
      name: "android::hardware::graphics::composer::V2_1::IComposerClient::Command::SET_LAYER_DATASPACE"
      access: public_access
      linker_set_key: "67305472"
    }
    enum_field_value: 67305472
  }
  enum_fields {
    basic_abi {
      type_abi {
        name: "android::hardware::graphics::composer::V2_1::IComposerClient::Command"
        size: 4
        alignment: 4
      }
      name: "android::hardware::graphics::composer::V2_1::IComposerClient::Command::SET_LAYER_DISPLAY_FRAME"
      access: public_access
      linker_set_key: "67371008"
    }
    enum_field_value: 67371008
  }
  enum_fields {
    basic_abi {
      type_abi {
        name: "android::hardware::graphics::composer::V2_1::IComposerClient::Command"
        size: 4
        alignment: 4
      }
      name: "android::hardware::graphics::composer::V2_1::IComposerClient::Command::SET_LAYER_PLANE_ALPHA"
      access: public_access
      linker_set_key: "67436544"
    }
    enum_field_value: 67436544
  }
  enum_fields {
    basic_abi {
      type_abi {
        name: "android::hardware::graphics::composer::V2_1::IComposerClient::Command"
        size: 4
        alignment: 4
      }
      name: "android::hardware::graphics::composer::V2_1::IComposerClient::Command::SET_LAYER_SIDEBAND_STREAM"
      access: public_access
      linker_set_key: "67502080"
    }
    enum_field_value: 67502080
  }
  enum_fields {
    basic_abi {
      type_abi {
        name: "android::hardware::graphics::composer::V2_1::IComposerClient::Command"
        size: 4
        alignment: 4
      }
      name: "android::hardware::graphics::composer::V2_1::IComposerClient::Command::SET_LAYER_SOURCE_CROP"
      access: public_access
      linker_set_key: "67567616"
    }
    enum_field_value: 67567616
  }
  enum_fields {
    basic_abi {
      type_abi {
        name: "android::hardware::graphics::composer::V2_1::IComposerClient::Command"
        size: 4
        alignment: 4
      }
      name: "android::hardware::graphics::composer::V2_1::IComposerClient::Command::SET_LAYER_TRANSFORM"
      access: public_access
      linker_set_key: "67633152"
    }
    enum_field_value: 67633152
  }
  enum_fields {
    basic_abi {
      type_abi {
        name: "android::hardware::graphics::composer::V2_1::IComposerClient::Command"
        size: 4
        alignment: 4
      }
      name: "android::hardware::graphics::composer::V2_1::IComposerClient::Command::SET_LAYER_VISIBLE_REGION"
      access: public_access
      linker_set_key: "67698688"
    }
    enum_field_value: 67698688
  }
  enum_fields {
    basic_abi {
      type_abi {
        name: "android::hardware::graphics::composer::V2_1::IComposerClient::Command"
        size: 4
        alignment: 4
      }
      name: "android::hardware::graphics::composer::V2_1::IComposerClient::Command::SET_LAYER_Z_ORDER"
      access: public_access
      linker_set_key: "67764224"
    }
    enum_field_value: 67764224
  }
  enum_fields {
    basic_abi {
      type_abi {
        name: "android::hardware::graphics::composer::V2_1::IComposerClient::Command"
        size: 4
        alignment: 4
      }
      name: "android::hardware::graphics::composer::V2_1::IComposerClient::Command::SET_PRESENT_OR_VALIDATE_DISPLAY_RESULT"
      access: public_access
      linker_set_key: "67829760"
    }
    enum_field_value: 67829760
  }
  source_file: "/out/soong/.intermediates/hardware/interfaces/graphics/composer/2.1/android.hardware.graphics.composer@2.1_genc++_headers/gen/android/hardware/graphics/composer/2.1/IComposerClient.h"
}
enums {
  basic_abi {
    type_abi {
      name: "int"
      size: 4
      alignment: 4
    }
    name: "android::hardware::graphics::composer::V2_1::IComposer::Capability"
    access: public_access
    linker_set_key: "android::hardware::graphics::composer::V2_1::IComposer::Capability"
  }
  enum_fields {
    basic_abi {
      type_abi {
        name: "android::hardware::graphics::composer::V2_1::IComposer::Capability"
        size: 4
        alignment: 4
      }
      name: "android::hardware::graphics::composer::V2_1::IComposer::Capability::INVALID"
      access: public_access
      linker_set_key: "0"
    }
    enum_field_value: 0
  }
  enum_fields {
    basic_abi {
      type_abi {
        name: "android::hardware::graphics::composer::V2_1::IComposer::Capability"
        size: 4
        alignment: 4
      }
      name: "android::hardware::graphics::composer::V2_1::IComposer::Capability::SIDEBAND_STREAM"
      access: public_access
      linker_set_key: "1"
    }
    enum_field_value: 1
  }
  enum_fields {
    basic_abi {
      type_abi {
        name: "android::hardware::graphics::composer::V2_1::IComposer::Capability"
        size: 4
        alignment: 4
      }
      name: "android::hardware::graphics::composer::V2_1::IComposer::Capability::SKIP_CLIENT_COLOR_TRANSFORM"
      access: public_access
      linker_set_key: "2"
    }
    enum_field_value: 2
  }
  enum_fields {
    basic_abi {
      type_abi {
        name: "android::hardware::graphics::composer::V2_1::IComposer::Capability"
        size: 4
        alignment: 4
      }
      name: "android::hardware::graphics::composer::V2_1::IComposer::Capability::PRESENT_FENCE_IS_NOT_RELIABLE"
      access: public_access
      linker_set_key: "3"
    }
    enum_field_value: 3
  }
  source_file: "/out/soong/.intermediates/hardware/interfaces/graphics/composer/2.1/android.hardware.graphics.composer@2.1_genc++_headers/gen/android/hardware/graphics/composer/2.1/IComposer.h"
}
global_vars {
  basic_abi {
    type_abi {
      name: "const char *"
      size: 4
      alignment: 4
    }
    name: "android::hardware::graphics::composer::V2_1::IComposerCallback::descriptor"
    access: public_access
    linker_set_key: "_ZN7android8hardware8graphics8composer4V2_117IComposerCallback10descriptorE"
  }
  source_file: "/out/soong/.intermediates/hardware/interfaces/graphics/composer/2.1/android.hardware.graphics.composer@2.1_genc++_headers/gen/android/hardware/graphics/composer/2.1/IComposerCallback.h"
}
global_vars {
  basic_abi {
    type_abi {
      name: "const char *"
      size: 4
      alignment: 4
    }
    name: "android::hardware::graphics::composer::V2_1::IComposerClient::descriptor"
    access: public_access
    linker_set_key: "_ZN7android8hardware8graphics8composer4V2_115IComposerClient10descriptorE"
  }
  source_file: "/out/soong/.intermediates/hardware/interfaces/graphics/composer/2.1/android.hardware.graphics.composer@2.1_genc++_headers/gen/android/hardware/graphics/composer/2.1/IComposerClient.h"
}
global_vars {
  basic_abi {
    type_abi {
      name: "const char *"
      size: 4
      alignment: 4
    }
    name: "android::hardware::graphics::composer::V2_1::IComposer::descriptor"
    access: public_access
    linker_set_key: "_ZN7android8hardware8graphics8composer4V2_19IComposer10descriptorE"
  }
  source_file: "/out/soong/.intermediates/hardware/interfaces/graphics/composer/2.1/android.hardware.graphics.composer@2.1_genc++_headers/gen/android/hardware/graphics/composer/2.1/IComposer.h"
}
