records {
  basic_abi {
    type_abi {
      name: "android::hardware::media::omx::V1_0::Message"
      size: 48
      alignment: 8
    }
    name: "android::hardware::media::omx::V1_0::Message"
    access: public_access
    linker_set_key: "android::hardware::media::omx::V1_0::Message"
  }
  fields {
    basic_abi {
      type_abi {
        name: "android::hardware::media::omx::V1_0::Message::Type"
        size: 4
        alignment: 4
      }
      name: "type"
      access: public_access
    }
  }
  fields {
    basic_abi {
      type_abi {
        name: "android::hardware::hidl_handle"
        size: 16
        alignment: 8
      }
      name: "fence"
      access: public_access
    }
  }
  fields {
    basic_abi {
      type_abi {
        name: "android::hardware::media::omx::V1_0::Message::Data"
        size: 24
        alignment: 8
      }
      name: "data"
      access: public_access
    }
  }
  source_file: "/data/aosp/out/soong/.intermediates/hardware/interfaces/media/omx/1.0/android.hardware.media.omx@1.0_genc++_headers/gen/android/hardware/media/omx/1.0/types.h"
  mangled_record_name: "android::hardware::media::omx::V1_0::Message"
}
records {
  basic_abi {
    type_abi {
      name: "android::hardware::media::omx::V1_0::Message::EventData"
      size: 20
      alignment: 4
    }
    name: "android::hardware::media::omx::V1_0::Message::EventData"
    access: public_access
    linker_set_key: "android::hardware::media::omx::V1_0::Message::EventData"
  }
  fields {
    basic_abi {
      type_abi {
        name: "unsigned int"
        size: 4
        alignment: 4
      }
      name: "event"
      access: public_access
    }
  }
  fields {
    basic_abi {
      type_abi {
        name: "unsigned int"
        size: 4
        alignment: 4
      }
      name: "data1"
      access: public_access
    }
  }
  fields {
    basic_abi {
      type_abi {
        name: "unsigned int"
        size: 4
        alignment: 4
      }
      name: "data2"
      access: public_access
    }
  }
  fields {
    basic_abi {
      type_abi {
        name: "unsigned int"
        size: 4
        alignment: 4
      }
      name: "data3"
      access: public_access
    }
  }
  fields {
    basic_abi {
      type_abi {
        name: "unsigned int"
        size: 4
        alignment: 4
      }
      name: "data4"
      access: public_access
    }
  }
  source_file: "/data/aosp/out/soong/.intermediates/hardware/interfaces/media/omx/1.0/android.hardware.media.omx@1.0_genc++_headers/gen/android/hardware/media/omx/1.0/types.h"
  mangled_record_name: "android::hardware::media::omx::V1_0::Message::EventData"
}
records {
  basic_abi {
    type_abi {
      name: "android::hardware::media::omx::V1_0::Message::BufferData"
      size: 4
      alignment: 4
    }
    name: "android::hardware::media::omx::V1_0::Message::BufferData"
    access: public_access
    linker_set_key: "android::hardware::media::omx::V1_0::Message::BufferData"
  }
  fields {
    basic_abi {
      type_abi {
        name: "unsigned int"
        size: 4
        alignment: 4
      }
      name: "buffer"
      access: public_access
    }
  }
  source_file: "/data/aosp/out/soong/.intermediates/hardware/interfaces/media/omx/1.0/android.hardware.media.omx@1.0_genc++_headers/gen/android/hardware/media/omx/1.0/types.h"
  mangled_record_name: "android::hardware::media::omx::V1_0::Message::BufferData"
}
records {
  basic_abi {
    type_abi {
      name: "android::hardware::media::omx::V1_0::Message::ExtendedBufferData"
      size: 24
      alignment: 8
    }
    name: "android::hardware::media::omx::V1_0::Message::ExtendedBufferData"
    access: public_access
    linker_set_key: "android::hardware::media::omx::V1_0::Message::ExtendedBufferData"
  }
  fields {
    basic_abi {
      type_abi {
        name: "unsigned int"
        size: 4
        alignment: 4
      }
      name: "buffer"
      access: public_access
    }
  }
  fields {
    basic_abi {
      type_abi {
        name: "unsigned int"
        size: 4
        alignment: 4
      }
      name: "rangeOffset"
      access: public_access
    }
  }
  fields {
    basic_abi {
      type_abi {
        name: "unsigned int"
        size: 4
        alignment: 4
      }
      name: "rangeLength"
      access: public_access
    }
  }
  fields {
    basic_abi {
      type_abi {
        name: "unsigned int"
        size: 4
        alignment: 4
      }
      name: "flags"
      access: public_access
    }
  }
  fields {
    basic_abi {
      type_abi {
        name: "unsigned long long"
        size: 8
        alignment: 8
      }
      name: "timestampUs"
      access: public_access
    }
  }
  source_file: "/data/aosp/out/soong/.intermediates/hardware/interfaces/media/omx/1.0/android.hardware.media.omx@1.0_genc++_headers/gen/android/hardware/media/omx/1.0/types.h"
  mangled_record_name: "android::hardware::media::omx::V1_0::Message::ExtendedBufferData"
}
records {
  basic_abi {
    type_abi {
      name: "android::hardware::media::omx::V1_0::Message::RenderData"
      size: 16
      alignment: 8
    }
    name: "android::hardware::media::omx::V1_0::Message::RenderData"
    access: public_access
    linker_set_key: "android::hardware::media::omx::V1_0::Message::RenderData"
  }
  fields {
    basic_abi {
      type_abi {
        name: "unsigned long long"
        size: 8
        alignment: 8
      }
      name: "timestampUs"
      access: public_access
    }
  }
  fields {
    basic_abi {
      type_abi {
        name: "long long"
        size: 8
        alignment: 8
      }
      name: "systemTimeNs"
      access: public_access
    }
  }
  source_file: "/data/aosp/out/soong/.intermediates/hardware/interfaces/media/omx/1.0/android.hardware.media.omx@1.0_genc++_headers/gen/android/hardware/media/omx/1.0/types.h"
  mangled_record_name: "android::hardware::media::omx::V1_0::Message::RenderData"
}
records {
  basic_abi {
    type_abi {
      name: "android::hardware::media::omx::V1_0::Message::Data"
      size: 24
      alignment: 8
    }
    name: "android::hardware::media::omx::V1_0::Message::Data"
    access: public_access
    linker_set_key: "android::hardware::media::omx::V1_0::Message::Data"
  }
  fields {
    basic_abi {
      type_abi {
        name: "android::hardware::media::omx::V1_0::Message::EventData"
        size: 20
        alignment: 4
      }
      name: "eventData"
      access: public_access
    }
  }
  fields {
    basic_abi {
      type_abi {
        name: "android::hardware::media::omx::V1_0::Message::BufferData"
        size: 4
        alignment: 4
      }
      name: "bufferData"
      access: public_access
    }
  }
  fields {
    basic_abi {
      type_abi {
        name: "android::hardware::media::omx::V1_0::Message::ExtendedBufferData"
        size: 24
        alignment: 8
      }
      name: "extendedBufferData"
      access: public_access
    }
  }
  fields {
    basic_abi {
      type_abi {
        name: "android::hardware::media::omx::V1_0::Message::RenderData"
        size: 16
        alignment: 8
      }
      name: "renderData"
      access: public_access
    }
  }
  source_file: "/data/aosp/out/soong/.intermediates/hardware/interfaces/media/omx/1.0/android.hardware.media.omx@1.0_genc++_headers/gen/android/hardware/media/omx/1.0/types.h"
  mangled_record_name: "android::hardware::media::omx::V1_0::Message::Data"
}
records {
  basic_abi {
    type_abi {
      name: "android::hardware::media::omx::V1_0::CodecBuffer"
      size: 104
      alignment: 8
    }
    name: "android::hardware::media::omx::V1_0::CodecBuffer"
    access: public_access
    linker_set_key: "android::hardware::media::omx::V1_0::CodecBuffer"
  }
  fields {
    basic_abi {
      type_abi {
        name: "android::hardware::media::omx::V1_0::CodecBuffer::Type"
        size: 4
        alignment: 4
      }
      name: "type"
      access: public_access
    }
  }
  fields {
    basic_abi {
      type_abi {
        name: "android::hardware::media::omx::V1_0::CodecBuffer::Attributes"
        size: 40
        alignment: 8
      }
      name: "attr"
      access: public_access
    }
  }
  fields {
    basic_abi {
      type_abi {
        name: "android::hardware::hidl_handle"
        size: 16
        alignment: 8
      }
      name: "nativeHandle"
      access: public_access
    }
  }
  fields {
    basic_abi {
      type_abi {
        name: "android::hardware::hidl_memory"
        size: 40
        alignment: 8
      }
      name: "sharedMemory"
      access: public_access
    }
  }
  source_file: "/data/aosp/out/soong/.intermediates/hardware/interfaces/media/omx/1.0/android.hardware.media.omx@1.0_genc++_headers/gen/android/hardware/media/omx/1.0/types.h"
  mangled_record_name: "android::hardware::media::omx::V1_0::CodecBuffer"
}
records {
  basic_abi {
    type_abi {
      name: "android::hardware::media::omx::V1_0::CodecBuffer::PresetAttributes"
      size: 8
      alignment: 4
    }
    name: "android::hardware::media::omx::V1_0::CodecBuffer::PresetAttributes"
    access: public_access
    linker_set_key: "android::hardware::media::omx::V1_0::CodecBuffer::PresetAttributes"
  }
  fields {
    basic_abi {
      type_abi {
        name: "unsigned int"
        size: 4
        alignment: 4
      }
      name: "rangeOffset"
      access: public_access
    }
  }
  fields {
    basic_abi {
      type_abi {
        name: "unsigned int"
        size: 4
        alignment: 4
      }
      name: "rangeLength"
      access: public_access
    }
  }
  source_file: "/data/aosp/out/soong/.intermediates/hardware/interfaces/media/omx/1.0/android.hardware.media.omx@1.0_genc++_headers/gen/android/hardware/media/omx/1.0/types.h"
  mangled_record_name: "android::hardware::media::omx::V1_0::CodecBuffer::PresetAttributes"
}
records {
  basic_abi {
    type_abi {
      name: "android::hardware::media::omx::V1_0::CodecBuffer::Attributes"
      size: 40
      alignment: 8
    }
    name: "android::hardware::media::omx::V1_0::CodecBuffer::Attributes"
    access: public_access
    linker_set_key: "android::hardware::media::omx::V1_0::CodecBuffer::Attributes"
  }
  fields {
    basic_abi {
      type_abi {
        name: "android::hardware::media::omx::V1_0::CodecBuffer::PresetAttributes"
        size: 8
        alignment: 4
      }
      name: "preset"
      access: public_access
    }
  }
  fields {
    basic_abi {
      type_abi {
        name: "android::hardware::media::V1_0::AnwBufferAttributes"
        size: 40
        alignment: 8
      }
      name: "anwBuffer"
      access: public_access
    }
  }
  source_file: "/data/aosp/out/soong/.intermediates/hardware/interfaces/media/omx/1.0/android.hardware.media.omx@1.0_genc++_headers/gen/android/hardware/media/omx/1.0/types.h"
  mangled_record_name: "android::hardware::media::omx::V1_0::CodecBuffer::Attributes"
}
records {
  basic_abi {
    type_abi {
      name: "android::hardware::media::omx::V1_0::ColorAspects"
      size: 16
      alignment: 4
    }
    name: "android::hardware::media::omx::V1_0::ColorAspects"
    access: public_access
    linker_set_key: "android::hardware::media::omx::V1_0::ColorAspects"
  }
  fields {
    basic_abi {
      type_abi {
        name: "android::hardware::media::omx::V1_0::ColorAspects::Range"
        size: 4
        alignment: 4
      }
      name: "range"
      access: public_access
    }
  }
  fields {
    basic_abi {
      type_abi {
        name: "android::hardware::media::omx::V1_0::ColorAspects::Primaries"
        size: 4
        alignment: 4
      }
      name: "primaries"
      access: public_access
    }
  }
  fields {
    basic_abi {
      type_abi {
        name: "android::hardware::media::omx::V1_0::ColorAspects::Transfer"
        size: 4
        alignment: 4
      }
      name: "transfer"
      access: public_access
    }
  }
  fields {
    basic_abi {
      type_abi {
        name: "android::hardware::media::omx::V1_0::ColorAspects::MatrixCoeffs"
        size: 4
        alignment: 4
      }
      name: "matrixCoeffs"
      access: public_access
    }
  }
  source_file: "/data/aosp/out/soong/.intermediates/hardware/interfaces/media/omx/1.0/android.hardware.media.omx@1.0_genc++_headers/gen/android/hardware/media/omx/1.0/types.h"
  mangled_record_name: "android::hardware::media::omx::V1_0::ColorAspects"
}
records {
  basic_abi {
    type_abi {
      name: "android::hardware::media::omx::V1_0::IOmxBufferSource"
      size: 12
      alignment: 4
    }
    name: "android::hardware::media::omx::V1_0::IOmxBufferSource"
    access: public_access
    linker_set_key: "android::hardware::media::omx::V1_0::IOmxBufferSource"
  }
  base_specifiers {
    basic_abi {
      type_abi {
        name: "android::hidl::base::V1_0::IBase"
      }
      name: ""
      access: public_access
    }
    is_virtual: false
  }
  source_file: "/data/aosp/out/soong/.intermediates/hardware/interfaces/media/omx/1.0/android.hardware.media.omx@1.0_genc++_headers/gen/android/hardware/media/omx/1.0/IOmxBufferSource.h"
  mangled_record_name: "android::hardware::media::omx::V1_0::IOmxBufferSource"
  vtable_layout {
    vtable_components {
      kind: VBaseOffset
      mangled_component_name: ""
      component_value: 4
    }
    vtable_components {
      kind: OffsetToTop
      mangled_component_name: ""
      component_value: 0
    }
    vtable_components {
      kind: RTTI
      mangled_component_name: "android::hardware::media::omx::V1_0::IOmxBufferSource"
      component_value: 0
    }
    vtable_components {
      kind: FunctionPointer
      mangled_component_name: "_ZNK7android8hardware5media3omx4V1_016IOmxBufferSource8isRemoteEv"
      component_value: 0
    }
    vtable_components {
      kind: FunctionPointer
      mangled_component_name: "_ZN7android8hardware5media3omx4V1_016IOmxBufferSource14interfaceChainENSt3__18functionIFvRKNS0_8hidl_vecINS0_11hidl_stringEEEEEE"
      component_value: 0
    }
    vtable_components {
      kind: FunctionPointer
      mangled_component_name: "_ZN7android8hardware5media3omx4V1_016IOmxBufferSource5debugERKNS0_11hidl_handleERKNS0_8hidl_vecINS0_11hidl_stringEEE"
      component_value: 0
    }
    vtable_components {
      kind: FunctionPointer
      mangled_component_name: "_ZN7android8hardware5media3omx4V1_016IOmxBufferSource19interfaceDescriptorENSt3__18functionIFvRKNS0_11hidl_stringEEEE"
      component_value: 0
    }
    vtable_components {
      kind: FunctionPointer
      mangled_component_name: "_ZN7android8hardware5media3omx4V1_016IOmxBufferSource12getHashChainENSt3__18functionIFvRKNS0_8hidl_vecINS0_10hidl_arrayIhLj32EJEEEEEEEE"
      component_value: 0
    }
    vtable_components {
      kind: FunctionPointer
      mangled_component_name: "_ZN7android8hardware5media3omx4V1_016IOmxBufferSource21setHALInstrumentationEv"
      component_value: 0
    }
    vtable_components {
      kind: FunctionPointer
      mangled_component_name: "_ZN7android8hardware5media3omx4V1_016IOmxBufferSource11linkToDeathERKNS_2spINS0_20hidl_death_recipientEEEy"
      component_value: 0
    }
    vtable_components {
      kind: FunctionPointer
      mangled_component_name: "_ZN7android8hardware5media3omx4V1_016IOmxBufferSource4pingEv"
      component_value: 0
    }
    vtable_components {
      kind: FunctionPointer
      mangled_component_name: "_ZN7android8hardware5media3omx4V1_016IOmxBufferSource12getDebugInfoENSt3__18functionIFvRKNS_4hidl4base4V1_09DebugInfoEEEE"
      component_value: 0
    }
    vtable_components {
      kind: FunctionPointer
      mangled_component_name: "_ZN7android8hardware5media3omx4V1_016IOmxBufferSource21notifySyspropsChangedEv"
      component_value: 0
    }
    vtable_components {
      kind: FunctionPointer
      mangled_component_name: "_ZN7android8hardware5media3omx4V1_016IOmxBufferSource13unlinkToDeathERKNS_2spINS0_20hidl_death_recipientEEE"
      component_value: 0
    }
    vtable_components {
      kind: CompleteDtorPointer
      mangled_component_name: "_ZN7android8hardware5media3omx4V1_016IOmxBufferSourceD1Ev"
      component_value: 0
    }
    vtable_components {
      kind: DeletingDtorPointer
      mangled_component_name: "_ZN7android8hardware5media3omx4V1_016IOmxBufferSourceD0Ev"
      component_value: 0
    }
    vtable_components {
      kind: FunctionPointer
      mangled_component_name: "_ZN7android8hardware5media3omx4V1_016IOmxBufferSource14onOmxExecutingEv"
      component_value: 0
    }
    vtable_components {
      kind: FunctionPointer
      mangled_component_name: "_ZN7android8hardware5media3omx4V1_016IOmxBufferSource9onOmxIdleEv"
      component_value: 0
    }
    vtable_components {
      kind: FunctionPointer
      mangled_component_name: "_ZN7android8hardware5media3omx4V1_016IOmxBufferSource11onOmxLoadedEv"
      component_value: 0
    }
    vtable_components {
      kind: FunctionPointer
      mangled_component_name: "_ZN7android8hardware5media3omx4V1_016IOmxBufferSource18onInputBufferAddedEj"
      component_value: 0
    }
    vtable_components {
      kind: FunctionPointer
      mangled_component_name: "_ZN7android8hardware5media3omx4V1_016IOmxBufferSource20onInputBufferEmptiedEjRKNS0_11hidl_handleE"
      component_value: 0
    }
    vtable_components {
      kind: VCallOffset
      mangled_component_name: ""
      component_value: 0
    }
    vtable_components {
      kind: VCallOffset
      mangled_component_name: ""
      component_value: 0
    }
    vtable_components {
      kind: VCallOffset
      mangled_component_name: ""
      component_value: 0
    }
    vtable_components {
      kind: VCallOffset
      mangled_component_name: ""
      component_value: 0
    }
    vtable_components {
      kind: VCallOffset
      mangled_component_name: ""
      component_value: -4
    }
    vtable_components {
      kind: OffsetToTop
      mangled_component_name: ""
      component_value: -4
    }
    vtable_components {
      kind: RTTI
      mangled_component_name: "android::hardware::media::omx::V1_0::IOmxBufferSource"
      component_value: 0
    }
    vtable_components {
      kind: CompleteDtorPointer
      mangled_component_name: "_ZN7android8hardware5media3omx4V1_016IOmxBufferSourceD1Ev"
      component_value: 0
    }
    vtable_components {
      kind: DeletingDtorPointer
      mangled_component_name: "_ZN7android8hardware5media3omx4V1_016IOmxBufferSourceD0Ev"
      component_value: 0
    }
    vtable_components {
      kind: FunctionPointer
      mangled_component_name: "_ZN7android7RefBase10onFirstRefEv"
      component_value: 0
    }
    vtable_components {
      kind: FunctionPointer
      mangled_component_name: "_ZN7android7RefBase15onLastStrongRefEPKv"
      component_value: 0
    }
    vtable_components {
      kind: FunctionPointer
      mangled_component_name: "_ZN7android7RefBase20onIncStrongAttemptedEjPKv"
      component_value: 0
    }
    vtable_components {
      kind: FunctionPointer
      mangled_component_name: "_ZN7android7RefBase13onLastWeakRefEPKv"
      component_value: 0
    }
  }
}
records {
  basic_abi {
    type_abi {
      name: "android::hardware::media::omx::V1_0::IOmxNode"
      size: 12
      alignment: 4
    }
    name: "android::hardware::media::omx::V1_0::IOmxNode"
    access: public_access
    linker_set_key: "android::hardware::media::omx::V1_0::IOmxNode"
  }
  base_specifiers {
    basic_abi {
      type_abi {
        name: "android::hidl::base::V1_0::IBase"
      }
      name: ""
      access: public_access
    }
    is_virtual: false
  }
  source_file: "/data/aosp/out/soong/.intermediates/hardware/interfaces/media/omx/1.0/android.hardware.media.omx@1.0_genc++_headers/gen/android/hardware/media/omx/1.0/IOmxNode.h"
  mangled_record_name: "android::hardware::media::omx::V1_0::IOmxNode"
  vtable_layout {
    vtable_components {
      kind: VBaseOffset
      mangled_component_name: ""
      component_value: 4
    }
    vtable_components {
      kind: OffsetToTop
      mangled_component_name: ""
      component_value: 0
    }
    vtable_components {
      kind: RTTI
      mangled_component_name: "android::hardware::media::omx::V1_0::IOmxNode"
      component_value: 0
    }
    vtable_components {
      kind: FunctionPointer
      mangled_component_name: "_ZNK7android8hardware5media3omx4V1_08IOmxNode8isRemoteEv"
      component_value: 0
    }
    vtable_components {
      kind: FunctionPointer
      mangled_component_name: "_ZN7android8hardware5media3omx4V1_08IOmxNode14interfaceChainENSt3__18functionIFvRKNS0_8hidl_vecINS0_11hidl_stringEEEEEE"
      component_value: 0
    }
    vtable_components {
      kind: FunctionPointer
      mangled_component_name: "_ZN7android8hardware5media3omx4V1_08IOmxNode5debugERKNS0_11hidl_handleERKNS0_8hidl_vecINS0_11hidl_stringEEE"
      component_value: 0
    }
    vtable_components {
      kind: FunctionPointer
      mangled_component_name: "_ZN7android8hardware5media3omx4V1_08IOmxNode19interfaceDescriptorENSt3__18functionIFvRKNS0_11hidl_stringEEEE"
      component_value: 0
    }
    vtable_components {
      kind: FunctionPointer
      mangled_component_name: "_ZN7android8hardware5media3omx4V1_08IOmxNode12getHashChainENSt3__18functionIFvRKNS0_8hidl_vecINS0_10hidl_arrayIhLj32EJEEEEEEEE"
      component_value: 0
    }
    vtable_components {
      kind: FunctionPointer
      mangled_component_name: "_ZN7android8hardware5media3omx4V1_08IOmxNode21setHALInstrumentationEv"
      component_value: 0
    }
    vtable_components {
      kind: FunctionPointer
      mangled_component_name: "_ZN7android8hardware5media3omx4V1_08IOmxNode11linkToDeathERKNS_2spINS0_20hidl_death_recipientEEEy"
      component_value: 0
    }
    vtable_components {
      kind: FunctionPointer
      mangled_component_name: "_ZN7android8hardware5media3omx4V1_08IOmxNode4pingEv"
      component_value: 0
    }
    vtable_components {
      kind: FunctionPointer
      mangled_component_name: "_ZN7android8hardware5media3omx4V1_08IOmxNode12getDebugInfoENSt3__18functionIFvRKNS_4hidl4base4V1_09DebugInfoEEEE"
      component_value: 0
    }
    vtable_components {
      kind: FunctionPointer
      mangled_component_name: "_ZN7android8hardware5media3omx4V1_08IOmxNode21notifySyspropsChangedEv"
      component_value: 0
    }
    vtable_components {
      kind: FunctionPointer
      mangled_component_name: "_ZN7android8hardware5media3omx4V1_08IOmxNode13unlinkToDeathERKNS_2spINS0_20hidl_death_recipientEEE"
      component_value: 0
    }
    vtable_components {
      kind: CompleteDtorPointer
      mangled_component_name: "_ZN7android8hardware5media3omx4V1_08IOmxNodeD1Ev"
      component_value: 0
    }
    vtable_components {
      kind: DeletingDtorPointer
      mangled_component_name: "_ZN7android8hardware5media3omx4V1_08IOmxNodeD0Ev"
      component_value: 0
    }
    vtable_components {
      kind: FunctionPointer
      mangled_component_name: "_ZN7android8hardware5media3omx4V1_08IOmxNode8freeNodeEv"
      component_value: 0
    }
    vtable_components {
      kind: FunctionPointer
      mangled_component_name: "_ZN7android8hardware5media3omx4V1_08IOmxNode11sendCommandEji"
      component_value: 0
    }
    vtable_components {
      kind: FunctionPointer
      mangled_component_name: "_ZN7android8hardware5media3omx4V1_08IOmxNode12getParameterEjRKNS0_8hidl_vecIhEENSt3__18functionIFvNS3_6StatusES8_EEE"
      component_value: 0
    }
    vtable_components {
      kind: FunctionPointer
      mangled_component_name: "_ZN7android8hardware5media3omx4V1_08IOmxNode12setParameterEjRKNS0_8hidl_vecIhEE"
      component_value: 0
    }
    vtable_components {
      kind: FunctionPointer
      mangled_component_name: "_ZN7android8hardware5media3omx4V1_08IOmxNode9getConfigEjRKNS0_8hidl_vecIhEENSt3__18functionIFvNS3_6StatusES8_EEE"
      component_value: 0
    }
    vtable_components {
      kind: FunctionPointer
      mangled_component_name: "_ZN7android8hardware5media3omx4V1_08IOmxNode9setConfigEjRKNS0_8hidl_vecIhEE"
      component_value: 0
    }
    vtable_components {
      kind: FunctionPointer
      mangled_component_name: "_ZN7android8hardware5media3omx4V1_08IOmxNode11setPortModeEjNS3_8PortModeE"
      component_value: 0
    }
    vtable_components {
      kind: FunctionPointer
      mangled_component_name: "_ZN7android8hardware5media3omx4V1_08IOmxNode26prepareForAdaptivePlaybackEjbjj"
      component_value: 0
    }
    vtable_components {
      kind: FunctionPointer
      mangled_component_name: "_ZN7android8hardware5media3omx4V1_08IOmxNode24configureVideoTunnelModeEjbjNSt3__18functionIFvNS3_6StatusERKNS0_11hidl_handleEEEE"
      component_value: 0
    }
    vtable_components {
      kind: FunctionPointer
      mangled_component_name: "_ZN7android8hardware5media3omx4V1_08IOmxNode21getGraphicBufferUsageEjNSt3__18functionIFvNS3_6StatusEjEEE"
      component_value: 0
    }
    vtable_components {
      kind: FunctionPointer
      mangled_component_name: "_ZN7android8hardware5media3omx4V1_08IOmxNode15setInputSurfaceERKNS_2spINS3_16IOmxBufferSourceEEE"
      component_value: 0
    }
    vtable_components {
      kind: FunctionPointer
      mangled_component_name: "_ZN7android8hardware5media3omx4V1_08IOmxNode20allocateSecureBufferEjyNSt3__18functionIFvNS3_6StatusEjRKNS0_11hidl_handleEEEE"
      component_value: 0
    }
    vtable_components {
      kind: FunctionPointer
      mangled_component_name: "_ZN7android8hardware5media3omx4V1_08IOmxNode9useBufferEjRKNS3_11CodecBufferENSt3__18functionIFvNS3_6StatusEjEEE"
      component_value: 0
    }
    vtable_components {
      kind: FunctionPointer
      mangled_component_name: "_ZN7android8hardware5media3omx4V1_08IOmxNode10freeBufferEjj"
      component_value: 0
    }
    vtable_components {
      kind: FunctionPointer
      mangled_component_name: "_ZN7android8hardware5media3omx4V1_08IOmxNode10fillBufferEjRKNS3_11CodecBufferERKNS0_11hidl_handleE"
      component_value: 0
    }
    vtable_components {
      kind: FunctionPointer
      mangled_component_name: "_ZN7android8hardware5media3omx4V1_08IOmxNode11emptyBufferEjRKNS3_11CodecBufferEjyRKNS0_11hidl_handleE"
      component_value: 0
    }
    vtable_components {
      kind: FunctionPointer
      mangled_component_name: "_ZN7android8hardware5media3omx4V1_08IOmxNode17getExtensionIndexERKNS0_11hidl_stringENSt3__18functionIFvNS3_6StatusEjEEE"
      component_value: 0
    }
    vtable_components {
      kind: FunctionPointer
      mangled_component_name: "_ZN7android8hardware5media3omx4V1_08IOmxNode15dispatchMessageERKNS3_7MessageE"
      component_value: 0
    }
    vtable_components {
      kind: VCallOffset
      mangled_component_name: ""
      component_value: 0
    }
    vtable_components {
      kind: VCallOffset
      mangled_component_name: ""
      component_value: 0
    }
    vtable_components {
      kind: VCallOffset
      mangled_component_name: ""
      component_value: 0
    }
    vtable_components {
      kind: VCallOffset
      mangled_component_name: ""
      component_value: 0
    }
    vtable_components {
      kind: VCallOffset
      mangled_component_name: ""
      component_value: -4
    }
    vtable_components {
      kind: OffsetToTop
      mangled_component_name: ""
      component_value: -4
    }
    vtable_components {
      kind: RTTI
      mangled_component_name: "android::hardware::media::omx::V1_0::IOmxNode"
      component_value: 0
    }
    vtable_components {
      kind: CompleteDtorPointer
      mangled_component_name: "_ZN7android8hardware5media3omx4V1_08IOmxNodeD1Ev"
      component_value: 0
    }
    vtable_components {
      kind: DeletingDtorPointer
      mangled_component_name: "_ZN7android8hardware5media3omx4V1_08IOmxNodeD0Ev"
      component_value: 0
    }
    vtable_components {
      kind: FunctionPointer
      mangled_component_name: "_ZN7android7RefBase10onFirstRefEv"
      component_value: 0
    }
    vtable_components {
      kind: FunctionPointer
      mangled_component_name: "_ZN7android7RefBase15onLastStrongRefEPKv"
      component_value: 0
    }
    vtable_components {
      kind: FunctionPointer
      mangled_component_name: "_ZN7android7RefBase20onIncStrongAttemptedEjPKv"
      component_value: 0
    }
    vtable_components {
      kind: FunctionPointer
      mangled_component_name: "_ZN7android7RefBase13onLastWeakRefEPKv"
      component_value: 0
    }
  }
}
records {
  basic_abi {
    type_abi {
      name: "android::hardware::media::omx::V1_0::BnHwOmxBufferSource"
      size: 80
      alignment: 4
    }
    name: "android::hardware::media::omx::V1_0::BnHwOmxBufferSource"
    access: public_access
    linker_set_key: "android::hardware::media::omx::V1_0::BnHwOmxBufferSource"
  }
  fields {
    basic_abi {
      type_abi {
        name: "android::sp<android::hardware::media::omx::V1_0::IOmxBufferSource>"
        size: 4
        alignment: 4
      }
      name: "_hidl_mImpl"
      access: private_access
    }
  }
  base_specifiers {
    basic_abi {
      type_abi {
        name: "android::hidl::base::V1_0::BnHwBase"
      }
      name: ""
      access: public_access
    }
    is_virtual: false
  }
  source_file: "/data/aosp/out/soong/.intermediates/hardware/interfaces/media/omx/1.0/android.hardware.media.omx@1.0_genc++_headers/gen/android/hardware/media/omx/1.0/BnHwOmxBufferSource.h"
  mangled_record_name: "android::hardware::media::omx::V1_0::BnHwOmxBufferSource"
  vtable_layout {
    vtable_components {
      kind: VBaseOffset
      mangled_component_name: ""
      component_value: 72
    }
    vtable_components {
      kind: OffsetToTop
      mangled_component_name: ""
      component_value: 0
    }
    vtable_components {
      kind: RTTI
      mangled_component_name: "android::hardware::media::omx::V1_0::BnHwOmxBufferSource"
      component_value: 0
    }
    vtable_components {
      kind: FunctionPointer
      mangled_component_name: "_ZN7android8hardware9BHwBinder8transactEjRKNS0_6ParcelEPS2_jNSt3__18functionIFvRS2_EEE"
      component_value: 0
    }
    vtable_components {
      kind: FunctionPointer
      mangled_component_name: "_ZN7android8hardware9BHwBinder11linkToDeathERKNS_2spINS0_7IBinder14DeathRecipientEEEPvj"
      component_value: 0
    }
    vtable_components {
      kind: FunctionPointer
      mangled_component_name: "_ZN7android8hardware9BHwBinder13unlinkToDeathERKNS_2wpINS0_7IBinder14DeathRecipientEEEPvjPS5_"
      component_value: 0
    }
    vtable_components {
      kind: FunctionPointer
      mangled_component_name: "_ZNK7android8hardware7IBinder13checkSubclassEPKv"
      component_value: 0
    }
    vtable_components {
      kind: FunctionPointer
      mangled_component_name: "_ZN7android8hardware9BHwBinder12attachObjectEPKvPvS4_PFvS3_S4_S4_E"
      component_value: 0
    }
    vtable_components {
      kind: FunctionPointer
      mangled_component_name: "_ZNK7android8hardware9BHwBinder10findObjectEPKv"
      component_value: 0
    }
    vtable_components {
      kind: FunctionPointer
      mangled_component_name: "_ZN7android8hardware9BHwBinder12detachObjectEPKv"
      component_value: 0
    }
    vtable_components {
      kind: FunctionPointer
      mangled_component_name: "_ZN7android8hardware9BHwBinder11localBinderEv"
      component_value: 0
    }
    vtable_components {
      kind: FunctionPointer
      mangled_component_name: "_ZN7android8hardware7IBinder12remoteBinderEv"
      component_value: 0
    }
    vtable_components {
      kind: CompleteDtorPointer
      mangled_component_name: "_ZN7android8hardware5media3omx4V1_019BnHwOmxBufferSourceD1Ev"
      component_value: 0
    }
    vtable_components {
      kind: DeletingDtorPointer
      mangled_component_name: "_ZN7android8hardware5media3omx4V1_019BnHwOmxBufferSourceD0Ev"
      component_value: 0
    }
    vtable_components {
      kind: FunctionPointer
      mangled_component_name: "_ZN7android8hardware5media3omx4V1_019BnHwOmxBufferSource10onTransactEjRKNS0_6ParcelEPS5_jNSt3__18functionIFvRS5_EEE"
      component_value: 0
    }
    vtable_components {
      kind: OffsetToTop
      mangled_component_name: ""
      component_value: -20
    }
    vtable_components {
      kind: RTTI
      mangled_component_name: "android::hardware::media::omx::V1_0::BnHwOmxBufferSource"
      component_value: 0
    }
    vtable_components {
      kind: CompleteDtorPointer
      mangled_component_name: "_ZN7android8hardware5media3omx4V1_019BnHwOmxBufferSourceD1Ev"
      component_value: 0
    }
    vtable_components {
      kind: DeletingDtorPointer
      mangled_component_name: "_ZN7android8hardware5media3omx4V1_019BnHwOmxBufferSourceD0Ev"
      component_value: 0
    }
    vtable_components {
      kind: VCallOffset
      mangled_component_name: ""
      component_value: 0
    }
    vtable_components {
      kind: VCallOffset
      mangled_component_name: ""
      component_value: 0
    }
    vtable_components {
      kind: VCallOffset
      mangled_component_name: ""
      component_value: 0
    }
    vtable_components {
      kind: VCallOffset
      mangled_component_name: ""
      component_value: 0
    }
    vtable_components {
      kind: VCallOffset
      mangled_component_name: ""
      component_value: -72
    }
    vtable_components {
      kind: OffsetToTop
      mangled_component_name: ""
      component_value: -72
    }
    vtable_components {
      kind: RTTI
      mangled_component_name: "android::hardware::media::omx::V1_0::BnHwOmxBufferSource"
      component_value: 0
    }
    vtable_components {
      kind: CompleteDtorPointer
      mangled_component_name: "_ZN7android8hardware5media3omx4V1_019BnHwOmxBufferSourceD1Ev"
      component_value: 0
    }
    vtable_components {
      kind: DeletingDtorPointer
      mangled_component_name: "_ZN7android8hardware5media3omx4V1_019BnHwOmxBufferSourceD0Ev"
      component_value: 0
    }
    vtable_components {
      kind: FunctionPointer
      mangled_component_name: "_ZN7android7RefBase10onFirstRefEv"
      component_value: 0
    }
    vtable_components {
      kind: FunctionPointer
      mangled_component_name: "_ZN7android7RefBase15onLastStrongRefEPKv"
      component_value: 0
    }
    vtable_components {
      kind: FunctionPointer
      mangled_component_name: "_ZN7android7RefBase20onIncStrongAttemptedEjPKv"
      component_value: 0
    }
    vtable_components {
      kind: FunctionPointer
      mangled_component_name: "_ZN7android7RefBase13onLastWeakRefEPKv"
      component_value: 0
    }
  }
}
records {
  basic_abi {
    type_abi {
      name: "android::hardware::media::omx::V1_0::BpHwOmxBufferSource"
      size: 92
      alignment: 4
    }
    name: "android::hardware::media::omx::V1_0::BpHwOmxBufferSource"
    access: public_access
    linker_set_key: "android::hardware::media::omx::V1_0::BpHwOmxBufferSource"
  }
  fields {
    basic_abi {
      type_abi {
        name: "std::mutex"
        size: 4
        alignment: 4
      }
      name: "_hidl_mMutex"
      access: private_access
    }
  }
  fields {
    basic_abi {
      type_abi {
        name: "std::vector<android::sp<android::hardware::hidl_binder_death_recipient>, std::allocator<android::sp<android::hardware::hidl_binder_death_recipient> > >"
        size: 12
        alignment: 4
      }
      name: "_hidl_mDeathRecipients"
      access: private_access
    }
  }
  base_specifiers {
    basic_abi {
      type_abi {
        name: "android::hardware::BpInterface<android::hardware::media::omx::V1_0::IOmxBufferSource>"
      }
      name: ""
      access: public_access
    }
    is_virtual: false
  }
  base_specifiers {
    basic_abi {
      type_abi {
        name: "android::hardware::details::HidlInstrumentor"
      }
      name: ""
      access: public_access
    }
    is_virtual: false
  }
  source_file: "/data/aosp/out/soong/.intermediates/hardware/interfaces/media/omx/1.0/android.hardware.media.omx@1.0_genc++_headers/gen/android/hardware/media/omx/1.0/BpHwOmxBufferSource.h"
  mangled_record_name: "android::hardware::media::omx::V1_0::BpHwOmxBufferSource"
  vtable_layout {
    vtable_components {
      kind: VBaseOffset
      mangled_component_name: ""
      component_value: 84
    }
    vtable_components {
      kind: OffsetToTop
      mangled_component_name: ""
      component_value: 0
    }
    vtable_components {
      kind: RTTI
      mangled_component_name: "android::hardware::media::omx::V1_0::BpHwOmxBufferSource"
      component_value: 0
    }
    vtable_components {
      kind: FunctionPointer
      mangled_component_name: "_ZNK7android8hardware5media3omx4V1_019BpHwOmxBufferSource8isRemoteEv"
      component_value: 0
    }
    vtable_components {
      kind: FunctionPointer
      mangled_component_name: "_ZN7android8hardware5media3omx4V1_019BpHwOmxBufferSource14interfaceChainENSt3__18functionIFvRKNS0_8hidl_vecINS0_11hidl_stringEEEEEE"
      component_value: 0
    }
    vtable_components {
      kind: FunctionPointer
      mangled_component_name: "_ZN7android8hardware5media3omx4V1_019BpHwOmxBufferSource5debugERKNS0_11hidl_handleERKNS0_8hidl_vecINS0_11hidl_stringEEE"
      component_value: 0
    }
    vtable_components {
      kind: FunctionPointer
      mangled_component_name: "_ZN7android8hardware5media3omx4V1_019BpHwOmxBufferSource19interfaceDescriptorENSt3__18functionIFvRKNS0_11hidl_stringEEEE"
      component_value: 0
    }
    vtable_components {
      kind: FunctionPointer
      mangled_component_name: "_ZN7android8hardware5media3omx4V1_019BpHwOmxBufferSource12getHashChainENSt3__18functionIFvRKNS0_8hidl_vecINS0_10hidl_arrayIhLj32EJEEEEEEEE"
      component_value: 0
    }
    vtable_components {
      kind: FunctionPointer
      mangled_component_name: "_ZN7android8hardware5media3omx4V1_019BpHwOmxBufferSource21setHALInstrumentationEv"
      component_value: 0
    }
    vtable_components {
      kind: FunctionPointer
      mangled_component_name: "_ZN7android8hardware5media3omx4V1_019BpHwOmxBufferSource11linkToDeathERKNS_2spINS0_20hidl_death_recipientEEEy"
      component_value: 0
    }
    vtable_components {
      kind: FunctionPointer
      mangled_component_name: "_ZN7android8hardware5media3omx4V1_019BpHwOmxBufferSource4pingEv"
      component_value: 0
    }
    vtable_components {
      kind: FunctionPointer
      mangled_component_name: "_ZN7android8hardware5media3omx4V1_019BpHwOmxBufferSource12getDebugInfoENSt3__18functionIFvRKNS_4hidl4base4V1_09DebugInfoEEEE"
      component_value: 0
    }
    vtable_components {
      kind: FunctionPointer
      mangled_component_name: "_ZN7android8hardware5media3omx4V1_019BpHwOmxBufferSource21notifySyspropsChangedEv"
      component_value: 0
    }
    vtable_components {
      kind: FunctionPointer
      mangled_component_name: "_ZN7android8hardware5media3omx4V1_019BpHwOmxBufferSource13unlinkToDeathERKNS_2spINS0_20hidl_death_recipientEEE"
      component_value: 0
    }
    vtable_components {
      kind: CompleteDtorPointer
      mangled_component_name: "_ZN7android8hardware5media3omx4V1_019BpHwOmxBufferSourceD1Ev"
      component_value: 0
    }
    vtable_components {
      kind: DeletingDtorPointer
      mangled_component_name: "_ZN7android8hardware5media3omx4V1_019BpHwOmxBufferSourceD0Ev"
      component_value: 0
    }
    vtable_components {
      kind: FunctionPointer
      mangled_component_name: "_ZN7android8hardware5media3omx4V1_019BpHwOmxBufferSource14onOmxExecutingEv"
      component_value: 0
    }
    vtable_components {
      kind: FunctionPointer
      mangled_component_name: "_ZN7android8hardware5media3omx4V1_019BpHwOmxBufferSource9onOmxIdleEv"
      component_value: 0
    }
    vtable_components {
      kind: FunctionPointer
      mangled_component_name: "_ZN7android8hardware5media3omx4V1_019BpHwOmxBufferSource11onOmxLoadedEv"
      component_value: 0
    }
    vtable_components {
      kind: FunctionPointer
      mangled_component_name: "_ZN7android8hardware5media3omx4V1_019BpHwOmxBufferSource18onInputBufferAddedEj"
      component_value: 0
    }
    vtable_components {
      kind: FunctionPointer
      mangled_component_name: "_ZN7android8hardware5media3omx4V1_019BpHwOmxBufferSource20onInputBufferEmptiedEjRKNS0_11hidl_handleE"
      component_value: 0
    }
    vtable_components {
      kind: FunctionPointer
      mangled_component_name: "_ZN7android8hardware11BpInterfaceINS0_5media3omx4V1_016IOmxBufferSourceEE10onAsBinderEv"
      component_value: 0
    }
    vtable_components {
      kind: VBaseOffset
      mangled_component_name: ""
      component_value: 80
    }
    vtable_components {
      kind: OffsetToTop
      mangled_component_name: ""
      component_value: -4
    }
    vtable_components {
      kind: RTTI
      mangled_component_name: "android::hardware::media::omx::V1_0::BpHwOmxBufferSource"
      component_value: 0
    }
    vtable_components {
      kind: CompleteDtorPointer
      mangled_component_name: "_ZN7android8hardware5media3omx4V1_019BpHwOmxBufferSourceD1Ev"
      component_value: 0
    }
    vtable_components {
      kind: DeletingDtorPointer
      mangled_component_name: "_ZN7android8hardware5media3omx4V1_019BpHwOmxBufferSourceD0Ev"
      component_value: 0
    }
    vtable_components {
      kind: FunctionPointer
      mangled_component_name: "_ZN7android8hardware11BpInterfaceINS0_5media3omx4V1_016IOmxBufferSourceEE10onAsBinderEv"
      component_value: 0
    }
    vtable_components {
      kind: VBaseOffset
      mangled_component_name: ""
      component_value: 76
    }
    vtable_components {
      kind: OffsetToTop
      mangled_component_name: ""
      component_value: -8
    }
    vtable_components {
      kind: RTTI
      mangled_component_name: "android::hardware::media::omx::V1_0::BpHwOmxBufferSource"
      component_value: 0
    }
    vtable_components {
      kind: CompleteDtorPointer
      mangled_component_name: "_ZN7android8hardware5media3omx4V1_019BpHwOmxBufferSourceD1Ev"
      component_value: 0
    }
    vtable_components {
      kind: DeletingDtorPointer
      mangled_component_name: "_ZN7android8hardware5media3omx4V1_019BpHwOmxBufferSourceD0Ev"
      component_value: 0
    }
    vtable_components {
      kind: FunctionPointer
      mangled_component_name: "_ZN7android8hardware11BpHwRefBase10onFirstRefEv"
      component_value: 0
    }
    vtable_components {
      kind: FunctionPointer
      mangled_component_name: "_ZN7android8hardware11BpHwRefBase15onLastStrongRefEPKv"
      component_value: 0
    }
    vtable_components {
      kind: FunctionPointer
      mangled_component_name: "_ZN7android8hardware11BpHwRefBase20onIncStrongAttemptedEjPKv"
      component_value: 0
    }
    vtable_components {
      kind: OffsetToTop
      mangled_component_name: ""
      component_value: -24
    }
    vtable_components {
      kind: RTTI
      mangled_component_name: "android::hardware::media::omx::V1_0::BpHwOmxBufferSource"
      component_value: 0
    }
    vtable_components {
      kind: CompleteDtorPointer
      mangled_component_name: "_ZN7android8hardware5media3omx4V1_019BpHwOmxBufferSourceD1Ev"
      component_value: 0
    }
    vtable_components {
      kind: DeletingDtorPointer
      mangled_component_name: "_ZN7android8hardware5media3omx4V1_019BpHwOmxBufferSourceD0Ev"
      component_value: 0
    }
    vtable_components {
      kind: VCallOffset
      mangled_component_name: ""
      component_value: 0
    }
    vtable_components {
      kind: VCallOffset
      mangled_component_name: ""
      component_value: -76
    }
    vtable_components {
      kind: VCallOffset
      mangled_component_name: ""
      component_value: -76
    }
    vtable_components {
      kind: VCallOffset
      mangled_component_name: ""
      component_value: -76
    }
    vtable_components {
      kind: VCallOffset
      mangled_component_name: ""
      component_value: -84
    }
    vtable_components {
      kind: OffsetToTop
      mangled_component_name: ""
      component_value: -84
    }
    vtable_components {
      kind: RTTI
      mangled_component_name: "android::hardware::media::omx::V1_0::BpHwOmxBufferSource"
      component_value: 0
    }
    vtable_components {
      kind: CompleteDtorPointer
      mangled_component_name: "_ZN7android8hardware5media3omx4V1_019BpHwOmxBufferSourceD1Ev"
      component_value: 0
    }
    vtable_components {
      kind: DeletingDtorPointer
      mangled_component_name: "_ZN7android8hardware5media3omx4V1_019BpHwOmxBufferSourceD0Ev"
      component_value: 0
    }
    vtable_components {
      kind: FunctionPointer
      mangled_component_name: "_ZN7android8hardware11BpHwRefBase10onFirstRefEv"
      component_value: 0
    }
    vtable_components {
      kind: FunctionPointer
      mangled_component_name: "_ZN7android8hardware11BpHwRefBase15onLastStrongRefEPKv"
      component_value: 0
    }
    vtable_components {
      kind: FunctionPointer
      mangled_component_name: "_ZN7android8hardware11BpHwRefBase20onIncStrongAttemptedEjPKv"
      component_value: 0
    }
    vtable_components {
      kind: FunctionPointer
      mangled_component_name: "_ZN7android7RefBase13onLastWeakRefEPKv"
      component_value: 0
    }
  }
}
records {
  basic_abi {
    type_abi {
      name: "android::hardware::media::omx::V1_0::BpHwOmxNode"
      size: 92
      alignment: 4
    }
    name: "android::hardware::media::omx::V1_0::BpHwOmxNode"
    access: public_access
    linker_set_key: "android::hardware::media::omx::V1_0::BpHwOmxNode"
  }
  fields {
    basic_abi {
      type_abi {
        name: "std::mutex"
        size: 4
        alignment: 4
      }
      name: "_hidl_mMutex"
      access: private_access
    }
  }
  fields {
    basic_abi {
      type_abi {
        name: "std::vector<android::sp<android::hardware::hidl_binder_death_recipient>, std::allocator<android::sp<android::hardware::hidl_binder_death_recipient> > >"
        size: 12
        alignment: 4
      }
      name: "_hidl_mDeathRecipients"
      access: private_access
    }
  }
  base_specifiers {
    basic_abi {
      type_abi {
        name: "android::hardware::BpInterface<android::hardware::media::omx::V1_0::IOmxNode>"
      }
      name: ""
      access: public_access
    }
    is_virtual: false
  }
  base_specifiers {
    basic_abi {
      type_abi {
        name: "android::hardware::details::HidlInstrumentor"
      }
      name: ""
      access: public_access
    }
    is_virtual: false
  }
  source_file: "/data/aosp/out/soong/.intermediates/hardware/interfaces/media/omx/1.0/android.hardware.media.omx@1.0_genc++_headers/gen/android/hardware/media/omx/1.0/BpHwOmxNode.h"
  mangled_record_name: "android::hardware::media::omx::V1_0::BpHwOmxNode"
  vtable_layout {
    vtable_components {
      kind: VBaseOffset
      mangled_component_name: ""
      component_value: 84
    }
    vtable_components {
      kind: OffsetToTop
      mangled_component_name: ""
      component_value: 0
    }
    vtable_components {
      kind: RTTI
      mangled_component_name: "android::hardware::media::omx::V1_0::BpHwOmxNode"
      component_value: 0
    }
    vtable_components {
      kind: FunctionPointer
      mangled_component_name: "_ZNK7android8hardware5media3omx4V1_011BpHwOmxNode8isRemoteEv"
      component_value: 0
    }
    vtable_components {
      kind: FunctionPointer
      mangled_component_name: "_ZN7android8hardware5media3omx4V1_011BpHwOmxNode14interfaceChainENSt3__18functionIFvRKNS0_8hidl_vecINS0_11hidl_stringEEEEEE"
      component_value: 0
    }
    vtable_components {
      kind: FunctionPointer
      mangled_component_name: "_ZN7android8hardware5media3omx4V1_011BpHwOmxNode5debugERKNS0_11hidl_handleERKNS0_8hidl_vecINS0_11hidl_stringEEE"
      component_value: 0
    }
    vtable_components {
      kind: FunctionPointer
      mangled_component_name: "_ZN7android8hardware5media3omx4V1_011BpHwOmxNode19interfaceDescriptorENSt3__18functionIFvRKNS0_11hidl_stringEEEE"
      component_value: 0
    }
    vtable_components {
      kind: FunctionPointer
      mangled_component_name: "_ZN7android8hardware5media3omx4V1_011BpHwOmxNode12getHashChainENSt3__18functionIFvRKNS0_8hidl_vecINS0_10hidl_arrayIhLj32EJEEEEEEEE"
      component_value: 0
    }
    vtable_components {
      kind: FunctionPointer
      mangled_component_name: "_ZN7android8hardware5media3omx4V1_011BpHwOmxNode21setHALInstrumentationEv"
      component_value: 0
    }
    vtable_components {
      kind: FunctionPointer
      mangled_component_name: "_ZN7android8hardware5media3omx4V1_011BpHwOmxNode11linkToDeathERKNS_2spINS0_20hidl_death_recipientEEEy"
      component_value: 0
    }
    vtable_components {
      kind: FunctionPointer
      mangled_component_name: "_ZN7android8hardware5media3omx4V1_011BpHwOmxNode4pingEv"
      component_value: 0
    }
    vtable_components {
      kind: FunctionPointer
      mangled_component_name: "_ZN7android8hardware5media3omx4V1_011BpHwOmxNode12getDebugInfoENSt3__18functionIFvRKNS_4hidl4base4V1_09DebugInfoEEEE"
      component_value: 0
    }
    vtable_components {
      kind: FunctionPointer
      mangled_component_name: "_ZN7android8hardware5media3omx4V1_011BpHwOmxNode21notifySyspropsChangedEv"
      component_value: 0
    }
    vtable_components {
      kind: FunctionPointer
      mangled_component_name: "_ZN7android8hardware5media3omx4V1_011BpHwOmxNode13unlinkToDeathERKNS_2spINS0_20hidl_death_recipientEEE"
      component_value: 0
    }
    vtable_components {
      kind: CompleteDtorPointer
      mangled_component_name: "_ZN7android8hardware5media3omx4V1_011BpHwOmxNodeD1Ev"
      component_value: 0
    }
    vtable_components {
      kind: DeletingDtorPointer
      mangled_component_name: "_ZN7android8hardware5media3omx4V1_011BpHwOmxNodeD0Ev"
      component_value: 0
    }
    vtable_components {
      kind: FunctionPointer
      mangled_component_name: "_ZN7android8hardware5media3omx4V1_011BpHwOmxNode8freeNodeEv"
      component_value: 0
    }
    vtable_components {
      kind: FunctionPointer
      mangled_component_name: "_ZN7android8hardware5media3omx4V1_011BpHwOmxNode11sendCommandEji"
      component_value: 0
    }
    vtable_components {
      kind: FunctionPointer
      mangled_component_name: "_ZN7android8hardware5media3omx4V1_011BpHwOmxNode12getParameterEjRKNS0_8hidl_vecIhEENSt3__18functionIFvNS3_6StatusES8_EEE"
      component_value: 0
    }
    vtable_components {
      kind: FunctionPointer
      mangled_component_name: "_ZN7android8hardware5media3omx4V1_011BpHwOmxNode12setParameterEjRKNS0_8hidl_vecIhEE"
      component_value: 0
    }
    vtable_components {
      kind: FunctionPointer
      mangled_component_name: "_ZN7android8hardware5media3omx4V1_011BpHwOmxNode9getConfigEjRKNS0_8hidl_vecIhEENSt3__18functionIFvNS3_6StatusES8_EEE"
      component_value: 0
    }
    vtable_components {
      kind: FunctionPointer
      mangled_component_name: "_ZN7android8hardware5media3omx4V1_011BpHwOmxNode9setConfigEjRKNS0_8hidl_vecIhEE"
      component_value: 0
    }
    vtable_components {
      kind: FunctionPointer
      mangled_component_name: "_ZN7android8hardware5media3omx4V1_011BpHwOmxNode11setPortModeEjNS3_8PortModeE"
      component_value: 0
    }
    vtable_components {
      kind: FunctionPointer
      mangled_component_name: "_ZN7android8hardware5media3omx4V1_011BpHwOmxNode26prepareForAdaptivePlaybackEjbjj"
      component_value: 0
    }
    vtable_components {
      kind: FunctionPointer
      mangled_component_name: "_ZN7android8hardware5media3omx4V1_011BpHwOmxNode24configureVideoTunnelModeEjbjNSt3__18functionIFvNS3_6StatusERKNS0_11hidl_handleEEEE"
      component_value: 0
    }
    vtable_components {
      kind: FunctionPointer
      mangled_component_name: "_ZN7android8hardware5media3omx4V1_011BpHwOmxNode21getGraphicBufferUsageEjNSt3__18functionIFvNS3_6StatusEjEEE"
      component_value: 0
    }
    vtable_components {
      kind: FunctionPointer
      mangled_component_name: "_ZN7android8hardware5media3omx4V1_011BpHwOmxNode15setInputSurfaceERKNS_2spINS3_16IOmxBufferSourceEEE"
      component_value: 0
    }
    vtable_components {
      kind: FunctionPointer
      mangled_component_name: "_ZN7android8hardware5media3omx4V1_011BpHwOmxNode20allocateSecureBufferEjyNSt3__18functionIFvNS3_6StatusEjRKNS0_11hidl_handleEEEE"
      component_value: 0
    }
    vtable_components {
      kind: FunctionPointer
      mangled_component_name: "_ZN7android8hardware5media3omx4V1_011BpHwOmxNode9useBufferEjRKNS3_11CodecBufferENSt3__18functionIFvNS3_6StatusEjEEE"
      component_value: 0
    }
    vtable_components {
      kind: FunctionPointer
      mangled_component_name: "_ZN7android8hardware5media3omx4V1_011BpHwOmxNode10freeBufferEjj"
      component_value: 0
    }
    vtable_components {
      kind: FunctionPointer
      mangled_component_name: "_ZN7android8hardware5media3omx4V1_011BpHwOmxNode10fillBufferEjRKNS3_11CodecBufferERKNS0_11hidl_handleE"
      component_value: 0
    }
    vtable_components {
      kind: FunctionPointer
      mangled_component_name: "_ZN7android8hardware5media3omx4V1_011BpHwOmxNode11emptyBufferEjRKNS3_11CodecBufferEjyRKNS0_11hidl_handleE"
      component_value: 0
    }
    vtable_components {
      kind: FunctionPointer
      mangled_component_name: "_ZN7android8hardware5media3omx4V1_011BpHwOmxNode17getExtensionIndexERKNS0_11hidl_stringENSt3__18functionIFvNS3_6StatusEjEEE"
      component_value: 0
    }
    vtable_components {
      kind: FunctionPointer
      mangled_component_name: "_ZN7android8hardware5media3omx4V1_011BpHwOmxNode15dispatchMessageERKNS3_7MessageE"
      component_value: 0
    }
    vtable_components {
      kind: FunctionPointer
      mangled_component_name: "_ZN7android8hardware11BpInterfaceINS0_5media3omx4V1_08IOmxNodeEE10onAsBinderEv"
      component_value: 0
    }
    vtable_components {
      kind: VBaseOffset
      mangled_component_name: ""
      component_value: 80
    }
    vtable_components {
      kind: OffsetToTop
      mangled_component_name: ""
      component_value: -4
    }
    vtable_components {
      kind: RTTI
      mangled_component_name: "android::hardware::media::omx::V1_0::BpHwOmxNode"
      component_value: 0
    }
    vtable_components {
      kind: CompleteDtorPointer
      mangled_component_name: "_ZN7android8hardware5media3omx4V1_011BpHwOmxNodeD1Ev"
      component_value: 0
    }
    vtable_components {
      kind: DeletingDtorPointer
      mangled_component_name: "_ZN7android8hardware5media3omx4V1_011BpHwOmxNodeD0Ev"
      component_value: 0
    }
    vtable_components {
      kind: FunctionPointer
      mangled_component_name: "_ZN7android8hardware11BpInterfaceINS0_5media3omx4V1_08IOmxNodeEE10onAsBinderEv"
      component_value: 0
    }
    vtable_components {
      kind: VBaseOffset
      mangled_component_name: ""
      component_value: 76
    }
    vtable_components {
      kind: OffsetToTop
      mangled_component_name: ""
      component_value: -8
    }
    vtable_components {
      kind: RTTI
      mangled_component_name: "android::hardware::media::omx::V1_0::BpHwOmxNode"
      component_value: 0
    }
    vtable_components {
      kind: CompleteDtorPointer
      mangled_component_name: "_ZN7android8hardware5media3omx4V1_011BpHwOmxNodeD1Ev"
      component_value: 0
    }
    vtable_components {
      kind: DeletingDtorPointer
      mangled_component_name: "_ZN7android8hardware5media3omx4V1_011BpHwOmxNodeD0Ev"
      component_value: 0
    }
    vtable_components {
      kind: FunctionPointer
      mangled_component_name: "_ZN7android8hardware11BpHwRefBase10onFirstRefEv"
      component_value: 0
    }
    vtable_components {
      kind: FunctionPointer
      mangled_component_name: "_ZN7android8hardware11BpHwRefBase15onLastStrongRefEPKv"
      component_value: 0
    }
    vtable_components {
      kind: FunctionPointer
      mangled_component_name: "_ZN7android8hardware11BpHwRefBase20onIncStrongAttemptedEjPKv"
      component_value: 0
    }
    vtable_components {
      kind: OffsetToTop
      mangled_component_name: ""
      component_value: -24
    }
    vtable_components {
      kind: RTTI
      mangled_component_name: "android::hardware::media::omx::V1_0::BpHwOmxNode"
      component_value: 0
    }
    vtable_components {
      kind: CompleteDtorPointer
      mangled_component_name: "_ZN7android8hardware5media3omx4V1_011BpHwOmxNodeD1Ev"
      component_value: 0
    }
    vtable_components {
      kind: DeletingDtorPointer
      mangled_component_name: "_ZN7android8hardware5media3omx4V1_011BpHwOmxNodeD0Ev"
      component_value: 0
    }
    vtable_components {
      kind: VCallOffset
      mangled_component_name: ""
      component_value: 0
    }
    vtable_components {
      kind: VCallOffset
      mangled_component_name: ""
      component_value: -76
    }
    vtable_components {
      kind: VCallOffset
      mangled_component_name: ""
      component_value: -76
    }
    vtable_components {
      kind: VCallOffset
      mangled_component_name: ""
      component_value: -76
    }
    vtable_components {
      kind: VCallOffset
      mangled_component_name: ""
      component_value: -84
    }
    vtable_components {
      kind: OffsetToTop
      mangled_component_name: ""
      component_value: -84
    }
    vtable_components {
      kind: RTTI
      mangled_component_name: "android::hardware::media::omx::V1_0::BpHwOmxNode"
      component_value: 0
    }
    vtable_components {
      kind: CompleteDtorPointer
      mangled_component_name: "_ZN7android8hardware5media3omx4V1_011BpHwOmxNodeD1Ev"
      component_value: 0
    }
    vtable_components {
      kind: DeletingDtorPointer
      mangled_component_name: "_ZN7android8hardware5media3omx4V1_011BpHwOmxNodeD0Ev"
      component_value: 0
    }
    vtable_components {
      kind: FunctionPointer
      mangled_component_name: "_ZN7android8hardware11BpHwRefBase10onFirstRefEv"
      component_value: 0
    }
    vtable_components {
      kind: FunctionPointer
      mangled_component_name: "_ZN7android8hardware11BpHwRefBase15onLastStrongRefEPKv"
      component_value: 0
    }
    vtable_components {
      kind: FunctionPointer
      mangled_component_name: "_ZN7android8hardware11BpHwRefBase20onIncStrongAttemptedEjPKv"
      component_value: 0
    }
    vtable_components {
      kind: FunctionPointer
      mangled_component_name: "_ZN7android7RefBase13onLastWeakRefEPKv"
      component_value: 0
    }
  }
}
records {
  basic_abi {
    type_abi {
      name: "android::hardware::media::omx::V1_0::BnHwOmxNode"
      size: 80
      alignment: 4
    }
    name: "android::hardware::media::omx::V1_0::BnHwOmxNode"
    access: public_access
    linker_set_key: "android::hardware::media::omx::V1_0::BnHwOmxNode"
  }
  fields {
    basic_abi {
      type_abi {
        name: "android::sp<android::hardware::media::omx::V1_0::IOmxNode>"
        size: 4
        alignment: 4
      }
      name: "_hidl_mImpl"
      access: private_access
    }
  }
  base_specifiers {
    basic_abi {
      type_abi {
        name: "android::hidl::base::V1_0::BnHwBase"
      }
      name: ""
      access: public_access
    }
    is_virtual: false
  }
  source_file: "/data/aosp/out/soong/.intermediates/hardware/interfaces/media/omx/1.0/android.hardware.media.omx@1.0_genc++_headers/gen/android/hardware/media/omx/1.0/BnHwOmxNode.h"
  mangled_record_name: "android::hardware::media::omx::V1_0::BnHwOmxNode"
  vtable_layout {
    vtable_components {
      kind: VBaseOffset
      mangled_component_name: ""
      component_value: 72
    }
    vtable_components {
      kind: OffsetToTop
      mangled_component_name: ""
      component_value: 0
    }
    vtable_components {
      kind: RTTI
      mangled_component_name: "android::hardware::media::omx::V1_0::BnHwOmxNode"
      component_value: 0
    }
    vtable_components {
      kind: FunctionPointer
      mangled_component_name: "_ZN7android8hardware9BHwBinder8transactEjRKNS0_6ParcelEPS2_jNSt3__18functionIFvRS2_EEE"
      component_value: 0
    }
    vtable_components {
      kind: FunctionPointer
      mangled_component_name: "_ZN7android8hardware9BHwBinder11linkToDeathERKNS_2spINS0_7IBinder14DeathRecipientEEEPvj"
      component_value: 0
    }
    vtable_components {
      kind: FunctionPointer
      mangled_component_name: "_ZN7android8hardware9BHwBinder13unlinkToDeathERKNS_2wpINS0_7IBinder14DeathRecipientEEEPvjPS5_"
      component_value: 0
    }
    vtable_components {
      kind: FunctionPointer
      mangled_component_name: "_ZNK7android8hardware7IBinder13checkSubclassEPKv"
      component_value: 0
    }
    vtable_components {
      kind: FunctionPointer
      mangled_component_name: "_ZN7android8hardware9BHwBinder12attachObjectEPKvPvS4_PFvS3_S4_S4_E"
      component_value: 0
    }
    vtable_components {
      kind: FunctionPointer
      mangled_component_name: "_ZNK7android8hardware9BHwBinder10findObjectEPKv"
      component_value: 0
    }
    vtable_components {
      kind: FunctionPointer
      mangled_component_name: "_ZN7android8hardware9BHwBinder12detachObjectEPKv"
      component_value: 0
    }
    vtable_components {
      kind: FunctionPointer
      mangled_component_name: "_ZN7android8hardware9BHwBinder11localBinderEv"
      component_value: 0
    }
    vtable_components {
      kind: FunctionPointer
      mangled_component_name: "_ZN7android8hardware7IBinder12remoteBinderEv"
      component_value: 0
    }
    vtable_components {
      kind: CompleteDtorPointer
      mangled_component_name: "_ZN7android8hardware5media3omx4V1_011BnHwOmxNodeD1Ev"
      component_value: 0
    }
    vtable_components {
      kind: DeletingDtorPointer
      mangled_component_name: "_ZN7android8hardware5media3omx4V1_011BnHwOmxNodeD0Ev"
      component_value: 0
    }
    vtable_components {
      kind: FunctionPointer
      mangled_component_name: "_ZN7android8hardware5media3omx4V1_011BnHwOmxNode10onTransactEjRKNS0_6ParcelEPS5_jNSt3__18functionIFvRS5_EEE"
      component_value: 0
    }
    vtable_components {
      kind: OffsetToTop
      mangled_component_name: ""
      component_value: -20
    }
    vtable_components {
      kind: RTTI
      mangled_component_name: "android::hardware::media::omx::V1_0::BnHwOmxNode"
      component_value: 0
    }
    vtable_components {
      kind: CompleteDtorPointer
      mangled_component_name: "_ZN7android8hardware5media3omx4V1_011BnHwOmxNodeD1Ev"
      component_value: 0
    }
    vtable_components {
      kind: DeletingDtorPointer
      mangled_component_name: "_ZN7android8hardware5media3omx4V1_011BnHwOmxNodeD0Ev"
      component_value: 0
    }
    vtable_components {
      kind: VCallOffset
      mangled_component_name: ""
      component_value: 0
    }
    vtable_components {
      kind: VCallOffset
      mangled_component_name: ""
      component_value: 0
    }
    vtable_components {
      kind: VCallOffset
      mangled_component_name: ""
      component_value: 0
    }
    vtable_components {
      kind: VCallOffset
      mangled_component_name: ""
      component_value: 0
    }
    vtable_components {
      kind: VCallOffset
      mangled_component_name: ""
      component_value: -72
    }
    vtable_components {
      kind: OffsetToTop
      mangled_component_name: ""
      component_value: -72
    }
    vtable_components {
      kind: RTTI
      mangled_component_name: "android::hardware::media::omx::V1_0::BnHwOmxNode"
      component_value: 0
    }
    vtable_components {
      kind: CompleteDtorPointer
      mangled_component_name: "_ZN7android8hardware5media3omx4V1_011BnHwOmxNodeD1Ev"
      component_value: 0
    }
    vtable_components {
      kind: DeletingDtorPointer
      mangled_component_name: "_ZN7android8hardware5media3omx4V1_011BnHwOmxNodeD0Ev"
      component_value: 0
    }
    vtable_components {
      kind: FunctionPointer
      mangled_component_name: "_ZN7android7RefBase10onFirstRefEv"
      component_value: 0
    }
    vtable_components {
      kind: FunctionPointer
      mangled_component_name: "_ZN7android7RefBase15onLastStrongRefEPKv"
      component_value: 0
    }
    vtable_components {
      kind: FunctionPointer
      mangled_component_name: "_ZN7android7RefBase20onIncStrongAttemptedEjPKv"
      component_value: 0
    }
    vtable_components {
      kind: FunctionPointer
      mangled_component_name: "_ZN7android7RefBase13onLastWeakRefEPKv"
      component_value: 0
    }
  }
}
records {
  basic_abi {
    type_abi {
      name: "android::hardware::media::omx::V1_0::BsOmxNode"
      size: 68
      alignment: 4
    }
    name: "android::hardware::media::omx::V1_0::BsOmxNode"
    access: public_access
    linker_set_key: "android::hardware::media::omx::V1_0::BsOmxNode"
  }
  fields {
    basic_abi {
      type_abi {
        name: "const android::sp<android::hardware::media::omx::V1_0::IOmxNode>"
        size: 4
        alignment: 4
      }
      name: "mImpl"
      access: private_access
    }
  }
  fields {
    basic_abi {
      type_abi {
        name: "android::hardware::details::TaskRunner"
        size: 8
        alignment: 4
      }
      name: "mOnewayQueue"
      access: private_access
    }
  }
  base_specifiers {
    basic_abi {
      type_abi {
        name: "android::hardware::media::omx::V1_0::IOmxNode"
      }
      name: ""
      access: public_access
    }
    is_virtual: false
  }
  base_specifiers {
    basic_abi {
      type_abi {
        name: "android::hardware::details::HidlInstrumentor"
      }
      name: ""
      access: public_access
    }
    is_virtual: false
  }
  source_file: "/data/aosp/out/soong/.intermediates/hardware/interfaces/media/omx/1.0/android.hardware.media.omx@1.0_genc++_headers/gen/android/hardware/media/omx/1.0/BsOmxNode.h"
  mangled_record_name: "android::hardware::media::omx::V1_0::BsOmxNode"
  vtable_layout {
    vtable_components {
      kind: VBaseOffset
      mangled_component_name: ""
      component_value: 60
    }
    vtable_components {
      kind: OffsetToTop
      mangled_component_name: ""
      component_value: 0
    }
    vtable_components {
      kind: RTTI
      mangled_component_name: "android::hardware::media::omx::V1_0::BsOmxNode"
      component_value: 0
    }
    vtable_components {
      kind: FunctionPointer
      mangled_component_name: "_ZNK7android8hardware5media3omx4V1_08IOmxNode8isRemoteEv"
      component_value: 0
    }
    vtable_components {
      kind: FunctionPointer
      mangled_component_name: "_ZN7android8hardware5media3omx4V1_09BsOmxNode14interfaceChainENSt3__18functionIFvRKNS0_8hidl_vecINS0_11hidl_stringEEEEEE"
      component_value: 0
    }
    vtable_components {
      kind: FunctionPointer
      mangled_component_name: "_ZN7android8hardware5media3omx4V1_09BsOmxNode5debugERKNS0_11hidl_handleERKNS0_8hidl_vecINS0_11hidl_stringEEE"
      component_value: 0
    }
    vtable_components {
      kind: FunctionPointer
      mangled_component_name: "_ZN7android8hardware5media3omx4V1_09BsOmxNode19interfaceDescriptorENSt3__18functionIFvRKNS0_11hidl_stringEEEE"
      component_value: 0
    }
    vtable_components {
      kind: FunctionPointer
      mangled_component_name: "_ZN7android8hardware5media3omx4V1_09BsOmxNode12getHashChainENSt3__18functionIFvRKNS0_8hidl_vecINS0_10hidl_arrayIhLj32EJEEEEEEEE"
      component_value: 0
    }
    vtable_components {
      kind: FunctionPointer
      mangled_component_name: "_ZN7android8hardware5media3omx4V1_09BsOmxNode21setHALInstrumentationEv"
      component_value: 0
    }
    vtable_components {
      kind: FunctionPointer
      mangled_component_name: "_ZN7android8hardware5media3omx4V1_09BsOmxNode11linkToDeathERKNS_2spINS0_20hidl_death_recipientEEEy"
      component_value: 0
    }
    vtable_components {
      kind: FunctionPointer
      mangled_component_name: "_ZN7android8hardware5media3omx4V1_09BsOmxNode4pingEv"
      component_value: 0
    }
    vtable_components {
      kind: FunctionPointer
      mangled_component_name: "_ZN7android8hardware5media3omx4V1_09BsOmxNode12getDebugInfoENSt3__18functionIFvRKNS_4hidl4base4V1_09DebugInfoEEEE"
      component_value: 0
    }
    vtable_components {
      kind: FunctionPointer
      mangled_component_name: "_ZN7android8hardware5media3omx4V1_09BsOmxNode21notifySyspropsChangedEv"
      component_value: 0
    }
    vtable_components {
      kind: FunctionPointer
      mangled_component_name: "_ZN7android8hardware5media3omx4V1_09BsOmxNode13unlinkToDeathERKNS_2spINS0_20hidl_death_recipientEEE"
      component_value: 0
    }
    vtable_components {
      kind: CompleteDtorPointer
      mangled_component_name: "_ZN7android8hardware5media3omx4V1_09BsOmxNodeD1Ev"
      component_value: 0
    }
    vtable_components {
      kind: DeletingDtorPointer
      mangled_component_name: "_ZN7android8hardware5media3omx4V1_09BsOmxNodeD0Ev"
      component_value: 0
    }
    vtable_components {
      kind: FunctionPointer
      mangled_component_name: "_ZN7android8hardware5media3omx4V1_09BsOmxNode8freeNodeEv"
      component_value: 0
    }
    vtable_components {
      kind: FunctionPointer
      mangled_component_name: "_ZN7android8hardware5media3omx4V1_09BsOmxNode11sendCommandEji"
      component_value: 0
    }
    vtable_components {
      kind: FunctionPointer
      mangled_component_name: "_ZN7android8hardware5media3omx4V1_09BsOmxNode12getParameterEjRKNS0_8hidl_vecIhEENSt3__18functionIFvNS3_6StatusES8_EEE"
      component_value: 0
    }
    vtable_components {
      kind: FunctionPointer
      mangled_component_name: "_ZN7android8hardware5media3omx4V1_09BsOmxNode12setParameterEjRKNS0_8hidl_vecIhEE"
      component_value: 0
    }
    vtable_components {
      kind: FunctionPointer
      mangled_component_name: "_ZN7android8hardware5media3omx4V1_09BsOmxNode9getConfigEjRKNS0_8hidl_vecIhEENSt3__18functionIFvNS3_6StatusES8_EEE"
      component_value: 0
    }
    vtable_components {
      kind: FunctionPointer
      mangled_component_name: "_ZN7android8hardware5media3omx4V1_09BsOmxNode9setConfigEjRKNS0_8hidl_vecIhEE"
      component_value: 0
    }
    vtable_components {
      kind: FunctionPointer
      mangled_component_name: "_ZN7android8hardware5media3omx4V1_09BsOmxNode11setPortModeEjNS3_8PortModeE"
      component_value: 0
    }
    vtable_components {
      kind: FunctionPointer
      mangled_component_name: "_ZN7android8hardware5media3omx4V1_09BsOmxNode26prepareForAdaptivePlaybackEjbjj"
      component_value: 0
    }
    vtable_components {
      kind: FunctionPointer
      mangled_component_name: "_ZN7android8hardware5media3omx4V1_09BsOmxNode24configureVideoTunnelModeEjbjNSt3__18functionIFvNS3_6StatusERKNS0_11hidl_handleEEEE"
      component_value: 0
    }
    vtable_components {
      kind: FunctionPointer
      mangled_component_name: "_ZN7android8hardware5media3omx4V1_09BsOmxNode21getGraphicBufferUsageEjNSt3__18functionIFvNS3_6StatusEjEEE"
      component_value: 0
    }
    vtable_components {
      kind: FunctionPointer
      mangled_component_name: "_ZN7android8hardware5media3omx4V1_09BsOmxNode15setInputSurfaceERKNS_2spINS3_16IOmxBufferSourceEEE"
      component_value: 0
    }
    vtable_components {
      kind: FunctionPointer
      mangled_component_name: "_ZN7android8hardware5media3omx4V1_09BsOmxNode20allocateSecureBufferEjyNSt3__18functionIFvNS3_6StatusEjRKNS0_11hidl_handleEEEE"
      component_value: 0
    }
    vtable_components {
      kind: FunctionPointer
      mangled_component_name: "_ZN7android8hardware5media3omx4V1_09BsOmxNode9useBufferEjRKNS3_11CodecBufferENSt3__18functionIFvNS3_6StatusEjEEE"
      component_value: 0
    }
    vtable_components {
      kind: FunctionPointer
      mangled_component_name: "_ZN7android8hardware5media3omx4V1_09BsOmxNode10freeBufferEjj"
      component_value: 0
    }
    vtable_components {
      kind: FunctionPointer
      mangled_component_name: "_ZN7android8hardware5media3omx4V1_09BsOmxNode10fillBufferEjRKNS3_11CodecBufferERKNS0_11hidl_handleE"
      component_value: 0
    }
    vtable_components {
      kind: FunctionPointer
      mangled_component_name: "_ZN7android8hardware5media3omx4V1_09BsOmxNode11emptyBufferEjRKNS3_11CodecBufferEjyRKNS0_11hidl_handleE"
      component_value: 0
    }
    vtable_components {
      kind: FunctionPointer
      mangled_component_name: "_ZN7android8hardware5media3omx4V1_09BsOmxNode17getExtensionIndexERKNS0_11hidl_stringENSt3__18functionIFvNS3_6StatusEjEEE"
      component_value: 0
    }
    vtable_components {
      kind: FunctionPointer
      mangled_component_name: "_ZN7android8hardware5media3omx4V1_09BsOmxNode15dispatchMessageERKNS3_7MessageE"
      component_value: 0
    }
    vtable_components {
      kind: OffsetToTop
      mangled_component_name: ""
      component_value: -4
    }
    vtable_components {
      kind: RTTI
      mangled_component_name: "android::hardware::media::omx::V1_0::BsOmxNode"
      component_value: 0
    }
    vtable_components {
      kind: CompleteDtorPointer
      mangled_component_name: "_ZN7android8hardware5media3omx4V1_09BsOmxNodeD1Ev"
      component_value: 0
    }
    vtable_components {
      kind: DeletingDtorPointer
      mangled_component_name: "_ZN7android8hardware5media3omx4V1_09BsOmxNodeD0Ev"
      component_value: 0
    }
    vtable_components {
      kind: VCallOffset
      mangled_component_name: ""
      component_value: 0
    }
    vtable_components {
      kind: VCallOffset
      mangled_component_name: ""
      component_value: 0
    }
    vtable_components {
      kind: VCallOffset
      mangled_component_name: ""
      component_value: 0
    }
    vtable_components {
      kind: VCallOffset
      mangled_component_name: ""
      component_value: 0
    }
    vtable_components {
      kind: VCallOffset
      mangled_component_name: ""
      component_value: -60
    }
    vtable_components {
      kind: OffsetToTop
      mangled_component_name: ""
      component_value: -60
    }
    vtable_components {
      kind: RTTI
      mangled_component_name: "android::hardware::media::omx::V1_0::BsOmxNode"
      component_value: 0
    }
    vtable_components {
      kind: CompleteDtorPointer
      mangled_component_name: "_ZN7android8hardware5media3omx4V1_09BsOmxNodeD1Ev"
      component_value: 0
    }
    vtable_components {
      kind: DeletingDtorPointer
      mangled_component_name: "_ZN7android8hardware5media3omx4V1_09BsOmxNodeD0Ev"
      component_value: 0
    }
    vtable_components {
      kind: FunctionPointer
      mangled_component_name: "_ZN7android7RefBase10onFirstRefEv"
      component_value: 0
    }
    vtable_components {
      kind: FunctionPointer
      mangled_component_name: "_ZN7android7RefBase15onLastStrongRefEPKv"
      component_value: 0
    }
    vtable_components {
      kind: FunctionPointer
      mangled_component_name: "_ZN7android7RefBase20onIncStrongAttemptedEjPKv"
      component_value: 0
    }
    vtable_components {
      kind: FunctionPointer
      mangled_component_name: "_ZN7android7RefBase13onLastWeakRefEPKv"
      component_value: 0
    }
  }
}
functions {
  basic_abi {
    type_abi {
      name: "int"
      size: 4
      alignment: 4
    }
    name: "android::hardware::media::omx::V1_0::operator|"
    access: public_access
    linker_set_key: "_ZN7android8hardware5media3omx4V1_0orENS3_6StatusES4_"
  }
  mangled_function_name: "_ZN7android8hardware5media3omx4V1_0orENS3_6StatusES4_"
  source_file: "/data/aosp/out/soong/.intermediates/hardware/interfaces/media/omx/1.0/android.hardware.media.omx@1.0_genc++_headers/gen/android/hardware/media/omx/1.0/types.h"
  parameters {
    basic_abi {
      type_abi {
        name: "const android::hardware::media::omx::V1_0::Status"
      }
      name: "lhs"
      access: public_access
      linker_set_key: "false"
    }
    default_arg: false
  }
  parameters {
    basic_abi {
      type_abi {
        name: "const android::hardware::media::omx::V1_0::Status"
      }
      name: "rhs"
      access: public_access
      linker_set_key: "false"
    }
    default_arg: false
  }
}
functions {
  basic_abi {
    type_abi {
      name: "int"
      size: 4
      alignment: 4
    }
    name: "android::hardware::media::omx::V1_0::operator|"
    access: public_access
    linker_set_key: "_ZN7android8hardware5media3omx4V1_0orEiNS3_6StatusE"
  }
  mangled_function_name: "_ZN7android8hardware5media3omx4V1_0orEiNS3_6StatusE"
  source_file: "/data/aosp/out/soong/.intermediates/hardware/interfaces/media/omx/1.0/android.hardware.media.omx@1.0_genc++_headers/gen/android/hardware/media/omx/1.0/types.h"
  parameters {
    basic_abi {
      type_abi {
        name: "const int"
        size: 4
        alignment: 4
      }
      name: "lhs"
      access: public_access
      linker_set_key: "false"
    }
    default_arg: false
  }
  parameters {
    basic_abi {
      type_abi {
        name: "const android::hardware::media::omx::V1_0::Status"
      }
      name: "rhs"
      access: public_access
      linker_set_key: "false"
    }
    default_arg: false
  }
}
functions {
  basic_abi {
    type_abi {
      name: "int"
      size: 4
      alignment: 4
    }
    name: "android::hardware::media::omx::V1_0::operator|"
    access: public_access
    linker_set_key: "_ZN7android8hardware5media3omx4V1_0orENS3_6StatusEi"
  }
  mangled_function_name: "_ZN7android8hardware5media3omx4V1_0orENS3_6StatusEi"
  source_file: "/data/aosp/out/soong/.intermediates/hardware/interfaces/media/omx/1.0/android.hardware.media.omx@1.0_genc++_headers/gen/android/hardware/media/omx/1.0/types.h"
  parameters {
    basic_abi {
      type_abi {
        name: "const android::hardware::media::omx::V1_0::Status"
      }
      name: "lhs"
      access: public_access
      linker_set_key: "false"
    }
    default_arg: false
  }
  parameters {
    basic_abi {
      type_abi {
        name: "const int"
        size: 4
        alignment: 4
      }
      name: "rhs"
      access: public_access
      linker_set_key: "false"
    }
    default_arg: false
  }
}
functions {
  basic_abi {
    type_abi {
      name: "int"
      size: 4
      alignment: 4
    }
    name: "android::hardware::media::omx::V1_0::operator&"
    access: public_access
    linker_set_key: "_ZN7android8hardware5media3omx4V1_0anENS3_6StatusES4_"
  }
  mangled_function_name: "_ZN7android8hardware5media3omx4V1_0anENS3_6StatusES4_"
  source_file: "/data/aosp/out/soong/.intermediates/hardware/interfaces/media/omx/1.0/android.hardware.media.omx@1.0_genc++_headers/gen/android/hardware/media/omx/1.0/types.h"
  parameters {
    basic_abi {
      type_abi {
        name: "const android::hardware::media::omx::V1_0::Status"
      }
      name: "lhs"
      access: public_access
      linker_set_key: "false"
    }
    default_arg: false
  }
  parameters {
    basic_abi {
      type_abi {
        name: "const android::hardware::media::omx::V1_0::Status"
      }
      name: "rhs"
      access: public_access
      linker_set_key: "false"
    }
    default_arg: false
  }
}
functions {
  basic_abi {
    type_abi {
      name: "int"
      size: 4
      alignment: 4
    }
    name: "android::hardware::media::omx::V1_0::operator&"
    access: public_access
    linker_set_key: "_ZN7android8hardware5media3omx4V1_0anEiNS3_6StatusE"
  }
  mangled_function_name: "_ZN7android8hardware5media3omx4V1_0anEiNS3_6StatusE"
  source_file: "/data/aosp/out/soong/.intermediates/hardware/interfaces/media/omx/1.0/android.hardware.media.omx@1.0_genc++_headers/gen/android/hardware/media/omx/1.0/types.h"
  parameters {
    basic_abi {
      type_abi {
        name: "const int"
        size: 4
        alignment: 4
      }
      name: "lhs"
      access: public_access
      linker_set_key: "false"
    }
    default_arg: false
  }
  parameters {
    basic_abi {
      type_abi {
        name: "const android::hardware::media::omx::V1_0::Status"
      }
      name: "rhs"
      access: public_access
      linker_set_key: "false"
    }
    default_arg: false
  }
}
functions {
  basic_abi {
    type_abi {
      name: "int"
      size: 4
      alignment: 4
    }
    name: "android::hardware::media::omx::V1_0::operator&"
    access: public_access
    linker_set_key: "_ZN7android8hardware5media3omx4V1_0anENS3_6StatusEi"
  }
  mangled_function_name: "_ZN7android8hardware5media3omx4V1_0anENS3_6StatusEi"
  source_file: "/data/aosp/out/soong/.intermediates/hardware/interfaces/media/omx/1.0/android.hardware.media.omx@1.0_genc++_headers/gen/android/hardware/media/omx/1.0/types.h"
  parameters {
    basic_abi {
      type_abi {
        name: "const android::hardware::media::omx::V1_0::Status"
      }
      name: "lhs"
      access: public_access
      linker_set_key: "false"
    }
    default_arg: false
  }
  parameters {
    basic_abi {
      type_abi {
        name: "const int"
        size: 4
        alignment: 4
      }
      name: "rhs"
      access: public_access
      linker_set_key: "false"
    }
    default_arg: false
  }
}
functions {
  basic_abi {
    type_abi {
      name: "int &"
    }
    name: "android::hardware::media::omx::V1_0::operator|="
    access: public_access
    linker_set_key: "_ZN7android8hardware5media3omx4V1_0oRERiNS3_6StatusE"
  }
  mangled_function_name: "_ZN7android8hardware5media3omx4V1_0oRERiNS3_6StatusE"
  source_file: "/data/aosp/out/soong/.intermediates/hardware/interfaces/media/omx/1.0/android.hardware.media.omx@1.0_genc++_headers/gen/android/hardware/media/omx/1.0/types.h"
  parameters {
    basic_abi {
      type_abi {
        name: "int &"
      }
      name: "v"
      access: public_access
      linker_set_key: "false"
    }
    default_arg: false
  }
  parameters {
    basic_abi {
      type_abi {
        name: "const android::hardware::media::omx::V1_0::Status"
      }
      name: "e"
      access: public_access
      linker_set_key: "false"
    }
    default_arg: false
  }
}
functions {
  basic_abi {
    type_abi {
      name: "int &"
    }
    name: "android::hardware::media::omx::V1_0::operator&="
    access: public_access
    linker_set_key: "_ZN7android8hardware5media3omx4V1_0aNERiNS3_6StatusE"
  }
  mangled_function_name: "_ZN7android8hardware5media3omx4V1_0aNERiNS3_6StatusE"
  source_file: "/data/aosp/out/soong/.intermediates/hardware/interfaces/media/omx/1.0/android.hardware.media.omx@1.0_genc++_headers/gen/android/hardware/media/omx/1.0/types.h"
  parameters {
    basic_abi {
      type_abi {
        name: "int &"
      }
      name: "v"
      access: public_access
      linker_set_key: "false"
    }
    default_arg: false
  }
  parameters {
    basic_abi {
      type_abi {
        name: "const android::hardware::media::omx::V1_0::Status"
      }
      name: "e"
      access: public_access
      linker_set_key: "false"
    }
    default_arg: false
  }
}
functions {
  basic_abi {
    type_abi {
      name: "std::basic_string<char, std::char_traits<char>, std::allocator<char> >"
    }
    name: "android::hardware::media::omx::V1_0::toString"
    access: public_access
    linker_set_key: "_ZN7android8hardware5media3omx4V1_08toStringINS3_6StatusEEENSt3__112basic_stringIcNS6_11char_traitsIcEENS6_9allocatorIcEEEEi"
  }
  mangled_function_name: "_ZN7android8hardware5media3omx4V1_08toStringINS3_6StatusEEENSt3__112basic_stringIcNS6_11char_traitsIcEENS6_9allocatorIcEEEEi"
  source_file: "/data/aosp/out/soong/.intermediates/hardware/interfaces/media/omx/1.0/android.hardware.media.omx@1.0_genc++_headers/gen/android/hardware/media/omx/1.0/types.h"
  parameters {
    basic_abi {
      type_abi {
        name: "int"
        size: 4
        alignment: 4
      }
      name: "o"
      access: public_access
      linker_set_key: "false"
    }
    default_arg: false
  }
  template_info {
    elements {
      basic_abi {
        type_abi {
          name: "android::hardware::media::omx::V1_0::Status"
        }
        linker_set_key: "android::hardware::media::omx::V1_0::Status"
      }
    }
  }
}
functions {
  basic_abi {
    type_abi {
      name: "std::basic_string<char, std::char_traits<char>, std::allocator<char> >"
    }
    name: "android::hardware::media::omx::V1_0::toString"
    access: public_access
    linker_set_key: "_ZN7android8hardware5media3omx4V1_08toStringENS3_6StatusE"
  }
  mangled_function_name: "_ZN7android8hardware5media3omx4V1_08toStringENS3_6StatusE"
  source_file: "/data/aosp/out/soong/.intermediates/hardware/interfaces/media/omx/1.0/android.hardware.media.omx@1.0_genc++_headers/gen/android/hardware/media/omx/1.0/types.h"
  parameters {
    basic_abi {
      type_abi {
        name: "android::hardware::media::omx::V1_0::Status"
      }
      name: "o"
      access: public_access
      linker_set_key: "false"
    }
    default_arg: false
  }
}
functions {
  basic_abi {
    type_abi {
      name: "unsigned int"
      size: 4
      alignment: 4
    }
    name: "android::hardware::media::omx::V1_0::operator|"
    access: public_access
    linker_set_key: "_ZN7android8hardware5media3omx4V1_0orENS3_7Message4TypeES5_"
  }
  mangled_function_name: "_ZN7android8hardware5media3omx4V1_0orENS3_7Message4TypeES5_"
  source_file: "/data/aosp/out/soong/.intermediates/hardware/interfaces/media/omx/1.0/android.hardware.media.omx@1.0_genc++_headers/gen/android/hardware/media/omx/1.0/types.h"
  parameters {
    basic_abi {
      type_abi {
        name: "const android::hardware::media::omx::V1_0::Message::Type"
      }
      name: "lhs"
      access: public_access
      linker_set_key: "false"
    }
    default_arg: false
  }
  parameters {
    basic_abi {
      type_abi {
        name: "const android::hardware::media::omx::V1_0::Message::Type"
      }
      name: "rhs"
      access: public_access
      linker_set_key: "false"
    }
    default_arg: false
  }
}
functions {
  basic_abi {
    type_abi {
      name: "unsigned int"
      size: 4
      alignment: 4
    }
    name: "android::hardware::media::omx::V1_0::operator|"
    access: public_access
    linker_set_key: "_ZN7android8hardware5media3omx4V1_0orEjNS3_7Message4TypeE"
  }
  mangled_function_name: "_ZN7android8hardware5media3omx4V1_0orEjNS3_7Message4TypeE"
  source_file: "/data/aosp/out/soong/.intermediates/hardware/interfaces/media/omx/1.0/android.hardware.media.omx@1.0_genc++_headers/gen/android/hardware/media/omx/1.0/types.h"
  parameters {
    basic_abi {
      type_abi {
        name: "const unsigned int"
        size: 4
        alignment: 4
      }
      name: "lhs"
      access: public_access
      linker_set_key: "false"
    }
    default_arg: false
  }
  parameters {
    basic_abi {
      type_abi {
        name: "const android::hardware::media::omx::V1_0::Message::Type"
      }
      name: "rhs"
      access: public_access
      linker_set_key: "false"
    }
    default_arg: false
  }
}
functions {
  basic_abi {
    type_abi {
      name: "unsigned int"
      size: 4
      alignment: 4
    }
    name: "android::hardware::media::omx::V1_0::operator|"
    access: public_access
    linker_set_key: "_ZN7android8hardware5media3omx4V1_0orENS3_7Message4TypeEj"
  }
  mangled_function_name: "_ZN7android8hardware5media3omx4V1_0orENS3_7Message4TypeEj"
  source_file: "/data/aosp/out/soong/.intermediates/hardware/interfaces/media/omx/1.0/android.hardware.media.omx@1.0_genc++_headers/gen/android/hardware/media/omx/1.0/types.h"
  parameters {
    basic_abi {
      type_abi {
        name: "const android::hardware::media::omx::V1_0::Message::Type"
      }
      name: "lhs"
      access: public_access
      linker_set_key: "false"
    }
    default_arg: false
  }
  parameters {
    basic_abi {
      type_abi {
        name: "const unsigned int"
        size: 4
        alignment: 4
      }
      name: "rhs"
      access: public_access
      linker_set_key: "false"
    }
    default_arg: false
  }
}
functions {
  basic_abi {
    type_abi {
      name: "unsigned int"
      size: 4
      alignment: 4
    }
    name: "android::hardware::media::omx::V1_0::operator&"
    access: public_access
    linker_set_key: "_ZN7android8hardware5media3omx4V1_0anENS3_7Message4TypeES5_"
  }
  mangled_function_name: "_ZN7android8hardware5media3omx4V1_0anENS3_7Message4TypeES5_"
  source_file: "/data/aosp/out/soong/.intermediates/hardware/interfaces/media/omx/1.0/android.hardware.media.omx@1.0_genc++_headers/gen/android/hardware/media/omx/1.0/types.h"
  parameters {
    basic_abi {
      type_abi {
        name: "const android::hardware::media::omx::V1_0::Message::Type"
      }
      name: "lhs"
      access: public_access
      linker_set_key: "false"
    }
    default_arg: false
  }
  parameters {
    basic_abi {
      type_abi {
        name: "const android::hardware::media::omx::V1_0::Message::Type"
      }
      name: "rhs"
      access: public_access
      linker_set_key: "false"
    }
    default_arg: false
  }
}
functions {
  basic_abi {
    type_abi {
      name: "unsigned int"
      size: 4
      alignment: 4
    }
    name: "android::hardware::media::omx::V1_0::operator&"
    access: public_access
    linker_set_key: "_ZN7android8hardware5media3omx4V1_0anEjNS3_7Message4TypeE"
  }
  mangled_function_name: "_ZN7android8hardware5media3omx4V1_0anEjNS3_7Message4TypeE"
  source_file: "/data/aosp/out/soong/.intermediates/hardware/interfaces/media/omx/1.0/android.hardware.media.omx@1.0_genc++_headers/gen/android/hardware/media/omx/1.0/types.h"
  parameters {
    basic_abi {
      type_abi {
        name: "const unsigned int"
        size: 4
        alignment: 4
      }
      name: "lhs"
      access: public_access
      linker_set_key: "false"
    }
    default_arg: false
  }
  parameters {
    basic_abi {
      type_abi {
        name: "const android::hardware::media::omx::V1_0::Message::Type"
      }
      name: "rhs"
      access: public_access
      linker_set_key: "false"
    }
    default_arg: false
  }
}
functions {
  basic_abi {
    type_abi {
      name: "unsigned int"
      size: 4
      alignment: 4
    }
    name: "android::hardware::media::omx::V1_0::operator&"
    access: public_access
    linker_set_key: "_ZN7android8hardware5media3omx4V1_0anENS3_7Message4TypeEj"
  }
  mangled_function_name: "_ZN7android8hardware5media3omx4V1_0anENS3_7Message4TypeEj"
  source_file: "/data/aosp/out/soong/.intermediates/hardware/interfaces/media/omx/1.0/android.hardware.media.omx@1.0_genc++_headers/gen/android/hardware/media/omx/1.0/types.h"
  parameters {
    basic_abi {
      type_abi {
        name: "const android::hardware::media::omx::V1_0::Message::Type"
      }
      name: "lhs"
      access: public_access
      linker_set_key: "false"
    }
    default_arg: false
  }
  parameters {
    basic_abi {
      type_abi {
        name: "const unsigned int"
        size: 4
        alignment: 4
      }
      name: "rhs"
      access: public_access
      linker_set_key: "false"
    }
    default_arg: false
  }
}
functions {
  basic_abi {
    type_abi {
      name: "unsigned int &"
    }
    name: "android::hardware::media::omx::V1_0::operator|="
    access: public_access
    linker_set_key: "_ZN7android8hardware5media3omx4V1_0oRERjNS3_7Message4TypeE"
  }
  mangled_function_name: "_ZN7android8hardware5media3omx4V1_0oRERjNS3_7Message4TypeE"
  source_file: "/data/aosp/out/soong/.intermediates/hardware/interfaces/media/omx/1.0/android.hardware.media.omx@1.0_genc++_headers/gen/android/hardware/media/omx/1.0/types.h"
  parameters {
    basic_abi {
      type_abi {
        name: "unsigned int &"
      }
      name: "v"
      access: public_access
      linker_set_key: "false"
    }
    default_arg: false
  }
  parameters {
    basic_abi {
      type_abi {
        name: "const android::hardware::media::omx::V1_0::Message::Type"
      }
      name: "e"
      access: public_access
      linker_set_key: "false"
    }
    default_arg: false
  }
}
functions {
  basic_abi {
    type_abi {
      name: "unsigned int &"
    }
    name: "android::hardware::media::omx::V1_0::operator&="
    access: public_access
    linker_set_key: "_ZN7android8hardware5media3omx4V1_0aNERjNS3_7Message4TypeE"
  }
  mangled_function_name: "_ZN7android8hardware5media3omx4V1_0aNERjNS3_7Message4TypeE"
  source_file: "/data/aosp/out/soong/.intermediates/hardware/interfaces/media/omx/1.0/android.hardware.media.omx@1.0_genc++_headers/gen/android/hardware/media/omx/1.0/types.h"
  parameters {
    basic_abi {
      type_abi {
        name: "unsigned int &"
      }
      name: "v"
      access: public_access
      linker_set_key: "false"
    }
    default_arg: false
  }
  parameters {
    basic_abi {
      type_abi {
        name: "const android::hardware::media::omx::V1_0::Message::Type"
      }
      name: "e"
      access: public_access
      linker_set_key: "false"
    }
    default_arg: false
  }
}
functions {
  basic_abi {
    type_abi {
      name: "std::basic_string<char, std::char_traits<char>, std::allocator<char> >"
    }
    name: "android::hardware::media::omx::V1_0::toString"
    access: public_access
    linker_set_key: "_ZN7android8hardware5media3omx4V1_08toStringINS3_7Message4TypeEEENSt3__112basic_stringIcNS7_11char_traitsIcEENS7_9allocatorIcEEEEj"
  }
  mangled_function_name: "_ZN7android8hardware5media3omx4V1_08toStringINS3_7Message4TypeEEENSt3__112basic_stringIcNS7_11char_traitsIcEENS7_9allocatorIcEEEEj"
  source_file: "/data/aosp/out/soong/.intermediates/hardware/interfaces/media/omx/1.0/android.hardware.media.omx@1.0_genc++_headers/gen/android/hardware/media/omx/1.0/types.h"
  parameters {
    basic_abi {
      type_abi {
        name: "unsigned int"
        size: 4
        alignment: 4
      }
      name: "o"
      access: public_access
      linker_set_key: "false"
    }
    default_arg: false
  }
  template_info {
    elements {
      basic_abi {
        type_abi {
          name: "android::hardware::media::omx::V1_0::Message::Type"
        }
        linker_set_key: "android::hardware::media::omx::V1_0::Message::Type"
      }
    }
  }
}
functions {
  basic_abi {
    type_abi {
      name: "std::basic_string<char, std::char_traits<char>, std::allocator<char> >"
    }
    name: "android::hardware::media::omx::V1_0::toString"
    access: public_access
    linker_set_key: "_ZN7android8hardware5media3omx4V1_08toStringENS3_7Message4TypeE"
  }
  mangled_function_name: "_ZN7android8hardware5media3omx4V1_08toStringENS3_7Message4TypeE"
  source_file: "/data/aosp/out/soong/.intermediates/hardware/interfaces/media/omx/1.0/android.hardware.media.omx@1.0_genc++_headers/gen/android/hardware/media/omx/1.0/types.h"
  parameters {
    basic_abi {
      type_abi {
        name: "android::hardware::media::omx::V1_0::Message::Type"
      }
      name: "o"
      access: public_access
      linker_set_key: "false"
    }
    default_arg: false
  }
}
functions {
  basic_abi {
    type_abi {
      name: "std::basic_string<char, std::char_traits<char>, std::allocator<char> >"
    }
    name: "android::hardware::media::omx::V1_0::toString"
    access: public_access
    linker_set_key: "_ZN7android8hardware5media3omx4V1_08toStringERKNS3_7Message9EventDataE"
  }
  mangled_function_name: "_ZN7android8hardware5media3omx4V1_08toStringERKNS3_7Message9EventDataE"
  source_file: "/data/aosp/out/soong/.intermediates/hardware/interfaces/media/omx/1.0/android.hardware.media.omx@1.0_genc++_headers/gen/android/hardware/media/omx/1.0/types.h"
  parameters {
    basic_abi {
      type_abi {
        name: "const android::hardware::media::omx::V1_0::Message::EventData &"
      }
      name: ""
      access: public_access
      linker_set_key: "false"
    }
    default_arg: false
  }
}
functions {
  basic_abi {
    type_abi {
      name: "bool"
      size: 1
      alignment: 1
    }
    name: "android::hardware::media::omx::V1_0::operator=="
    access: public_access
    linker_set_key: "_ZN7android8hardware5media3omx4V1_0eqERKNS3_7Message9EventDataES7_"
  }
  mangled_function_name: "_ZN7android8hardware5media3omx4V1_0eqERKNS3_7Message9EventDataES7_"
  source_file: "/data/aosp/out/soong/.intermediates/hardware/interfaces/media/omx/1.0/android.hardware.media.omx@1.0_genc++_headers/gen/android/hardware/media/omx/1.0/types.h"
  parameters {
    basic_abi {
      type_abi {
        name: "const android::hardware::media::omx::V1_0::Message::EventData &"
      }
      name: ""
      access: public_access
      linker_set_key: "false"
    }
    default_arg: false
  }
  parameters {
    basic_abi {
      type_abi {
        name: "const android::hardware::media::omx::V1_0::Message::EventData &"
      }
      name: ""
      access: public_access
      linker_set_key: "false"
    }
    default_arg: false
  }
}
functions {
  basic_abi {
    type_abi {
      name: "bool"
      size: 1
      alignment: 1
    }
    name: "android::hardware::media::omx::V1_0::operator!="
    access: public_access
    linker_set_key: "_ZN7android8hardware5media3omx4V1_0neERKNS3_7Message9EventDataES7_"
  }
  mangled_function_name: "_ZN7android8hardware5media3omx4V1_0neERKNS3_7Message9EventDataES7_"
  source_file: "/data/aosp/out/soong/.intermediates/hardware/interfaces/media/omx/1.0/android.hardware.media.omx@1.0_genc++_headers/gen/android/hardware/media/omx/1.0/types.h"
  parameters {
    basic_abi {
      type_abi {
        name: "const android::hardware::media::omx::V1_0::Message::EventData &"
      }
      name: ""
      access: public_access
      linker_set_key: "false"
    }
    default_arg: false
  }
  parameters {
    basic_abi {
      type_abi {
        name: "const android::hardware::media::omx::V1_0::Message::EventData &"
      }
      name: ""
      access: public_access
      linker_set_key: "false"
    }
    default_arg: false
  }
}
functions {
  basic_abi {
    type_abi {
      name: "std::basic_string<char, std::char_traits<char>, std::allocator<char> >"
    }
    name: "android::hardware::media::omx::V1_0::toString"
    access: public_access
    linker_set_key: "_ZN7android8hardware5media3omx4V1_08toStringERKNS3_7Message10BufferDataE"
  }
  mangled_function_name: "_ZN7android8hardware5media3omx4V1_08toStringERKNS3_7Message10BufferDataE"
  source_file: "/data/aosp/out/soong/.intermediates/hardware/interfaces/media/omx/1.0/android.hardware.media.omx@1.0_genc++_headers/gen/android/hardware/media/omx/1.0/types.h"
  parameters {
    basic_abi {
      type_abi {
        name: "const android::hardware::media::omx::V1_0::Message::BufferData &"
      }
      name: ""
      access: public_access
      linker_set_key: "false"
    }
    default_arg: false
  }
}
functions {
  basic_abi {
    type_abi {
      name: "bool"
      size: 1
      alignment: 1
    }
    name: "android::hardware::media::omx::V1_0::operator=="
    access: public_access
    linker_set_key: "_ZN7android8hardware5media3omx4V1_0eqERKNS3_7Message10BufferDataES7_"
  }
  mangled_function_name: "_ZN7android8hardware5media3omx4V1_0eqERKNS3_7Message10BufferDataES7_"
  source_file: "/data/aosp/out/soong/.intermediates/hardware/interfaces/media/omx/1.0/android.hardware.media.omx@1.0_genc++_headers/gen/android/hardware/media/omx/1.0/types.h"
  parameters {
    basic_abi {
      type_abi {
        name: "const android::hardware::media::omx::V1_0::Message::BufferData &"
      }
      name: ""
      access: public_access
      linker_set_key: "false"
    }
    default_arg: false
  }
  parameters {
    basic_abi {
      type_abi {
        name: "const android::hardware::media::omx::V1_0::Message::BufferData &"
      }
      name: ""
      access: public_access
      linker_set_key: "false"
    }
    default_arg: false
  }
}
functions {
  basic_abi {
    type_abi {
      name: "bool"
      size: 1
      alignment: 1
    }
    name: "android::hardware::media::omx::V1_0::operator!="
    access: public_access
    linker_set_key: "_ZN7android8hardware5media3omx4V1_0neERKNS3_7Message10BufferDataES7_"
  }
  mangled_function_name: "_ZN7android8hardware5media3omx4V1_0neERKNS3_7Message10BufferDataES7_"
  source_file: "/data/aosp/out/soong/.intermediates/hardware/interfaces/media/omx/1.0/android.hardware.media.omx@1.0_genc++_headers/gen/android/hardware/media/omx/1.0/types.h"
  parameters {
    basic_abi {
      type_abi {
        name: "const android::hardware::media::omx::V1_0::Message::BufferData &"
      }
      name: ""
      access: public_access
      linker_set_key: "false"
    }
    default_arg: false
  }
  parameters {
    basic_abi {
      type_abi {
        name: "const android::hardware::media::omx::V1_0::Message::BufferData &"
      }
      name: ""
      access: public_access
      linker_set_key: "false"
    }
    default_arg: false
  }
}
functions {
  basic_abi {
    type_abi {
      name: "std::basic_string<char, std::char_traits<char>, std::allocator<char> >"
    }
    name: "android::hardware::media::omx::V1_0::toString"
    access: public_access
    linker_set_key: "_ZN7android8hardware5media3omx4V1_08toStringERKNS3_7Message18ExtendedBufferDataE"
  }
  mangled_function_name: "_ZN7android8hardware5media3omx4V1_08toStringERKNS3_7Message18ExtendedBufferDataE"
  source_file: "/data/aosp/out/soong/.intermediates/hardware/interfaces/media/omx/1.0/android.hardware.media.omx@1.0_genc++_headers/gen/android/hardware/media/omx/1.0/types.h"
  parameters {
    basic_abi {
      type_abi {
        name: "const android::hardware::media::omx::V1_0::Message::ExtendedBufferData &"
      }
      name: ""
      access: public_access
      linker_set_key: "false"
    }
    default_arg: false
  }
}
functions {
  basic_abi {
    type_abi {
      name: "bool"
      size: 1
      alignment: 1
    }
    name: "android::hardware::media::omx::V1_0::operator=="
    access: public_access
    linker_set_key: "_ZN7android8hardware5media3omx4V1_0eqERKNS3_7Message18ExtendedBufferDataES7_"
  }
  mangled_function_name: "_ZN7android8hardware5media3omx4V1_0eqERKNS3_7Message18ExtendedBufferDataES7_"
  source_file: "/data/aosp/out/soong/.intermediates/hardware/interfaces/media/omx/1.0/android.hardware.media.omx@1.0_genc++_headers/gen/android/hardware/media/omx/1.0/types.h"
  parameters {
    basic_abi {
      type_abi {
        name: "const android::hardware::media::omx::V1_0::Message::ExtendedBufferData &"
      }
      name: ""
      access: public_access
      linker_set_key: "false"
    }
    default_arg: false
  }
  parameters {
    basic_abi {
      type_abi {
        name: "const android::hardware::media::omx::V1_0::Message::ExtendedBufferData &"
      }
      name: ""
      access: public_access
      linker_set_key: "false"
    }
    default_arg: false
  }
}
functions {
  basic_abi {
    type_abi {
      name: "bool"
      size: 1
      alignment: 1
    }
    name: "android::hardware::media::omx::V1_0::operator!="
    access: public_access
    linker_set_key: "_ZN7android8hardware5media3omx4V1_0neERKNS3_7Message18ExtendedBufferDataES7_"
  }
  mangled_function_name: "_ZN7android8hardware5media3omx4V1_0neERKNS3_7Message18ExtendedBufferDataES7_"
  source_file: "/data/aosp/out/soong/.intermediates/hardware/interfaces/media/omx/1.0/android.hardware.media.omx@1.0_genc++_headers/gen/android/hardware/media/omx/1.0/types.h"
  parameters {
    basic_abi {
      type_abi {
        name: "const android::hardware::media::omx::V1_0::Message::ExtendedBufferData &"
      }
      name: ""
      access: public_access
      linker_set_key: "false"
    }
    default_arg: false
  }
  parameters {
    basic_abi {
      type_abi {
        name: "const android::hardware::media::omx::V1_0::Message::ExtendedBufferData &"
      }
      name: ""
      access: public_access
      linker_set_key: "false"
    }
    default_arg: false
  }
}
functions {
  basic_abi {
    type_abi {
      name: "std::basic_string<char, std::char_traits<char>, std::allocator<char> >"
    }
    name: "android::hardware::media::omx::V1_0::toString"
    access: public_access
    linker_set_key: "_ZN7android8hardware5media3omx4V1_08toStringERKNS3_7Message10RenderDataE"
  }
  mangled_function_name: "_ZN7android8hardware5media3omx4V1_08toStringERKNS3_7Message10RenderDataE"
  source_file: "/data/aosp/out/soong/.intermediates/hardware/interfaces/media/omx/1.0/android.hardware.media.omx@1.0_genc++_headers/gen/android/hardware/media/omx/1.0/types.h"
  parameters {
    basic_abi {
      type_abi {
        name: "const android::hardware::media::omx::V1_0::Message::RenderData &"
      }
      name: ""
      access: public_access
      linker_set_key: "false"
    }
    default_arg: false
  }
}
functions {
  basic_abi {
    type_abi {
      name: "bool"
      size: 1
      alignment: 1
    }
    name: "android::hardware::media::omx::V1_0::operator=="
    access: public_access
    linker_set_key: "_ZN7android8hardware5media3omx4V1_0eqERKNS3_7Message10RenderDataES7_"
  }
  mangled_function_name: "_ZN7android8hardware5media3omx4V1_0eqERKNS3_7Message10RenderDataES7_"
  source_file: "/data/aosp/out/soong/.intermediates/hardware/interfaces/media/omx/1.0/android.hardware.media.omx@1.0_genc++_headers/gen/android/hardware/media/omx/1.0/types.h"
  parameters {
    basic_abi {
      type_abi {
        name: "const android::hardware::media::omx::V1_0::Message::RenderData &"
      }
      name: ""
      access: public_access
      linker_set_key: "false"
    }
    default_arg: false
  }
  parameters {
    basic_abi {
      type_abi {
        name: "const android::hardware::media::omx::V1_0::Message::RenderData &"
      }
      name: ""
      access: public_access
      linker_set_key: "false"
    }
    default_arg: false
  }
}
functions {
  basic_abi {
    type_abi {
      name: "bool"
      size: 1
      alignment: 1
    }
    name: "android::hardware::media::omx::V1_0::operator!="
    access: public_access
    linker_set_key: "_ZN7android8hardware5media3omx4V1_0neERKNS3_7Message10RenderDataES7_"
  }
  mangled_function_name: "_ZN7android8hardware5media3omx4V1_0neERKNS3_7Message10RenderDataES7_"
  source_file: "/data/aosp/out/soong/.intermediates/hardware/interfaces/media/omx/1.0/android.hardware.media.omx@1.0_genc++_headers/gen/android/hardware/media/omx/1.0/types.h"
  parameters {
    basic_abi {
      type_abi {
        name: "const android::hardware::media::omx::V1_0::Message::RenderData &"
      }
      name: ""
      access: public_access
      linker_set_key: "false"
    }
    default_arg: false
  }
  parameters {
    basic_abi {
      type_abi {
        name: "const android::hardware::media::omx::V1_0::Message::RenderData &"
      }
      name: ""
      access: public_access
      linker_set_key: "false"
    }
    default_arg: false
  }
}
functions {
  basic_abi {
    type_abi {
      name: "std::basic_string<char, std::char_traits<char>, std::allocator<char> >"
    }
    name: "android::hardware::media::omx::V1_0::toString"
    access: public_access
    linker_set_key: "_ZN7android8hardware5media3omx4V1_08toStringERKNS3_7Message4DataE"
  }
  mangled_function_name: "_ZN7android8hardware5media3omx4V1_08toStringERKNS3_7Message4DataE"
  source_file: "/data/aosp/out/soong/.intermediates/hardware/interfaces/media/omx/1.0/android.hardware.media.omx@1.0_genc++_headers/gen/android/hardware/media/omx/1.0/types.h"
  parameters {
    basic_abi {
      type_abi {
        name: "const android::hardware::media::omx::V1_0::Message::Data &"
      }
      name: ""
      access: public_access
      linker_set_key: "false"
    }
    default_arg: false
  }
}
functions {
  basic_abi {
    type_abi {
      name: "std::basic_string<char, std::char_traits<char>, std::allocator<char> >"
    }
    name: "android::hardware::media::omx::V1_0::toString"
    access: public_access
    linker_set_key: "_ZN7android8hardware5media3omx4V1_08toStringERKNS3_7MessageE"
  }
  mangled_function_name: "_ZN7android8hardware5media3omx4V1_08toStringERKNS3_7MessageE"
  source_file: "/data/aosp/out/soong/.intermediates/hardware/interfaces/media/omx/1.0/android.hardware.media.omx@1.0_genc++_headers/gen/android/hardware/media/omx/1.0/types.h"
  parameters {
    basic_abi {
      type_abi {
        name: "const android::hardware::media::omx::V1_0::Message &"
      }
      name: ""
      access: public_access
      linker_set_key: "false"
    }
    default_arg: false
  }
}
functions {
  basic_abi {
    type_abi {
      name: "int"
      size: 4
      alignment: 4
    }
    name: "android::hardware::media::omx::V1_0::operator|"
    access: public_access
    linker_set_key: "_ZN7android8hardware5media3omx4V1_0orENS3_11CodecBuffer4TypeES5_"
  }
  mangled_function_name: "_ZN7android8hardware5media3omx4V1_0orENS3_11CodecBuffer4TypeES5_"
  source_file: "/data/aosp/out/soong/.intermediates/hardware/interfaces/media/omx/1.0/android.hardware.media.omx@1.0_genc++_headers/gen/android/hardware/media/omx/1.0/types.h"
  parameters {
    basic_abi {
      type_abi {
        name: "const android::hardware::media::omx::V1_0::CodecBuffer::Type"
      }
      name: "lhs"
      access: public_access
      linker_set_key: "false"
    }
    default_arg: false
  }
  parameters {
    basic_abi {
      type_abi {
        name: "const android::hardware::media::omx::V1_0::CodecBuffer::Type"
      }
      name: "rhs"
      access: public_access
      linker_set_key: "false"
    }
    default_arg: false
  }
}
functions {
  basic_abi {
    type_abi {
      name: "int"
      size: 4
      alignment: 4
    }
    name: "android::hardware::media::omx::V1_0::operator|"
    access: public_access
    linker_set_key: "_ZN7android8hardware5media3omx4V1_0orEiNS3_11CodecBuffer4TypeE"
  }
  mangled_function_name: "_ZN7android8hardware5media3omx4V1_0orEiNS3_11CodecBuffer4TypeE"
  source_file: "/data/aosp/out/soong/.intermediates/hardware/interfaces/media/omx/1.0/android.hardware.media.omx@1.0_genc++_headers/gen/android/hardware/media/omx/1.0/types.h"
  parameters {
    basic_abi {
      type_abi {
        name: "const int"
        size: 4
        alignment: 4
      }
      name: "lhs"
      access: public_access
      linker_set_key: "false"
    }
    default_arg: false
  }
  parameters {
    basic_abi {
      type_abi {
        name: "const android::hardware::media::omx::V1_0::CodecBuffer::Type"
      }
      name: "rhs"
      access: public_access
      linker_set_key: "false"
    }
    default_arg: false
  }
}
functions {
  basic_abi {
    type_abi {
      name: "int"
      size: 4
      alignment: 4
    }
    name: "android::hardware::media::omx::V1_0::operator|"
    access: public_access
    linker_set_key: "_ZN7android8hardware5media3omx4V1_0orENS3_11CodecBuffer4TypeEi"
  }
  mangled_function_name: "_ZN7android8hardware5media3omx4V1_0orENS3_11CodecBuffer4TypeEi"
  source_file: "/data/aosp/out/soong/.intermediates/hardware/interfaces/media/omx/1.0/android.hardware.media.omx@1.0_genc++_headers/gen/android/hardware/media/omx/1.0/types.h"
  parameters {
    basic_abi {
      type_abi {
        name: "const android::hardware::media::omx::V1_0::CodecBuffer::Type"
      }
      name: "lhs"
      access: public_access
      linker_set_key: "false"
    }
    default_arg: false
  }
  parameters {
    basic_abi {
      type_abi {
        name: "const int"
        size: 4
        alignment: 4
      }
      name: "rhs"
      access: public_access
      linker_set_key: "false"
    }
    default_arg: false
  }
}
functions {
  basic_abi {
    type_abi {
      name: "int"
      size: 4
      alignment: 4
    }
    name: "android::hardware::media::omx::V1_0::operator&"
    access: public_access
    linker_set_key: "_ZN7android8hardware5media3omx4V1_0anENS3_11CodecBuffer4TypeES5_"
  }
  mangled_function_name: "_ZN7android8hardware5media3omx4V1_0anENS3_11CodecBuffer4TypeES5_"
  source_file: "/data/aosp/out/soong/.intermediates/hardware/interfaces/media/omx/1.0/android.hardware.media.omx@1.0_genc++_headers/gen/android/hardware/media/omx/1.0/types.h"
  parameters {
    basic_abi {
      type_abi {
        name: "const android::hardware::media::omx::V1_0::CodecBuffer::Type"
      }
      name: "lhs"
      access: public_access
      linker_set_key: "false"
    }
    default_arg: false
  }
  parameters {
    basic_abi {
      type_abi {
        name: "const android::hardware::media::omx::V1_0::CodecBuffer::Type"
      }
      name: "rhs"
      access: public_access
      linker_set_key: "false"
    }
    default_arg: false
  }
}
functions {
  basic_abi {
    type_abi {
      name: "int"
      size: 4
      alignment: 4
    }
    name: "android::hardware::media::omx::V1_0::operator&"
    access: public_access
    linker_set_key: "_ZN7android8hardware5media3omx4V1_0anEiNS3_11CodecBuffer4TypeE"
  }
  mangled_function_name: "_ZN7android8hardware5media3omx4V1_0anEiNS3_11CodecBuffer4TypeE"
  source_file: "/data/aosp/out/soong/.intermediates/hardware/interfaces/media/omx/1.0/android.hardware.media.omx@1.0_genc++_headers/gen/android/hardware/media/omx/1.0/types.h"
  parameters {
    basic_abi {
      type_abi {
        name: "const int"
        size: 4
        alignment: 4
      }
      name: "lhs"
      access: public_access
      linker_set_key: "false"
    }
    default_arg: false
  }
  parameters {
    basic_abi {
      type_abi {
        name: "const android::hardware::media::omx::V1_0::CodecBuffer::Type"
      }
      name: "rhs"
      access: public_access
      linker_set_key: "false"
    }
    default_arg: false
  }
}
functions {
  basic_abi {
    type_abi {
      name: "int"
      size: 4
      alignment: 4
    }
    name: "android::hardware::media::omx::V1_0::operator&"
    access: public_access
    linker_set_key: "_ZN7android8hardware5media3omx4V1_0anENS3_11CodecBuffer4TypeEi"
  }
  mangled_function_name: "_ZN7android8hardware5media3omx4V1_0anENS3_11CodecBuffer4TypeEi"
  source_file: "/data/aosp/out/soong/.intermediates/hardware/interfaces/media/omx/1.0/android.hardware.media.omx@1.0_genc++_headers/gen/android/hardware/media/omx/1.0/types.h"
  parameters {
    basic_abi {
      type_abi {
        name: "const android::hardware::media::omx::V1_0::CodecBuffer::Type"
      }
      name: "lhs"
      access: public_access
      linker_set_key: "false"
    }
    default_arg: false
  }
  parameters {
    basic_abi {
      type_abi {
        name: "const int"
        size: 4
        alignment: 4
      }
      name: "rhs"
      access: public_access
      linker_set_key: "false"
    }
    default_arg: false
  }
}
functions {
  basic_abi {
    type_abi {
      name: "int &"
    }
    name: "android::hardware::media::omx::V1_0::operator|="
    access: public_access
    linker_set_key: "_ZN7android8hardware5media3omx4V1_0oRERiNS3_11CodecBuffer4TypeE"
  }
  mangled_function_name: "_ZN7android8hardware5media3omx4V1_0oRERiNS3_11CodecBuffer4TypeE"
  source_file: "/data/aosp/out/soong/.intermediates/hardware/interfaces/media/omx/1.0/android.hardware.media.omx@1.0_genc++_headers/gen/android/hardware/media/omx/1.0/types.h"
  parameters {
    basic_abi {
      type_abi {
        name: "int &"
      }
      name: "v"
      access: public_access
      linker_set_key: "false"
    }
    default_arg: false
  }
  parameters {
    basic_abi {
      type_abi {
        name: "const android::hardware::media::omx::V1_0::CodecBuffer::Type"
      }
      name: "e"
      access: public_access
      linker_set_key: "false"
    }
    default_arg: false
  }
}
functions {
  basic_abi {
    type_abi {
      name: "int &"
    }
    name: "android::hardware::media::omx::V1_0::operator&="
    access: public_access
    linker_set_key: "_ZN7android8hardware5media3omx4V1_0aNERiNS3_11CodecBuffer4TypeE"
  }
  mangled_function_name: "_ZN7android8hardware5media3omx4V1_0aNERiNS3_11CodecBuffer4TypeE"
  source_file: "/data/aosp/out/soong/.intermediates/hardware/interfaces/media/omx/1.0/android.hardware.media.omx@1.0_genc++_headers/gen/android/hardware/media/omx/1.0/types.h"
  parameters {
    basic_abi {
      type_abi {
        name: "int &"
      }
      name: "v"
      access: public_access
      linker_set_key: "false"
    }
    default_arg: false
  }
  parameters {
    basic_abi {
      type_abi {
        name: "const android::hardware::media::omx::V1_0::CodecBuffer::Type"
      }
      name: "e"
      access: public_access
      linker_set_key: "false"
    }
    default_arg: false
  }
}
functions {
  basic_abi {
    type_abi {
      name: "std::basic_string<char, std::char_traits<char>, std::allocator<char> >"
    }
    name: "android::hardware::media::omx::V1_0::toString"
    access: public_access
    linker_set_key: "_ZN7android8hardware5media3omx4V1_08toStringINS3_11CodecBuffer4TypeEEENSt3__112basic_stringIcNS7_11char_traitsIcEENS7_9allocatorIcEEEEi"
  }
  mangled_function_name: "_ZN7android8hardware5media3omx4V1_08toStringINS3_11CodecBuffer4TypeEEENSt3__112basic_stringIcNS7_11char_traitsIcEENS7_9allocatorIcEEEEi"
  source_file: "/data/aosp/out/soong/.intermediates/hardware/interfaces/media/omx/1.0/android.hardware.media.omx@1.0_genc++_headers/gen/android/hardware/media/omx/1.0/types.h"
  parameters {
    basic_abi {
      type_abi {
        name: "int"
        size: 4
        alignment: 4
      }
      name: "o"
      access: public_access
      linker_set_key: "false"
    }
    default_arg: false
  }
  template_info {
    elements {
      basic_abi {
        type_abi {
          name: "android::hardware::media::omx::V1_0::CodecBuffer::Type"
        }
        linker_set_key: "android::hardware::media::omx::V1_0::CodecBuffer::Type"
      }
    }
  }
}
functions {
  basic_abi {
    type_abi {
      name: "std::basic_string<char, std::char_traits<char>, std::allocator<char> >"
    }
    name: "android::hardware::media::omx::V1_0::toString"
    access: public_access
    linker_set_key: "_ZN7android8hardware5media3omx4V1_08toStringENS3_11CodecBuffer4TypeE"
  }
  mangled_function_name: "_ZN7android8hardware5media3omx4V1_08toStringENS3_11CodecBuffer4TypeE"
  source_file: "/data/aosp/out/soong/.intermediates/hardware/interfaces/media/omx/1.0/android.hardware.media.omx@1.0_genc++_headers/gen/android/hardware/media/omx/1.0/types.h"
  parameters {
    basic_abi {
      type_abi {
        name: "android::hardware::media::omx::V1_0::CodecBuffer::Type"
      }
      name: "o"
      access: public_access
      linker_set_key: "false"
    }
    default_arg: false
  }
}
functions {
  basic_abi {
    type_abi {
      name: "std::basic_string<char, std::char_traits<char>, std::allocator<char> >"
    }
    name: "android::hardware::media::omx::V1_0::toString"
    access: public_access
    linker_set_key: "_ZN7android8hardware5media3omx4V1_08toStringERKNS3_11CodecBuffer16PresetAttributesE"
  }
  mangled_function_name: "_ZN7android8hardware5media3omx4V1_08toStringERKNS3_11CodecBuffer16PresetAttributesE"
  source_file: "/data/aosp/out/soong/.intermediates/hardware/interfaces/media/omx/1.0/android.hardware.media.omx@1.0_genc++_headers/gen/android/hardware/media/omx/1.0/types.h"
  parameters {
    basic_abi {
      type_abi {
        name: "const android::hardware::media::omx::V1_0::CodecBuffer::PresetAttributes &"
      }
      name: ""
      access: public_access
      linker_set_key: "false"
    }
    default_arg: false
  }
}
functions {
  basic_abi {
    type_abi {
      name: "bool"
      size: 1
      alignment: 1
    }
    name: "android::hardware::media::omx::V1_0::operator=="
    access: public_access
    linker_set_key: "_ZN7android8hardware5media3omx4V1_0eqERKNS3_11CodecBuffer16PresetAttributesES7_"
  }
  mangled_function_name: "_ZN7android8hardware5media3omx4V1_0eqERKNS3_11CodecBuffer16PresetAttributesES7_"
  source_file: "/data/aosp/out/soong/.intermediates/hardware/interfaces/media/omx/1.0/android.hardware.media.omx@1.0_genc++_headers/gen/android/hardware/media/omx/1.0/types.h"
  parameters {
    basic_abi {
      type_abi {
        name: "const android::hardware::media::omx::V1_0::CodecBuffer::PresetAttributes &"
      }
      name: ""
      access: public_access
      linker_set_key: "false"
    }
    default_arg: false
  }
  parameters {
    basic_abi {
      type_abi {
        name: "const android::hardware::media::omx::V1_0::CodecBuffer::PresetAttributes &"
      }
      name: ""
      access: public_access
      linker_set_key: "false"
    }
    default_arg: false
  }
}
functions {
  basic_abi {
    type_abi {
      name: "bool"
      size: 1
      alignment: 1
    }
    name: "android::hardware::media::omx::V1_0::operator!="
    access: public_access
    linker_set_key: "_ZN7android8hardware5media3omx4V1_0neERKNS3_11CodecBuffer16PresetAttributesES7_"
  }
  mangled_function_name: "_ZN7android8hardware5media3omx4V1_0neERKNS3_11CodecBuffer16PresetAttributesES7_"
  source_file: "/data/aosp/out/soong/.intermediates/hardware/interfaces/media/omx/1.0/android.hardware.media.omx@1.0_genc++_headers/gen/android/hardware/media/omx/1.0/types.h"
  parameters {
    basic_abi {
      type_abi {
        name: "const android::hardware::media::omx::V1_0::CodecBuffer::PresetAttributes &"
      }
      name: ""
      access: public_access
      linker_set_key: "false"
    }
    default_arg: false
  }
  parameters {
    basic_abi {
      type_abi {
        name: "const android::hardware::media::omx::V1_0::CodecBuffer::PresetAttributes &"
      }
      name: ""
      access: public_access
      linker_set_key: "false"
    }
    default_arg: false
  }
}
functions {
  basic_abi {
    type_abi {
      name: "std::basic_string<char, std::char_traits<char>, std::allocator<char> >"
    }
    name: "android::hardware::media::omx::V1_0::toString"
    access: public_access
    linker_set_key: "_ZN7android8hardware5media3omx4V1_08toStringERKNS3_11CodecBuffer10AttributesE"
  }
  mangled_function_name: "_ZN7android8hardware5media3omx4V1_08toStringERKNS3_11CodecBuffer10AttributesE"
  source_file: "/data/aosp/out/soong/.intermediates/hardware/interfaces/media/omx/1.0/android.hardware.media.omx@1.0_genc++_headers/gen/android/hardware/media/omx/1.0/types.h"
  parameters {
    basic_abi {
      type_abi {
        name: "const android::hardware::media::omx::V1_0::CodecBuffer::Attributes &"
      }
      name: ""
      access: public_access
      linker_set_key: "false"
    }
    default_arg: false
  }
}
functions {
  basic_abi {
    type_abi {
      name: "std::basic_string<char, std::char_traits<char>, std::allocator<char> >"
    }
    name: "android::hardware::media::omx::V1_0::toString"
    access: public_access
    linker_set_key: "_ZN7android8hardware5media3omx4V1_08toStringERKNS3_11CodecBufferE"
  }
  mangled_function_name: "_ZN7android8hardware5media3omx4V1_08toStringERKNS3_11CodecBufferE"
  source_file: "/data/aosp/out/soong/.intermediates/hardware/interfaces/media/omx/1.0/android.hardware.media.omx@1.0_genc++_headers/gen/android/hardware/media/omx/1.0/types.h"
  parameters {
    basic_abi {
      type_abi {
        name: "const android::hardware::media::omx::V1_0::CodecBuffer &"
      }
      name: ""
      access: public_access
      linker_set_key: "false"
    }
    default_arg: false
  }
}
functions {
  basic_abi {
    type_abi {
      name: "int"
      size: 4
      alignment: 4
    }
    name: "android::hardware::media::omx::V1_0::operator|"
    access: public_access
    linker_set_key: "_ZN7android8hardware5media3omx4V1_0orENS3_8PortModeES4_"
  }
  mangled_function_name: "_ZN7android8hardware5media3omx4V1_0orENS3_8PortModeES4_"
  source_file: "/data/aosp/out/soong/.intermediates/hardware/interfaces/media/omx/1.0/android.hardware.media.omx@1.0_genc++_headers/gen/android/hardware/media/omx/1.0/types.h"
  parameters {
    basic_abi {
      type_abi {
        name: "const android::hardware::media::omx::V1_0::PortMode"
      }
      name: "lhs"
      access: public_access
      linker_set_key: "false"
    }
    default_arg: false
  }
  parameters {
    basic_abi {
      type_abi {
        name: "const android::hardware::media::omx::V1_0::PortMode"
      }
      name: "rhs"
      access: public_access
      linker_set_key: "false"
    }
    default_arg: false
  }
}
functions {
  basic_abi {
    type_abi {
      name: "int"
      size: 4
      alignment: 4
    }
    name: "android::hardware::media::omx::V1_0::operator|"
    access: public_access
    linker_set_key: "_ZN7android8hardware5media3omx4V1_0orEiNS3_8PortModeE"
  }
  mangled_function_name: "_ZN7android8hardware5media3omx4V1_0orEiNS3_8PortModeE"
  source_file: "/data/aosp/out/soong/.intermediates/hardware/interfaces/media/omx/1.0/android.hardware.media.omx@1.0_genc++_headers/gen/android/hardware/media/omx/1.0/types.h"
  parameters {
    basic_abi {
      type_abi {
        name: "const int"
        size: 4
        alignment: 4
      }
      name: "lhs"
      access: public_access
      linker_set_key: "false"
    }
    default_arg: false
  }
  parameters {
    basic_abi {
      type_abi {
        name: "const android::hardware::media::omx::V1_0::PortMode"
      }
      name: "rhs"
      access: public_access
      linker_set_key: "false"
    }
    default_arg: false
  }
}
functions {
  basic_abi {
    type_abi {
      name: "int"
      size: 4
      alignment: 4
    }
    name: "android::hardware::media::omx::V1_0::operator|"
    access: public_access
    linker_set_key: "_ZN7android8hardware5media3omx4V1_0orENS3_8PortModeEi"
  }
  mangled_function_name: "_ZN7android8hardware5media3omx4V1_0orENS3_8PortModeEi"
  source_file: "/data/aosp/out/soong/.intermediates/hardware/interfaces/media/omx/1.0/android.hardware.media.omx@1.0_genc++_headers/gen/android/hardware/media/omx/1.0/types.h"
  parameters {
    basic_abi {
      type_abi {
        name: "const android::hardware::media::omx::V1_0::PortMode"
      }
      name: "lhs"
      access: public_access
      linker_set_key: "false"
    }
    default_arg: false
  }
  parameters {
    basic_abi {
      type_abi {
        name: "const int"
        size: 4
        alignment: 4
      }
      name: "rhs"
      access: public_access
      linker_set_key: "false"
    }
    default_arg: false
  }
}
functions {
  basic_abi {
    type_abi {
      name: "int"
      size: 4
      alignment: 4
    }
    name: "android::hardware::media::omx::V1_0::operator&"
    access: public_access
    linker_set_key: "_ZN7android8hardware5media3omx4V1_0anENS3_8PortModeES4_"
  }
  mangled_function_name: "_ZN7android8hardware5media3omx4V1_0anENS3_8PortModeES4_"
  source_file: "/data/aosp/out/soong/.intermediates/hardware/interfaces/media/omx/1.0/android.hardware.media.omx@1.0_genc++_headers/gen/android/hardware/media/omx/1.0/types.h"
  parameters {
    basic_abi {
      type_abi {
        name: "const android::hardware::media::omx::V1_0::PortMode"
      }
      name: "lhs"
      access: public_access
      linker_set_key: "false"
    }
    default_arg: false
  }
  parameters {
    basic_abi {
      type_abi {
        name: "const android::hardware::media::omx::V1_0::PortMode"
      }
      name: "rhs"
      access: public_access
      linker_set_key: "false"
    }
    default_arg: false
  }
}
functions {
  basic_abi {
    type_abi {
      name: "int"
      size: 4
      alignment: 4
    }
    name: "android::hardware::media::omx::V1_0::operator&"
    access: public_access
    linker_set_key: "_ZN7android8hardware5media3omx4V1_0anEiNS3_8PortModeE"
  }
  mangled_function_name: "_ZN7android8hardware5media3omx4V1_0anEiNS3_8PortModeE"
  source_file: "/data/aosp/out/soong/.intermediates/hardware/interfaces/media/omx/1.0/android.hardware.media.omx@1.0_genc++_headers/gen/android/hardware/media/omx/1.0/types.h"
  parameters {
    basic_abi {
      type_abi {
        name: "const int"
        size: 4
        alignment: 4
      }
      name: "lhs"
      access: public_access
      linker_set_key: "false"
    }
    default_arg: false
  }
  parameters {
    basic_abi {
      type_abi {
        name: "const android::hardware::media::omx::V1_0::PortMode"
      }
      name: "rhs"
      access: public_access
      linker_set_key: "false"
    }
    default_arg: false
  }
}
functions {
  basic_abi {
    type_abi {
      name: "int"
      size: 4
      alignment: 4
    }
    name: "android::hardware::media::omx::V1_0::operator&"
    access: public_access
    linker_set_key: "_ZN7android8hardware5media3omx4V1_0anENS3_8PortModeEi"
  }
  mangled_function_name: "_ZN7android8hardware5media3omx4V1_0anENS3_8PortModeEi"
  source_file: "/data/aosp/out/soong/.intermediates/hardware/interfaces/media/omx/1.0/android.hardware.media.omx@1.0_genc++_headers/gen/android/hardware/media/omx/1.0/types.h"
  parameters {
    basic_abi {
      type_abi {
        name: "const android::hardware::media::omx::V1_0::PortMode"
      }
      name: "lhs"
      access: public_access
      linker_set_key: "false"
    }
    default_arg: false
  }
  parameters {
    basic_abi {
      type_abi {
        name: "const int"
        size: 4
        alignment: 4
      }
      name: "rhs"
      access: public_access
      linker_set_key: "false"
    }
    default_arg: false
  }
}
functions {
  basic_abi {
    type_abi {
      name: "int &"
    }
    name: "android::hardware::media::omx::V1_0::operator|="
    access: public_access
    linker_set_key: "_ZN7android8hardware5media3omx4V1_0oRERiNS3_8PortModeE"
  }
  mangled_function_name: "_ZN7android8hardware5media3omx4V1_0oRERiNS3_8PortModeE"
  source_file: "/data/aosp/out/soong/.intermediates/hardware/interfaces/media/omx/1.0/android.hardware.media.omx@1.0_genc++_headers/gen/android/hardware/media/omx/1.0/types.h"
  parameters {
    basic_abi {
      type_abi {
        name: "int &"
      }
      name: "v"
      access: public_access
      linker_set_key: "false"
    }
    default_arg: false
  }
  parameters {
    basic_abi {
      type_abi {
        name: "const android::hardware::media::omx::V1_0::PortMode"
      }
      name: "e"
      access: public_access
      linker_set_key: "false"
    }
    default_arg: false
  }
}
functions {
  basic_abi {
    type_abi {
      name: "int &"
    }
    name: "android::hardware::media::omx::V1_0::operator&="
    access: public_access
    linker_set_key: "_ZN7android8hardware5media3omx4V1_0aNERiNS3_8PortModeE"
  }
  mangled_function_name: "_ZN7android8hardware5media3omx4V1_0aNERiNS3_8PortModeE"
  source_file: "/data/aosp/out/soong/.intermediates/hardware/interfaces/media/omx/1.0/android.hardware.media.omx@1.0_genc++_headers/gen/android/hardware/media/omx/1.0/types.h"
  parameters {
    basic_abi {
      type_abi {
        name: "int &"
      }
      name: "v"
      access: public_access
      linker_set_key: "false"
    }
    default_arg: false
  }
  parameters {
    basic_abi {
      type_abi {
        name: "const android::hardware::media::omx::V1_0::PortMode"
      }
      name: "e"
      access: public_access
      linker_set_key: "false"
    }
    default_arg: false
  }
}
functions {
  basic_abi {
    type_abi {
      name: "std::basic_string<char, std::char_traits<char>, std::allocator<char> >"
    }
    name: "android::hardware::media::omx::V1_0::toString"
    access: public_access
    linker_set_key: "_ZN7android8hardware5media3omx4V1_08toStringINS3_8PortModeEEENSt3__112basic_stringIcNS6_11char_traitsIcEENS6_9allocatorIcEEEEi"
  }
  mangled_function_name: "_ZN7android8hardware5media3omx4V1_08toStringINS3_8PortModeEEENSt3__112basic_stringIcNS6_11char_traitsIcEENS6_9allocatorIcEEEEi"
  source_file: "/data/aosp/out/soong/.intermediates/hardware/interfaces/media/omx/1.0/android.hardware.media.omx@1.0_genc++_headers/gen/android/hardware/media/omx/1.0/types.h"
  parameters {
    basic_abi {
      type_abi {
        name: "int"
        size: 4
        alignment: 4
      }
      name: "o"
      access: public_access
      linker_set_key: "false"
    }
    default_arg: false
  }
  template_info {
    elements {
      basic_abi {
        type_abi {
          name: "android::hardware::media::omx::V1_0::PortMode"
        }
        linker_set_key: "android::hardware::media::omx::V1_0::PortMode"
      }
    }
  }
}
functions {
  basic_abi {
    type_abi {
      name: "std::basic_string<char, std::char_traits<char>, std::allocator<char> >"
    }
    name: "android::hardware::media::omx::V1_0::toString"
    access: public_access
    linker_set_key: "_ZN7android8hardware5media3omx4V1_08toStringENS3_8PortModeE"
  }
  mangled_function_name: "_ZN7android8hardware5media3omx4V1_08toStringENS3_8PortModeE"
  source_file: "/data/aosp/out/soong/.intermediates/hardware/interfaces/media/omx/1.0/android.hardware.media.omx@1.0_genc++_headers/gen/android/hardware/media/omx/1.0/types.h"
  parameters {
    basic_abi {
      type_abi {
        name: "android::hardware::media::omx::V1_0::PortMode"
      }
      name: "o"
      access: public_access
      linker_set_key: "false"
    }
    default_arg: false
  }
}
functions {
  basic_abi {
    type_abi {
      name: "unsigned int"
      size: 4
      alignment: 4
    }
    name: "android::hardware::media::omx::V1_0::operator|"
    access: public_access
    linker_set_key: "_ZN7android8hardware5media3omx4V1_0orENS3_12ColorAspects5RangeES5_"
  }
  mangled_function_name: "_ZN7android8hardware5media3omx4V1_0orENS3_12ColorAspects5RangeES5_"
  source_file: "/data/aosp/out/soong/.intermediates/hardware/interfaces/media/omx/1.0/android.hardware.media.omx@1.0_genc++_headers/gen/android/hardware/media/omx/1.0/types.h"
  parameters {
    basic_abi {
      type_abi {
        name: "const android::hardware::media::omx::V1_0::ColorAspects::Range"
      }
      name: "lhs"
      access: public_access
      linker_set_key: "false"
    }
    default_arg: false
  }
  parameters {
    basic_abi {
      type_abi {
        name: "const android::hardware::media::omx::V1_0::ColorAspects::Range"
      }
      name: "rhs"
      access: public_access
      linker_set_key: "false"
    }
    default_arg: false
  }
}
functions {
  basic_abi {
    type_abi {
      name: "unsigned int"
      size: 4
      alignment: 4
    }
    name: "android::hardware::media::omx::V1_0::operator|"
    access: public_access
    linker_set_key: "_ZN7android8hardware5media3omx4V1_0orEjNS3_12ColorAspects5RangeE"
  }
  mangled_function_name: "_ZN7android8hardware5media3omx4V1_0orEjNS3_12ColorAspects5RangeE"
  source_file: "/data/aosp/out/soong/.intermediates/hardware/interfaces/media/omx/1.0/android.hardware.media.omx@1.0_genc++_headers/gen/android/hardware/media/omx/1.0/types.h"
  parameters {
    basic_abi {
      type_abi {
        name: "const unsigned int"
        size: 4
        alignment: 4
      }
      name: "lhs"
      access: public_access
      linker_set_key: "false"
    }
    default_arg: false
  }
  parameters {
    basic_abi {
      type_abi {
        name: "const android::hardware::media::omx::V1_0::ColorAspects::Range"
      }
      name: "rhs"
      access: public_access
      linker_set_key: "false"
    }
    default_arg: false
  }
}
functions {
  basic_abi {
    type_abi {
      name: "unsigned int"
      size: 4
      alignment: 4
    }
    name: "android::hardware::media::omx::V1_0::operator|"
    access: public_access
    linker_set_key: "_ZN7android8hardware5media3omx4V1_0orENS3_12ColorAspects5RangeEj"
  }
  mangled_function_name: "_ZN7android8hardware5media3omx4V1_0orENS3_12ColorAspects5RangeEj"
  source_file: "/data/aosp/out/soong/.intermediates/hardware/interfaces/media/omx/1.0/android.hardware.media.omx@1.0_genc++_headers/gen/android/hardware/media/omx/1.0/types.h"
  parameters {
    basic_abi {
      type_abi {
        name: "const android::hardware::media::omx::V1_0::ColorAspects::Range"
      }
      name: "lhs"
      access: public_access
      linker_set_key: "false"
    }
    default_arg: false
  }
  parameters {
    basic_abi {
      type_abi {
        name: "const unsigned int"
        size: 4
        alignment: 4
      }
      name: "rhs"
      access: public_access
      linker_set_key: "false"
    }
    default_arg: false
  }
}
functions {
  basic_abi {
    type_abi {
      name: "unsigned int"
      size: 4
      alignment: 4
    }
    name: "android::hardware::media::omx::V1_0::operator&"
    access: public_access
    linker_set_key: "_ZN7android8hardware5media3omx4V1_0anENS3_12ColorAspects5RangeES5_"
  }
  mangled_function_name: "_ZN7android8hardware5media3omx4V1_0anENS3_12ColorAspects5RangeES5_"
  source_file: "/data/aosp/out/soong/.intermediates/hardware/interfaces/media/omx/1.0/android.hardware.media.omx@1.0_genc++_headers/gen/android/hardware/media/omx/1.0/types.h"
  parameters {
    basic_abi {
      type_abi {
        name: "const android::hardware::media::omx::V1_0::ColorAspects::Range"
      }
      name: "lhs"
      access: public_access
      linker_set_key: "false"
    }
    default_arg: false
  }
  parameters {
    basic_abi {
      type_abi {
        name: "const android::hardware::media::omx::V1_0::ColorAspects::Range"
      }
      name: "rhs"
      access: public_access
      linker_set_key: "false"
    }
    default_arg: false
  }
}
functions {
  basic_abi {
    type_abi {
      name: "unsigned int"
      size: 4
      alignment: 4
    }
    name: "android::hardware::media::omx::V1_0::operator&"
    access: public_access
    linker_set_key: "_ZN7android8hardware5media3omx4V1_0anEjNS3_12ColorAspects5RangeE"
  }
  mangled_function_name: "_ZN7android8hardware5media3omx4V1_0anEjNS3_12ColorAspects5RangeE"
  source_file: "/data/aosp/out/soong/.intermediates/hardware/interfaces/media/omx/1.0/android.hardware.media.omx@1.0_genc++_headers/gen/android/hardware/media/omx/1.0/types.h"
  parameters {
    basic_abi {
      type_abi {
        name: "const unsigned int"
        size: 4
        alignment: 4
      }
      name: "lhs"
      access: public_access
      linker_set_key: "false"
    }
    default_arg: false
  }
  parameters {
    basic_abi {
      type_abi {
        name: "const android::hardware::media::omx::V1_0::ColorAspects::Range"
      }
      name: "rhs"
      access: public_access
      linker_set_key: "false"
    }
    default_arg: false
  }
}
functions {
  basic_abi {
    type_abi {
      name: "unsigned int"
      size: 4
      alignment: 4
    }
    name: "android::hardware::media::omx::V1_0::operator&"
    access: public_access
    linker_set_key: "_ZN7android8hardware5media3omx4V1_0anENS3_12ColorAspects5RangeEj"
  }
  mangled_function_name: "_ZN7android8hardware5media3omx4V1_0anENS3_12ColorAspects5RangeEj"
  source_file: "/data/aosp/out/soong/.intermediates/hardware/interfaces/media/omx/1.0/android.hardware.media.omx@1.0_genc++_headers/gen/android/hardware/media/omx/1.0/types.h"
  parameters {
    basic_abi {
      type_abi {
        name: "const android::hardware::media::omx::V1_0::ColorAspects::Range"
      }
      name: "lhs"
      access: public_access
      linker_set_key: "false"
    }
    default_arg: false
  }
  parameters {
    basic_abi {
      type_abi {
        name: "const unsigned int"
        size: 4
        alignment: 4
      }
      name: "rhs"
      access: public_access
      linker_set_key: "false"
    }
    default_arg: false
  }
}
functions {
  basic_abi {
    type_abi {
      name: "unsigned int &"
    }
    name: "android::hardware::media::omx::V1_0::operator|="
    access: public_access
    linker_set_key: "_ZN7android8hardware5media3omx4V1_0oRERjNS3_12ColorAspects5RangeE"
  }
  mangled_function_name: "_ZN7android8hardware5media3omx4V1_0oRERjNS3_12ColorAspects5RangeE"
  source_file: "/data/aosp/out/soong/.intermediates/hardware/interfaces/media/omx/1.0/android.hardware.media.omx@1.0_genc++_headers/gen/android/hardware/media/omx/1.0/types.h"
  parameters {
    basic_abi {
      type_abi {
        name: "unsigned int &"
      }
      name: "v"
      access: public_access
      linker_set_key: "false"
    }
    default_arg: false
  }
  parameters {
    basic_abi {
      type_abi {
        name: "const android::hardware::media::omx::V1_0::ColorAspects::Range"
      }
      name: "e"
      access: public_access
      linker_set_key: "false"
    }
    default_arg: false
  }
}
functions {
  basic_abi {
    type_abi {
      name: "unsigned int &"
    }
    name: "android::hardware::media::omx::V1_0::operator&="
    access: public_access
    linker_set_key: "_ZN7android8hardware5media3omx4V1_0aNERjNS3_12ColorAspects5RangeE"
  }
  mangled_function_name: "_ZN7android8hardware5media3omx4V1_0aNERjNS3_12ColorAspects5RangeE"
  source_file: "/data/aosp/out/soong/.intermediates/hardware/interfaces/media/omx/1.0/android.hardware.media.omx@1.0_genc++_headers/gen/android/hardware/media/omx/1.0/types.h"
  parameters {
    basic_abi {
      type_abi {
        name: "unsigned int &"
      }
      name: "v"
      access: public_access
      linker_set_key: "false"
    }
    default_arg: false
  }
  parameters {
    basic_abi {
      type_abi {
        name: "const android::hardware::media::omx::V1_0::ColorAspects::Range"
      }
      name: "e"
      access: public_access
      linker_set_key: "false"
    }
    default_arg: false
  }
}
functions {
  basic_abi {
    type_abi {
      name: "std::basic_string<char, std::char_traits<char>, std::allocator<char> >"
    }
    name: "android::hardware::media::omx::V1_0::toString"
    access: public_access
    linker_set_key: "_ZN7android8hardware5media3omx4V1_08toStringINS3_12ColorAspects5RangeEEENSt3__112basic_stringIcNS7_11char_traitsIcEENS7_9allocatorIcEEEEj"
  }
  mangled_function_name: "_ZN7android8hardware5media3omx4V1_08toStringINS3_12ColorAspects5RangeEEENSt3__112basic_stringIcNS7_11char_traitsIcEENS7_9allocatorIcEEEEj"
  source_file: "/data/aosp/out/soong/.intermediates/hardware/interfaces/media/omx/1.0/android.hardware.media.omx@1.0_genc++_headers/gen/android/hardware/media/omx/1.0/types.h"
  parameters {
    basic_abi {
      type_abi {
        name: "unsigned int"
        size: 4
        alignment: 4
      }
      name: "o"
      access: public_access
      linker_set_key: "false"
    }
    default_arg: false
  }
  template_info {
    elements {
      basic_abi {
        type_abi {
          name: "android::hardware::media::omx::V1_0::ColorAspects::Range"
        }
        linker_set_key: "android::hardware::media::omx::V1_0::ColorAspects::Range"
      }
    }
  }
}
functions {
  basic_abi {
    type_abi {
      name: "std::basic_string<char, std::char_traits<char>, std::allocator<char> >"
    }
    name: "android::hardware::media::omx::V1_0::toString"
    access: public_access
    linker_set_key: "_ZN7android8hardware5media3omx4V1_08toStringENS3_12ColorAspects5RangeE"
  }
  mangled_function_name: "_ZN7android8hardware5media3omx4V1_08toStringENS3_12ColorAspects5RangeE"
  source_file: "/data/aosp/out/soong/.intermediates/hardware/interfaces/media/omx/1.0/android.hardware.media.omx@1.0_genc++_headers/gen/android/hardware/media/omx/1.0/types.h"
  parameters {
    basic_abi {
      type_abi {
        name: "android::hardware::media::omx::V1_0::ColorAspects::Range"
      }
      name: "o"
      access: public_access
      linker_set_key: "false"
    }
    default_arg: false
  }
}
functions {
  basic_abi {
    type_abi {
      name: "unsigned int"
      size: 4
      alignment: 4
    }
    name: "android::hardware::media::omx::V1_0::operator|"
    access: public_access
    linker_set_key: "_ZN7android8hardware5media3omx4V1_0orENS3_12ColorAspects9PrimariesES5_"
  }
  mangled_function_name: "_ZN7android8hardware5media3omx4V1_0orENS3_12ColorAspects9PrimariesES5_"
  source_file: "/data/aosp/out/soong/.intermediates/hardware/interfaces/media/omx/1.0/android.hardware.media.omx@1.0_genc++_headers/gen/android/hardware/media/omx/1.0/types.h"
  parameters {
    basic_abi {
      type_abi {
        name: "const android::hardware::media::omx::V1_0::ColorAspects::Primaries"
      }
      name: "lhs"
      access: public_access
      linker_set_key: "false"
    }
    default_arg: false
  }
  parameters {
    basic_abi {
      type_abi {
        name: "const android::hardware::media::omx::V1_0::ColorAspects::Primaries"
      }
      name: "rhs"
      access: public_access
      linker_set_key: "false"
    }
    default_arg: false
  }
}
functions {
  basic_abi {
    type_abi {
      name: "unsigned int"
      size: 4
      alignment: 4
    }
    name: "android::hardware::media::omx::V1_0::operator|"
    access: public_access
    linker_set_key: "_ZN7android8hardware5media3omx4V1_0orEjNS3_12ColorAspects9PrimariesE"
  }
  mangled_function_name: "_ZN7android8hardware5media3omx4V1_0orEjNS3_12ColorAspects9PrimariesE"
  source_file: "/data/aosp/out/soong/.intermediates/hardware/interfaces/media/omx/1.0/android.hardware.media.omx@1.0_genc++_headers/gen/android/hardware/media/omx/1.0/types.h"
  parameters {
    basic_abi {
      type_abi {
        name: "const unsigned int"
        size: 4
        alignment: 4
      }
      name: "lhs"
      access: public_access
      linker_set_key: "false"
    }
    default_arg: false
  }
  parameters {
    basic_abi {
      type_abi {
        name: "const android::hardware::media::omx::V1_0::ColorAspects::Primaries"
      }
      name: "rhs"
      access: public_access
      linker_set_key: "false"
    }
    default_arg: false
  }
}
functions {
  basic_abi {
    type_abi {
      name: "unsigned int"
      size: 4
      alignment: 4
    }
    name: "android::hardware::media::omx::V1_0::operator|"
    access: public_access
    linker_set_key: "_ZN7android8hardware5media3omx4V1_0orENS3_12ColorAspects9PrimariesEj"
  }
  mangled_function_name: "_ZN7android8hardware5media3omx4V1_0orENS3_12ColorAspects9PrimariesEj"
  source_file: "/data/aosp/out/soong/.intermediates/hardware/interfaces/media/omx/1.0/android.hardware.media.omx@1.0_genc++_headers/gen/android/hardware/media/omx/1.0/types.h"
  parameters {
    basic_abi {
      type_abi {
        name: "const android::hardware::media::omx::V1_0::ColorAspects::Primaries"
      }
      name: "lhs"
      access: public_access
      linker_set_key: "false"
    }
    default_arg: false
  }
  parameters {
    basic_abi {
      type_abi {
        name: "const unsigned int"
        size: 4
        alignment: 4
      }
      name: "rhs"
      access: public_access
      linker_set_key: "false"
    }
    default_arg: false
  }
}
functions {
  basic_abi {
    type_abi {
      name: "unsigned int"
      size: 4
      alignment: 4
    }
    name: "android::hardware::media::omx::V1_0::operator&"
    access: public_access
    linker_set_key: "_ZN7android8hardware5media3omx4V1_0anENS3_12ColorAspects9PrimariesES5_"
  }
  mangled_function_name: "_ZN7android8hardware5media3omx4V1_0anENS3_12ColorAspects9PrimariesES5_"
  source_file: "/data/aosp/out/soong/.intermediates/hardware/interfaces/media/omx/1.0/android.hardware.media.omx@1.0_genc++_headers/gen/android/hardware/media/omx/1.0/types.h"
  parameters {
    basic_abi {
      type_abi {
        name: "const android::hardware::media::omx::V1_0::ColorAspects::Primaries"
      }
      name: "lhs"
      access: public_access
      linker_set_key: "false"
    }
    default_arg: false
  }
  parameters {
    basic_abi {
      type_abi {
        name: "const android::hardware::media::omx::V1_0::ColorAspects::Primaries"
      }
      name: "rhs"
      access: public_access
      linker_set_key: "false"
    }
    default_arg: false
  }
}
functions {
  basic_abi {
    type_abi {
      name: "unsigned int"
      size: 4
      alignment: 4
    }
    name: "android::hardware::media::omx::V1_0::operator&"
    access: public_access
    linker_set_key: "_ZN7android8hardware5media3omx4V1_0anEjNS3_12ColorAspects9PrimariesE"
  }
  mangled_function_name: "_ZN7android8hardware5media3omx4V1_0anEjNS3_12ColorAspects9PrimariesE"
  source_file: "/data/aosp/out/soong/.intermediates/hardware/interfaces/media/omx/1.0/android.hardware.media.omx@1.0_genc++_headers/gen/android/hardware/media/omx/1.0/types.h"
  parameters {
    basic_abi {
      type_abi {
        name: "const unsigned int"
        size: 4
        alignment: 4
      }
      name: "lhs"
      access: public_access
      linker_set_key: "false"
    }
    default_arg: false
  }
  parameters {
    basic_abi {
      type_abi {
        name: "const android::hardware::media::omx::V1_0::ColorAspects::Primaries"
      }
      name: "rhs"
      access: public_access
      linker_set_key: "false"
    }
    default_arg: false
  }
}
functions {
  basic_abi {
    type_abi {
      name: "unsigned int"
      size: 4
      alignment: 4
    }
    name: "android::hardware::media::omx::V1_0::operator&"
    access: public_access
    linker_set_key: "_ZN7android8hardware5media3omx4V1_0anENS3_12ColorAspects9PrimariesEj"
  }
  mangled_function_name: "_ZN7android8hardware5media3omx4V1_0anENS3_12ColorAspects9PrimariesEj"
  source_file: "/data/aosp/out/soong/.intermediates/hardware/interfaces/media/omx/1.0/android.hardware.media.omx@1.0_genc++_headers/gen/android/hardware/media/omx/1.0/types.h"
  parameters {
    basic_abi {
      type_abi {
        name: "const android::hardware::media::omx::V1_0::ColorAspects::Primaries"
      }
      name: "lhs"
      access: public_access
      linker_set_key: "false"
    }
    default_arg: false
  }
  parameters {
    basic_abi {
      type_abi {
        name: "const unsigned int"
        size: 4
        alignment: 4
      }
      name: "rhs"
      access: public_access
      linker_set_key: "false"
    }
    default_arg: false
  }
}
functions {
  basic_abi {
    type_abi {
      name: "unsigned int &"
    }
    name: "android::hardware::media::omx::V1_0::operator|="
    access: public_access
    linker_set_key: "_ZN7android8hardware5media3omx4V1_0oRERjNS3_12ColorAspects9PrimariesE"
  }
  mangled_function_name: "_ZN7android8hardware5media3omx4V1_0oRERjNS3_12ColorAspects9PrimariesE"
  source_file: "/data/aosp/out/soong/.intermediates/hardware/interfaces/media/omx/1.0/android.hardware.media.omx@1.0_genc++_headers/gen/android/hardware/media/omx/1.0/types.h"
  parameters {
    basic_abi {
      type_abi {
        name: "unsigned int &"
      }
      name: "v"
      access: public_access
      linker_set_key: "false"
    }
    default_arg: false
  }
  parameters {
    basic_abi {
      type_abi {
        name: "const android::hardware::media::omx::V1_0::ColorAspects::Primaries"
      }
      name: "e"
      access: public_access
      linker_set_key: "false"
    }
    default_arg: false
  }
}
functions {
  basic_abi {
    type_abi {
      name: "unsigned int &"
    }
    name: "android::hardware::media::omx::V1_0::operator&="
    access: public_access
    linker_set_key: "_ZN7android8hardware5media3omx4V1_0aNERjNS3_12ColorAspects9PrimariesE"
  }
  mangled_function_name: "_ZN7android8hardware5media3omx4V1_0aNERjNS3_12ColorAspects9PrimariesE"
  source_file: "/data/aosp/out/soong/.intermediates/hardware/interfaces/media/omx/1.0/android.hardware.media.omx@1.0_genc++_headers/gen/android/hardware/media/omx/1.0/types.h"
  parameters {
    basic_abi {
      type_abi {
        name: "unsigned int &"
      }
      name: "v"
      access: public_access
      linker_set_key: "false"
    }
    default_arg: false
  }
  parameters {
    basic_abi {
      type_abi {
        name: "const android::hardware::media::omx::V1_0::ColorAspects::Primaries"
      }
      name: "e"
      access: public_access
      linker_set_key: "false"
    }
    default_arg: false
  }
}
functions {
  basic_abi {
    type_abi {
      name: "std::basic_string<char, std::char_traits<char>, std::allocator<char> >"
    }
    name: "android::hardware::media::omx::V1_0::toString"
    access: public_access
    linker_set_key: "_ZN7android8hardware5media3omx4V1_08toStringINS3_12ColorAspects9PrimariesEEENSt3__112basic_stringIcNS7_11char_traitsIcEENS7_9allocatorIcEEEEj"
  }
  mangled_function_name: "_ZN7android8hardware5media3omx4V1_08toStringINS3_12ColorAspects9PrimariesEEENSt3__112basic_stringIcNS7_11char_traitsIcEENS7_9allocatorIcEEEEj"
  source_file: "/data/aosp/out/soong/.intermediates/hardware/interfaces/media/omx/1.0/android.hardware.media.omx@1.0_genc++_headers/gen/android/hardware/media/omx/1.0/types.h"
  parameters {
    basic_abi {
      type_abi {
        name: "unsigned int"
        size: 4
        alignment: 4
      }
      name: "o"
      access: public_access
      linker_set_key: "false"
    }
    default_arg: false
  }
  template_info {
    elements {
      basic_abi {
        type_abi {
          name: "android::hardware::media::omx::V1_0::ColorAspects::Primaries"
        }
        linker_set_key: "android::hardware::media::omx::V1_0::ColorAspects::Primaries"
      }
    }
  }
}
functions {
  basic_abi {
    type_abi {
      name: "std::basic_string<char, std::char_traits<char>, std::allocator<char> >"
    }
    name: "android::hardware::media::omx::V1_0::toString"
    access: public_access
    linker_set_key: "_ZN7android8hardware5media3omx4V1_08toStringENS3_12ColorAspects9PrimariesE"
  }
  mangled_function_name: "_ZN7android8hardware5media3omx4V1_08toStringENS3_12ColorAspects9PrimariesE"
  source_file: "/data/aosp/out/soong/.intermediates/hardware/interfaces/media/omx/1.0/android.hardware.media.omx@1.0_genc++_headers/gen/android/hardware/media/omx/1.0/types.h"
  parameters {
    basic_abi {
      type_abi {
        name: "android::hardware::media::omx::V1_0::ColorAspects::Primaries"
      }
      name: "o"
      access: public_access
      linker_set_key: "false"
    }
    default_arg: false
  }
}
functions {
  basic_abi {
    type_abi {
      name: "unsigned int"
      size: 4
      alignment: 4
    }
    name: "android::hardware::media::omx::V1_0::operator|"
    access: public_access
    linker_set_key: "_ZN7android8hardware5media3omx4V1_0orENS3_12ColorAspects8TransferES5_"
  }
  mangled_function_name: "_ZN7android8hardware5media3omx4V1_0orENS3_12ColorAspects8TransferES5_"
  source_file: "/data/aosp/out/soong/.intermediates/hardware/interfaces/media/omx/1.0/android.hardware.media.omx@1.0_genc++_headers/gen/android/hardware/media/omx/1.0/types.h"
  parameters {
    basic_abi {
      type_abi {
        name: "const android::hardware::media::omx::V1_0::ColorAspects::Transfer"
      }
      name: "lhs"
      access: public_access
      linker_set_key: "false"
    }
    default_arg: false
  }
  parameters {
    basic_abi {
      type_abi {
        name: "const android::hardware::media::omx::V1_0::ColorAspects::Transfer"
      }
      name: "rhs"
      access: public_access
      linker_set_key: "false"
    }
    default_arg: false
  }
}
functions {
  basic_abi {
    type_abi {
      name: "unsigned int"
      size: 4
      alignment: 4
    }
    name: "android::hardware::media::omx::V1_0::operator|"
    access: public_access
    linker_set_key: "_ZN7android8hardware5media3omx4V1_0orEjNS3_12ColorAspects8TransferE"
  }
  mangled_function_name: "_ZN7android8hardware5media3omx4V1_0orEjNS3_12ColorAspects8TransferE"
  source_file: "/data/aosp/out/soong/.intermediates/hardware/interfaces/media/omx/1.0/android.hardware.media.omx@1.0_genc++_headers/gen/android/hardware/media/omx/1.0/types.h"
  parameters {
    basic_abi {
      type_abi {
        name: "const unsigned int"
        size: 4
        alignment: 4
      }
      name: "lhs"
      access: public_access
      linker_set_key: "false"
    }
    default_arg: false
  }
  parameters {
    basic_abi {
      type_abi {
        name: "const android::hardware::media::omx::V1_0::ColorAspects::Transfer"
      }
      name: "rhs"
      access: public_access
      linker_set_key: "false"
    }
    default_arg: false
  }
}
functions {
  basic_abi {
    type_abi {
      name: "unsigned int"
      size: 4
      alignment: 4
    }
    name: "android::hardware::media::omx::V1_0::operator|"
    access: public_access
    linker_set_key: "_ZN7android8hardware5media3omx4V1_0orENS3_12ColorAspects8TransferEj"
  }
  mangled_function_name: "_ZN7android8hardware5media3omx4V1_0orENS3_12ColorAspects8TransferEj"
  source_file: "/data/aosp/out/soong/.intermediates/hardware/interfaces/media/omx/1.0/android.hardware.media.omx@1.0_genc++_headers/gen/android/hardware/media/omx/1.0/types.h"
  parameters {
    basic_abi {
      type_abi {
        name: "const android::hardware::media::omx::V1_0::ColorAspects::Transfer"
      }
      name: "lhs"
      access: public_access
      linker_set_key: "false"
    }
    default_arg: false
  }
  parameters {
    basic_abi {
      type_abi {
        name: "const unsigned int"
        size: 4
        alignment: 4
      }
      name: "rhs"
      access: public_access
      linker_set_key: "false"
    }
    default_arg: false
  }
}
functions {
  basic_abi {
    type_abi {
      name: "unsigned int"
      size: 4
      alignment: 4
    }
    name: "android::hardware::media::omx::V1_0::operator&"
    access: public_access
    linker_set_key: "_ZN7android8hardware5media3omx4V1_0anENS3_12ColorAspects8TransferES5_"
  }
  mangled_function_name: "_ZN7android8hardware5media3omx4V1_0anENS3_12ColorAspects8TransferES5_"
  source_file: "/data/aosp/out/soong/.intermediates/hardware/interfaces/media/omx/1.0/android.hardware.media.omx@1.0_genc++_headers/gen/android/hardware/media/omx/1.0/types.h"
  parameters {
    basic_abi {
      type_abi {
        name: "const android::hardware::media::omx::V1_0::ColorAspects::Transfer"
      }
      name: "lhs"
      access: public_access
      linker_set_key: "false"
    }
    default_arg: false
  }
  parameters {
    basic_abi {
      type_abi {
        name: "const android::hardware::media::omx::V1_0::ColorAspects::Transfer"
      }
      name: "rhs"
      access: public_access
      linker_set_key: "false"
    }
    default_arg: false
  }
}
functions {
  basic_abi {
    type_abi {
      name: "unsigned int"
      size: 4
      alignment: 4
    }
    name: "android::hardware::media::omx::V1_0::operator&"
    access: public_access
    linker_set_key: "_ZN7android8hardware5media3omx4V1_0anEjNS3_12ColorAspects8TransferE"
  }
  mangled_function_name: "_ZN7android8hardware5media3omx4V1_0anEjNS3_12ColorAspects8TransferE"
  source_file: "/data/aosp/out/soong/.intermediates/hardware/interfaces/media/omx/1.0/android.hardware.media.omx@1.0_genc++_headers/gen/android/hardware/media/omx/1.0/types.h"
  parameters {
    basic_abi {
      type_abi {
        name: "const unsigned int"
        size: 4
        alignment: 4
      }
      name: "lhs"
      access: public_access
      linker_set_key: "false"
    }
    default_arg: false
  }
  parameters {
    basic_abi {
      type_abi {
        name: "const android::hardware::media::omx::V1_0::ColorAspects::Transfer"
      }
      name: "rhs"
      access: public_access
      linker_set_key: "false"
    }
    default_arg: false
  }
}
functions {
  basic_abi {
    type_abi {
      name: "unsigned int"
      size: 4
      alignment: 4
    }
    name: "android::hardware::media::omx::V1_0::operator&"
    access: public_access
    linker_set_key: "_ZN7android8hardware5media3omx4V1_0anENS3_12ColorAspects8TransferEj"
  }
  mangled_function_name: "_ZN7android8hardware5media3omx4V1_0anENS3_12ColorAspects8TransferEj"
  source_file: "/data/aosp/out/soong/.intermediates/hardware/interfaces/media/omx/1.0/android.hardware.media.omx@1.0_genc++_headers/gen/android/hardware/media/omx/1.0/types.h"
  parameters {
    basic_abi {
      type_abi {
        name: "const android::hardware::media::omx::V1_0::ColorAspects::Transfer"
      }
      name: "lhs"
      access: public_access
      linker_set_key: "false"
    }
    default_arg: false
  }
  parameters {
    basic_abi {
      type_abi {
        name: "const unsigned int"
        size: 4
        alignment: 4
      }
      name: "rhs"
      access: public_access
      linker_set_key: "false"
    }
    default_arg: false
  }
}
functions {
  basic_abi {
    type_abi {
      name: "unsigned int &"
    }
    name: "android::hardware::media::omx::V1_0::operator|="
    access: public_access
    linker_set_key: "_ZN7android8hardware5media3omx4V1_0oRERjNS3_12ColorAspects8TransferE"
  }
  mangled_function_name: "_ZN7android8hardware5media3omx4V1_0oRERjNS3_12ColorAspects8TransferE"
  source_file: "/data/aosp/out/soong/.intermediates/hardware/interfaces/media/omx/1.0/android.hardware.media.omx@1.0_genc++_headers/gen/android/hardware/media/omx/1.0/types.h"
  parameters {
    basic_abi {
      type_abi {
        name: "unsigned int &"
      }
      name: "v"
      access: public_access
      linker_set_key: "false"
    }
    default_arg: false
  }
  parameters {
    basic_abi {
      type_abi {
        name: "const android::hardware::media::omx::V1_0::ColorAspects::Transfer"
      }
      name: "e"
      access: public_access
      linker_set_key: "false"
    }
    default_arg: false
  }
}
functions {
  basic_abi {
    type_abi {
      name: "unsigned int &"
    }
    name: "android::hardware::media::omx::V1_0::operator&="
    access: public_access
    linker_set_key: "_ZN7android8hardware5media3omx4V1_0aNERjNS3_12ColorAspects8TransferE"
  }
  mangled_function_name: "_ZN7android8hardware5media3omx4V1_0aNERjNS3_12ColorAspects8TransferE"
  source_file: "/data/aosp/out/soong/.intermediates/hardware/interfaces/media/omx/1.0/android.hardware.media.omx@1.0_genc++_headers/gen/android/hardware/media/omx/1.0/types.h"
  parameters {
    basic_abi {
      type_abi {
        name: "unsigned int &"
      }
      name: "v"
      access: public_access
      linker_set_key: "false"
    }
    default_arg: false
  }
  parameters {
    basic_abi {
      type_abi {
        name: "const android::hardware::media::omx::V1_0::ColorAspects::Transfer"
      }
      name: "e"
      access: public_access
      linker_set_key: "false"
    }
    default_arg: false
  }
}
functions {
  basic_abi {
    type_abi {
      name: "std::basic_string<char, std::char_traits<char>, std::allocator<char> >"
    }
    name: "android::hardware::media::omx::V1_0::toString"
    access: public_access
    linker_set_key: "_ZN7android8hardware5media3omx4V1_08toStringINS3_12ColorAspects8TransferEEENSt3__112basic_stringIcNS7_11char_traitsIcEENS7_9allocatorIcEEEEj"
  }
  mangled_function_name: "_ZN7android8hardware5media3omx4V1_08toStringINS3_12ColorAspects8TransferEEENSt3__112basic_stringIcNS7_11char_traitsIcEENS7_9allocatorIcEEEEj"
  source_file: "/data/aosp/out/soong/.intermediates/hardware/interfaces/media/omx/1.0/android.hardware.media.omx@1.0_genc++_headers/gen/android/hardware/media/omx/1.0/types.h"
  parameters {
    basic_abi {
      type_abi {
        name: "unsigned int"
        size: 4
        alignment: 4
      }
      name: "o"
      access: public_access
      linker_set_key: "false"
    }
    default_arg: false
  }
  template_info {
    elements {
      basic_abi {
        type_abi {
          name: "android::hardware::media::omx::V1_0::ColorAspects::Transfer"
        }
        linker_set_key: "android::hardware::media::omx::V1_0::ColorAspects::Transfer"
      }
    }
  }
}
functions {
  basic_abi {
    type_abi {
      name: "std::basic_string<char, std::char_traits<char>, std::allocator<char> >"
    }
    name: "android::hardware::media::omx::V1_0::toString"
    access: public_access
    linker_set_key: "_ZN7android8hardware5media3omx4V1_08toStringENS3_12ColorAspects8TransferE"
  }
  mangled_function_name: "_ZN7android8hardware5media3omx4V1_08toStringENS3_12ColorAspects8TransferE"
  source_file: "/data/aosp/out/soong/.intermediates/hardware/interfaces/media/omx/1.0/android.hardware.media.omx@1.0_genc++_headers/gen/android/hardware/media/omx/1.0/types.h"
  parameters {
    basic_abi {
      type_abi {
        name: "android::hardware::media::omx::V1_0::ColorAspects::Transfer"
      }
      name: "o"
      access: public_access
      linker_set_key: "false"
    }
    default_arg: false
  }
}
functions {
  basic_abi {
    type_abi {
      name: "unsigned int"
      size: 4
      alignment: 4
    }
    name: "android::hardware::media::omx::V1_0::operator|"
    access: public_access
    linker_set_key: "_ZN7android8hardware5media3omx4V1_0orENS3_12ColorAspects12MatrixCoeffsES5_"
  }
  mangled_function_name: "_ZN7android8hardware5media3omx4V1_0orENS3_12ColorAspects12MatrixCoeffsES5_"
  source_file: "/data/aosp/out/soong/.intermediates/hardware/interfaces/media/omx/1.0/android.hardware.media.omx@1.0_genc++_headers/gen/android/hardware/media/omx/1.0/types.h"
  parameters {
    basic_abi {
      type_abi {
        name: "const android::hardware::media::omx::V1_0::ColorAspects::MatrixCoeffs"
      }
      name: "lhs"
      access: public_access
      linker_set_key: "false"
    }
    default_arg: false
  }
  parameters {
    basic_abi {
      type_abi {
        name: "const android::hardware::media::omx::V1_0::ColorAspects::MatrixCoeffs"
      }
      name: "rhs"
      access: public_access
      linker_set_key: "false"
    }
    default_arg: false
  }
}
functions {
  basic_abi {
    type_abi {
      name: "unsigned int"
      size: 4
      alignment: 4
    }
    name: "android::hardware::media::omx::V1_0::operator|"
    access: public_access
    linker_set_key: "_ZN7android8hardware5media3omx4V1_0orEjNS3_12ColorAspects12MatrixCoeffsE"
  }
  mangled_function_name: "_ZN7android8hardware5media3omx4V1_0orEjNS3_12ColorAspects12MatrixCoeffsE"
  source_file: "/data/aosp/out/soong/.intermediates/hardware/interfaces/media/omx/1.0/android.hardware.media.omx@1.0_genc++_headers/gen/android/hardware/media/omx/1.0/types.h"
  parameters {
    basic_abi {
      type_abi {
        name: "const unsigned int"
        size: 4
        alignment: 4
      }
      name: "lhs"
      access: public_access
      linker_set_key: "false"
    }
    default_arg: false
  }
  parameters {
    basic_abi {
      type_abi {
        name: "const android::hardware::media::omx::V1_0::ColorAspects::MatrixCoeffs"
      }
      name: "rhs"
      access: public_access
      linker_set_key: "false"
    }
    default_arg: false
  }
}
functions {
  basic_abi {
    type_abi {
      name: "unsigned int"
      size: 4
      alignment: 4
    }
    name: "android::hardware::media::omx::V1_0::operator|"
    access: public_access
    linker_set_key: "_ZN7android8hardware5media3omx4V1_0orENS3_12ColorAspects12MatrixCoeffsEj"
  }
  mangled_function_name: "_ZN7android8hardware5media3omx4V1_0orENS3_12ColorAspects12MatrixCoeffsEj"
  source_file: "/data/aosp/out/soong/.intermediates/hardware/interfaces/media/omx/1.0/android.hardware.media.omx@1.0_genc++_headers/gen/android/hardware/media/omx/1.0/types.h"
  parameters {
    basic_abi {
      type_abi {
        name: "const android::hardware::media::omx::V1_0::ColorAspects::MatrixCoeffs"
      }
      name: "lhs"
      access: public_access
      linker_set_key: "false"
    }
    default_arg: false
  }
  parameters {
    basic_abi {
      type_abi {
        name: "const unsigned int"
        size: 4
        alignment: 4
      }
      name: "rhs"
      access: public_access
      linker_set_key: "false"
    }
    default_arg: false
  }
}
functions {
  basic_abi {
    type_abi {
      name: "unsigned int"
      size: 4
      alignment: 4
    }
    name: "android::hardware::media::omx::V1_0::operator&"
    access: public_access
    linker_set_key: "_ZN7android8hardware5media3omx4V1_0anENS3_12ColorAspects12MatrixCoeffsES5_"
  }
  mangled_function_name: "_ZN7android8hardware5media3omx4V1_0anENS3_12ColorAspects12MatrixCoeffsES5_"
  source_file: "/data/aosp/out/soong/.intermediates/hardware/interfaces/media/omx/1.0/android.hardware.media.omx@1.0_genc++_headers/gen/android/hardware/media/omx/1.0/types.h"
  parameters {
    basic_abi {
      type_abi {
        name: "const android::hardware::media::omx::V1_0::ColorAspects::MatrixCoeffs"
      }
      name: "lhs"
      access: public_access
      linker_set_key: "false"
    }
    default_arg: false
  }
  parameters {
    basic_abi {
      type_abi {
        name: "const android::hardware::media::omx::V1_0::ColorAspects::MatrixCoeffs"
      }
      name: "rhs"
      access: public_access
      linker_set_key: "false"
    }
    default_arg: false
  }
}
functions {
  basic_abi {
    type_abi {
      name: "unsigned int"
      size: 4
      alignment: 4
    }
    name: "android::hardware::media::omx::V1_0::operator&"
    access: public_access
    linker_set_key: "_ZN7android8hardware5media3omx4V1_0anEjNS3_12ColorAspects12MatrixCoeffsE"
  }
  mangled_function_name: "_ZN7android8hardware5media3omx4V1_0anEjNS3_12ColorAspects12MatrixCoeffsE"
  source_file: "/data/aosp/out/soong/.intermediates/hardware/interfaces/media/omx/1.0/android.hardware.media.omx@1.0_genc++_headers/gen/android/hardware/media/omx/1.0/types.h"
  parameters {
    basic_abi {
      type_abi {
        name: "const unsigned int"
        size: 4
        alignment: 4
      }
      name: "lhs"
      access: public_access
      linker_set_key: "false"
    }
    default_arg: false
  }
  parameters {
    basic_abi {
      type_abi {
        name: "const android::hardware::media::omx::V1_0::ColorAspects::MatrixCoeffs"
      }
      name: "rhs"
      access: public_access
      linker_set_key: "false"
    }
    default_arg: false
  }
}
functions {
  basic_abi {
    type_abi {
      name: "unsigned int"
      size: 4
      alignment: 4
    }
    name: "android::hardware::media::omx::V1_0::operator&"
    access: public_access
    linker_set_key: "_ZN7android8hardware5media3omx4V1_0anENS3_12ColorAspects12MatrixCoeffsEj"
  }
  mangled_function_name: "_ZN7android8hardware5media3omx4V1_0anENS3_12ColorAspects12MatrixCoeffsEj"
  source_file: "/data/aosp/out/soong/.intermediates/hardware/interfaces/media/omx/1.0/android.hardware.media.omx@1.0_genc++_headers/gen/android/hardware/media/omx/1.0/types.h"
  parameters {
    basic_abi {
      type_abi {
        name: "const android::hardware::media::omx::V1_0::ColorAspects::MatrixCoeffs"
      }
      name: "lhs"
      access: public_access
      linker_set_key: "false"
    }
    default_arg: false
  }
  parameters {
    basic_abi {
      type_abi {
        name: "const unsigned int"
        size: 4
        alignment: 4
      }
      name: "rhs"
      access: public_access
      linker_set_key: "false"
    }
    default_arg: false
  }
}
functions {
  basic_abi {
    type_abi {
      name: "unsigned int &"
    }
    name: "android::hardware::media::omx::V1_0::operator|="
    access: public_access
    linker_set_key: "_ZN7android8hardware5media3omx4V1_0oRERjNS3_12ColorAspects12MatrixCoeffsE"
  }
  mangled_function_name: "_ZN7android8hardware5media3omx4V1_0oRERjNS3_12ColorAspects12MatrixCoeffsE"
  source_file: "/data/aosp/out/soong/.intermediates/hardware/interfaces/media/omx/1.0/android.hardware.media.omx@1.0_genc++_headers/gen/android/hardware/media/omx/1.0/types.h"
  parameters {
    basic_abi {
      type_abi {
        name: "unsigned int &"
      }
      name: "v"
      access: public_access
      linker_set_key: "false"
    }
    default_arg: false
  }
  parameters {
    basic_abi {
      type_abi {
        name: "const android::hardware::media::omx::V1_0::ColorAspects::MatrixCoeffs"
      }
      name: "e"
      access: public_access
      linker_set_key: "false"
    }
    default_arg: false
  }
}
functions {
  basic_abi {
    type_abi {
      name: "unsigned int &"
    }
    name: "android::hardware::media::omx::V1_0::operator&="
    access: public_access
    linker_set_key: "_ZN7android8hardware5media3omx4V1_0aNERjNS3_12ColorAspects12MatrixCoeffsE"
  }
  mangled_function_name: "_ZN7android8hardware5media3omx4V1_0aNERjNS3_12ColorAspects12MatrixCoeffsE"
  source_file: "/data/aosp/out/soong/.intermediates/hardware/interfaces/media/omx/1.0/android.hardware.media.omx@1.0_genc++_headers/gen/android/hardware/media/omx/1.0/types.h"
  parameters {
    basic_abi {
      type_abi {
        name: "unsigned int &"
      }
      name: "v"
      access: public_access
      linker_set_key: "false"
    }
    default_arg: false
  }
  parameters {
    basic_abi {
      type_abi {
        name: "const android::hardware::media::omx::V1_0::ColorAspects::MatrixCoeffs"
      }
      name: "e"
      access: public_access
      linker_set_key: "false"
    }
    default_arg: false
  }
}
functions {
  basic_abi {
    type_abi {
      name: "std::basic_string<char, std::char_traits<char>, std::allocator<char> >"
    }
    name: "android::hardware::media::omx::V1_0::toString"
    access: public_access
    linker_set_key: "_ZN7android8hardware5media3omx4V1_08toStringINS3_12ColorAspects12MatrixCoeffsEEENSt3__112basic_stringIcNS7_11char_traitsIcEENS7_9allocatorIcEEEEj"
  }
  mangled_function_name: "_ZN7android8hardware5media3omx4V1_08toStringINS3_12ColorAspects12MatrixCoeffsEEENSt3__112basic_stringIcNS7_11char_traitsIcEENS7_9allocatorIcEEEEj"
  source_file: "/data/aosp/out/soong/.intermediates/hardware/interfaces/media/omx/1.0/android.hardware.media.omx@1.0_genc++_headers/gen/android/hardware/media/omx/1.0/types.h"
  parameters {
    basic_abi {
      type_abi {
        name: "unsigned int"
        size: 4
        alignment: 4
      }
      name: "o"
      access: public_access
      linker_set_key: "false"
    }
    default_arg: false
  }
  template_info {
    elements {
      basic_abi {
        type_abi {
          name: "android::hardware::media::omx::V1_0::ColorAspects::MatrixCoeffs"
        }
        linker_set_key: "android::hardware::media::omx::V1_0::ColorAspects::MatrixCoeffs"
      }
    }
  }
}
functions {
  basic_abi {
    type_abi {
      name: "std::basic_string<char, std::char_traits<char>, std::allocator<char> >"
    }
    name: "android::hardware::media::omx::V1_0::toString"
    access: public_access
    linker_set_key: "_ZN7android8hardware5media3omx4V1_08toStringENS3_12ColorAspects12MatrixCoeffsE"
  }
  mangled_function_name: "_ZN7android8hardware5media3omx4V1_08toStringENS3_12ColorAspects12MatrixCoeffsE"
  source_file: "/data/aosp/out/soong/.intermediates/hardware/interfaces/media/omx/1.0/android.hardware.media.omx@1.0_genc++_headers/gen/android/hardware/media/omx/1.0/types.h"
  parameters {
    basic_abi {
      type_abi {
        name: "android::hardware::media::omx::V1_0::ColorAspects::MatrixCoeffs"
      }
      name: "o"
      access: public_access
      linker_set_key: "false"
    }
    default_arg: false
  }
}
functions {
  basic_abi {
    type_abi {
      name: "std::basic_string<char, std::char_traits<char>, std::allocator<char> >"
    }
    name: "android::hardware::media::omx::V1_0::toString"
    access: public_access
    linker_set_key: "_ZN7android8hardware5media3omx4V1_08toStringERKNS3_12ColorAspectsE"
  }
  mangled_function_name: "_ZN7android8hardware5media3omx4V1_08toStringERKNS3_12ColorAspectsE"
  source_file: "/data/aosp/out/soong/.intermediates/hardware/interfaces/media/omx/1.0/android.hardware.media.omx@1.0_genc++_headers/gen/android/hardware/media/omx/1.0/types.h"
  parameters {
    basic_abi {
      type_abi {
        name: "const android::hardware::media::omx::V1_0::ColorAspects &"
      }
      name: ""
      access: public_access
      linker_set_key: "false"
    }
    default_arg: false
  }
}
functions {
  basic_abi {
    type_abi {
      name: "bool"
      size: 1
      alignment: 1
    }
    name: "android::hardware::media::omx::V1_0::operator=="
    access: public_access
    linker_set_key: "_ZN7android8hardware5media3omx4V1_0eqERKNS3_12ColorAspectsES6_"
  }
  mangled_function_name: "_ZN7android8hardware5media3omx4V1_0eqERKNS3_12ColorAspectsES6_"
  source_file: "/data/aosp/out/soong/.intermediates/hardware/interfaces/media/omx/1.0/android.hardware.media.omx@1.0_genc++_headers/gen/android/hardware/media/omx/1.0/types.h"
  parameters {
    basic_abi {
      type_abi {
        name: "const android::hardware::media::omx::V1_0::ColorAspects &"
      }
      name: ""
      access: public_access
      linker_set_key: "false"
    }
    default_arg: false
  }
  parameters {
    basic_abi {
      type_abi {
        name: "const android::hardware::media::omx::V1_0::ColorAspects &"
      }
      name: ""
      access: public_access
      linker_set_key: "false"
    }
    default_arg: false
  }
}
functions {
  basic_abi {
    type_abi {
      name: "bool"
      size: 1
      alignment: 1
    }
    name: "android::hardware::media::omx::V1_0::operator!="
    access: public_access
    linker_set_key: "_ZN7android8hardware5media3omx4V1_0neERKNS3_12ColorAspectsES6_"
  }
  mangled_function_name: "_ZN7android8hardware5media3omx4V1_0neERKNS3_12ColorAspectsES6_"
  source_file: "/data/aosp/out/soong/.intermediates/hardware/interfaces/media/omx/1.0/android.hardware.media.omx@1.0_genc++_headers/gen/android/hardware/media/omx/1.0/types.h"
  parameters {
    basic_abi {
      type_abi {
        name: "const android::hardware::media::omx::V1_0::ColorAspects &"
      }
      name: ""
      access: public_access
      linker_set_key: "false"
    }
    default_arg: false
  }
  parameters {
    basic_abi {
      type_abi {
        name: "const android::hardware::media::omx::V1_0::ColorAspects &"
      }
      name: ""
      access: public_access
      linker_set_key: "false"
    }
    default_arg: false
  }
}
functions {
  basic_abi {
    type_abi {
      name: "bool"
      size: 1
      alignment: 1
    }
    name: "android::hardware::media::omx::V1_0::IOmxBufferSource::isRemote"
    access: public_access
    linker_set_key: "_ZNK7android8hardware5media3omx4V1_016IOmxBufferSource8isRemoteEv"
  }
  mangled_function_name: "_ZNK7android8hardware5media3omx4V1_016IOmxBufferSource8isRemoteEv"
  source_file: "/data/aosp/out/soong/.intermediates/hardware/interfaces/media/omx/1.0/android.hardware.media.omx@1.0_genc++_headers/gen/android/hardware/media/omx/1.0/IOmxBufferSource.h"
}
functions {
  basic_abi {
    type_abi {
      name: "android::hardware::Return<void>"
    }
    name: "android::hardware::media::omx::V1_0::IOmxBufferSource::onOmxExecuting"
    access: public_access
    linker_set_key: "_ZN7android8hardware5media3omx4V1_016IOmxBufferSource14onOmxExecutingEv"
  }
  mangled_function_name: "_ZN7android8hardware5media3omx4V1_016IOmxBufferSource14onOmxExecutingEv"
  source_file: "/data/aosp/out/soong/.intermediates/hardware/interfaces/media/omx/1.0/android.hardware.media.omx@1.0_genc++_headers/gen/android/hardware/media/omx/1.0/IOmxBufferSource.h"
}
functions {
  basic_abi {
    type_abi {
      name: "android::hardware::Return<void>"
    }
    name: "android::hardware::media::omx::V1_0::IOmxBufferSource::onOmxIdle"
    access: public_access
    linker_set_key: "_ZN7android8hardware5media3omx4V1_016IOmxBufferSource9onOmxIdleEv"
  }
  mangled_function_name: "_ZN7android8hardware5media3omx4V1_016IOmxBufferSource9onOmxIdleEv"
  source_file: "/data/aosp/out/soong/.intermediates/hardware/interfaces/media/omx/1.0/android.hardware.media.omx@1.0_genc++_headers/gen/android/hardware/media/omx/1.0/IOmxBufferSource.h"
}
functions {
  basic_abi {
    type_abi {
      name: "android::hardware::Return<void>"
    }
    name: "android::hardware::media::omx::V1_0::IOmxBufferSource::onOmxLoaded"
    access: public_access
    linker_set_key: "_ZN7android8hardware5media3omx4V1_016IOmxBufferSource11onOmxLoadedEv"
  }
  mangled_function_name: "_ZN7android8hardware5media3omx4V1_016IOmxBufferSource11onOmxLoadedEv"
  source_file: "/data/aosp/out/soong/.intermediates/hardware/interfaces/media/omx/1.0/android.hardware.media.omx@1.0_genc++_headers/gen/android/hardware/media/omx/1.0/IOmxBufferSource.h"
}
functions {
  basic_abi {
    type_abi {
      name: "android::hardware::Return<void>"
    }
    name: "android::hardware::media::omx::V1_0::IOmxBufferSource::onInputBufferAdded"
    access: public_access
    linker_set_key: "_ZN7android8hardware5media3omx4V1_016IOmxBufferSource18onInputBufferAddedEj"
  }
  mangled_function_name: "_ZN7android8hardware5media3omx4V1_016IOmxBufferSource18onInputBufferAddedEj"
  source_file: "/data/aosp/out/soong/.intermediates/hardware/interfaces/media/omx/1.0/android.hardware.media.omx@1.0_genc++_headers/gen/android/hardware/media/omx/1.0/IOmxBufferSource.h"
  parameters {
    basic_abi {
      type_abi {
        name: "unsigned int"
        size: 4
        alignment: 4
      }
      name: "buffer"
      access: public_access
      linker_set_key: "false"
    }
    default_arg: false
  }
}
functions {
  basic_abi {
    type_abi {
      name: "android::hardware::Return<void>"
    }
    name: "android::hardware::media::omx::V1_0::IOmxBufferSource::onInputBufferEmptied"
    access: public_access
    linker_set_key: "_ZN7android8hardware5media3omx4V1_016IOmxBufferSource20onInputBufferEmptiedEjRKNS0_11hidl_handleE"
  }
  mangled_function_name: "_ZN7android8hardware5media3omx4V1_016IOmxBufferSource20onInputBufferEmptiedEjRKNS0_11hidl_handleE"
  source_file: "/data/aosp/out/soong/.intermediates/hardware/interfaces/media/omx/1.0/android.hardware.media.omx@1.0_genc++_headers/gen/android/hardware/media/omx/1.0/IOmxBufferSource.h"
  parameters {
    basic_abi {
      type_abi {
        name: "unsigned int"
        size: 4
        alignment: 4
      }
      name: "buffer"
      access: public_access
      linker_set_key: "false"
    }
    default_arg: false
  }
  parameters {
    basic_abi {
      type_abi {
        name: "const android::hardware::hidl_handle &"
      }
      name: "fence"
      access: public_access
      linker_set_key: "false"
    }
    default_arg: false
  }
}
functions {
  basic_abi {
    type_abi {
      name: "android::hardware::Return<void>"
    }
    name: "android::hardware::media::omx::V1_0::IOmxBufferSource::interfaceChain"
    access: public_access
    linker_set_key: "_ZN7android8hardware5media3omx4V1_016IOmxBufferSource14interfaceChainENSt3__18functionIFvRKNS0_8hidl_vecINS0_11hidl_stringEEEEEE"
  }
  mangled_function_name: "_ZN7android8hardware5media3omx4V1_016IOmxBufferSource14interfaceChainENSt3__18functionIFvRKNS0_8hidl_vecINS0_11hidl_stringEEEEEE"
  source_file: "/data/aosp/out/soong/.intermediates/hardware/interfaces/media/omx/1.0/android.hardware.media.omx@1.0_genc++_headers/gen/android/hardware/media/omx/1.0/IOmxBufferSource.h"
  parameters {
    basic_abi {
      type_abi {
        name: "std::function<void (const hidl_vec<hidl_string> &)>"
      }
      name: "_hidl_cb"
      access: public_access
      linker_set_key: "false"
    }
    default_arg: false
  }
}
functions {
  basic_abi {
    type_abi {
      name: "android::hardware::Return<void>"
    }
    name: "android::hardware::media::omx::V1_0::IOmxBufferSource::debug"
    access: public_access
    linker_set_key: "_ZN7android8hardware5media3omx4V1_016IOmxBufferSource5debugERKNS0_11hidl_handleERKNS0_8hidl_vecINS0_11hidl_stringEEE"
  }
  mangled_function_name: "_ZN7android8hardware5media3omx4V1_016IOmxBufferSource5debugERKNS0_11hidl_handleERKNS0_8hidl_vecINS0_11hidl_stringEEE"
  source_file: "/data/aosp/out/soong/.intermediates/hardware/interfaces/media/omx/1.0/android.hardware.media.omx@1.0_genc++_headers/gen/android/hardware/media/omx/1.0/IOmxBufferSource.h"
  parameters {
    basic_abi {
      type_abi {
        name: "const android::hardware::hidl_handle &"
      }
      name: "fd"
      access: public_access
      linker_set_key: "false"
    }
    default_arg: false
  }
  parameters {
    basic_abi {
      type_abi {
        name: "const android::hardware::hidl_vec<android::hardware::hidl_string> &"
      }
      name: "options"
      access: public_access
      linker_set_key: "false"
    }
    default_arg: false
  }
}
functions {
  basic_abi {
    type_abi {
      name: "android::hardware::Return<void>"
    }
    name: "android::hardware::media::omx::V1_0::IOmxBufferSource::interfaceDescriptor"
    access: public_access
    linker_set_key: "_ZN7android8hardware5media3omx4V1_016IOmxBufferSource19interfaceDescriptorENSt3__18functionIFvRKNS0_11hidl_stringEEEE"
  }
  mangled_function_name: "_ZN7android8hardware5media3omx4V1_016IOmxBufferSource19interfaceDescriptorENSt3__18functionIFvRKNS0_11hidl_stringEEEE"
  source_file: "/data/aosp/out/soong/.intermediates/hardware/interfaces/media/omx/1.0/android.hardware.media.omx@1.0_genc++_headers/gen/android/hardware/media/omx/1.0/IOmxBufferSource.h"
  parameters {
    basic_abi {
      type_abi {
        name: "std::function<void (const hidl_string &)>"
      }
      name: "_hidl_cb"
      access: public_access
      linker_set_key: "false"
    }
    default_arg: false
  }
}
functions {
  basic_abi {
    type_abi {
      name: "android::hardware::Return<void>"
    }
    name: "android::hardware::media::omx::V1_0::IOmxBufferSource::getHashChain"
    access: public_access
    linker_set_key: "_ZN7android8hardware5media3omx4V1_016IOmxBufferSource12getHashChainENSt3__18functionIFvRKNS0_8hidl_vecINS0_10hidl_arrayIhLj32EJEEEEEEEE"
  }
  mangled_function_name: "_ZN7android8hardware5media3omx4V1_016IOmxBufferSource12getHashChainENSt3__18functionIFvRKNS0_8hidl_vecINS0_10hidl_arrayIhLj32EJEEEEEEEE"
  source_file: "/data/aosp/out/soong/.intermediates/hardware/interfaces/media/omx/1.0/android.hardware.media.omx@1.0_genc++_headers/gen/android/hardware/media/omx/1.0/IOmxBufferSource.h"
  parameters {
    basic_abi {
      type_abi {
        name: "std::function<void (const hidl_vec<hidl_array<unsigned char, 32> > &)>"
      }
      name: "_hidl_cb"
      access: public_access
      linker_set_key: "false"
    }
    default_arg: false
  }
}
functions {
  basic_abi {
    type_abi {
      name: "android::hardware::Return<void>"
    }
    name: "android::hardware::media::omx::V1_0::IOmxBufferSource::setHALInstrumentation"
    access: public_access
    linker_set_key: "_ZN7android8hardware5media3omx4V1_016IOmxBufferSource21setHALInstrumentationEv"
  }
  mangled_function_name: "_ZN7android8hardware5media3omx4V1_016IOmxBufferSource21setHALInstrumentationEv"
  source_file: "/data/aosp/out/soong/.intermediates/hardware/interfaces/media/omx/1.0/android.hardware.media.omx@1.0_genc++_headers/gen/android/hardware/media/omx/1.0/IOmxBufferSource.h"
}
functions {
  basic_abi {
    type_abi {
      name: "android::hardware::Return<bool>"
    }
    name: "android::hardware::media::omx::V1_0::IOmxBufferSource::linkToDeath"
    access: public_access
    linker_set_key: "_ZN7android8hardware5media3omx4V1_016IOmxBufferSource11linkToDeathERKNS_2spINS0_20hidl_death_recipientEEEy"
  }
  mangled_function_name: "_ZN7android8hardware5media3omx4V1_016IOmxBufferSource11linkToDeathERKNS_2spINS0_20hidl_death_recipientEEEy"
  source_file: "/data/aosp/out/soong/.intermediates/hardware/interfaces/media/omx/1.0/android.hardware.media.omx@1.0_genc++_headers/gen/android/hardware/media/omx/1.0/IOmxBufferSource.h"
  parameters {
    basic_abi {
      type_abi {
        name: "const android::sp<android::hardware::hidl_death_recipient> &"
      }
      name: "recipient"
      access: public_access
      linker_set_key: "false"
    }
    default_arg: false
  }
  parameters {
    basic_abi {
      type_abi {
        name: "unsigned long long"
        size: 8
        alignment: 8
      }
      name: "cookie"
      access: public_access
      linker_set_key: "false"
    }
    default_arg: false
  }
}
functions {
  basic_abi {
    type_abi {
      name: "android::hardware::Return<void>"
    }
    name: "android::hardware::media::omx::V1_0::IOmxBufferSource::ping"
    access: public_access
    linker_set_key: "_ZN7android8hardware5media3omx4V1_016IOmxBufferSource4pingEv"
  }
  mangled_function_name: "_ZN7android8hardware5media3omx4V1_016IOmxBufferSource4pingEv"
  source_file: "/data/aosp/out/soong/.intermediates/hardware/interfaces/media/omx/1.0/android.hardware.media.omx@1.0_genc++_headers/gen/android/hardware/media/omx/1.0/IOmxBufferSource.h"
}
functions {
  basic_abi {
    type_abi {
      name: "android::hardware::Return<void>"
    }
    name: "android::hardware::media::omx::V1_0::IOmxBufferSource::getDebugInfo"
    access: public_access
    linker_set_key: "_ZN7android8hardware5media3omx4V1_016IOmxBufferSource12getDebugInfoENSt3__18functionIFvRKNS_4hidl4base4V1_09DebugInfoEEEE"
  }
  mangled_function_name: "_ZN7android8hardware5media3omx4V1_016IOmxBufferSource12getDebugInfoENSt3__18functionIFvRKNS_4hidl4base4V1_09DebugInfoEEEE"
  source_file: "/data/aosp/out/soong/.intermediates/hardware/interfaces/media/omx/1.0/android.hardware.media.omx@1.0_genc++_headers/gen/android/hardware/media/omx/1.0/IOmxBufferSource.h"
  parameters {
    basic_abi {
      type_abi {
        name: "std::function<void (const DebugInfo &)>"
      }
      name: "_hidl_cb"
      access: public_access
      linker_set_key: "false"
    }
    default_arg: false
  }
}
functions {
  basic_abi {
    type_abi {
      name: "android::hardware::Return<void>"
    }
    name: "android::hardware::media::omx::V1_0::IOmxBufferSource::notifySyspropsChanged"
    access: public_access
    linker_set_key: "_ZN7android8hardware5media3omx4V1_016IOmxBufferSource21notifySyspropsChangedEv"
  }
  mangled_function_name: "_ZN7android8hardware5media3omx4V1_016IOmxBufferSource21notifySyspropsChangedEv"
  source_file: "/data/aosp/out/soong/.intermediates/hardware/interfaces/media/omx/1.0/android.hardware.media.omx@1.0_genc++_headers/gen/android/hardware/media/omx/1.0/IOmxBufferSource.h"
}
functions {
  basic_abi {
    type_abi {
      name: "android::hardware::Return<bool>"
    }
    name: "android::hardware::media::omx::V1_0::IOmxBufferSource::unlinkToDeath"
    access: public_access
    linker_set_key: "_ZN7android8hardware5media3omx4V1_016IOmxBufferSource13unlinkToDeathERKNS_2spINS0_20hidl_death_recipientEEE"
  }
  mangled_function_name: "_ZN7android8hardware5media3omx4V1_016IOmxBufferSource13unlinkToDeathERKNS_2spINS0_20hidl_death_recipientEEE"
  source_file: "/data/aosp/out/soong/.intermediates/hardware/interfaces/media/omx/1.0/android.hardware.media.omx@1.0_genc++_headers/gen/android/hardware/media/omx/1.0/IOmxBufferSource.h"
  parameters {
    basic_abi {
      type_abi {
        name: "const android::sp<android::hardware::hidl_death_recipient> &"
      }
      name: "recipient"
      access: public_access
      linker_set_key: "false"
    }
    default_arg: false
  }
}
functions {
  basic_abi {
    type_abi {
      name: "android::hardware::Return<android::sp<android::hardware::media::omx::V1_0::IOmxBufferSource> >"
    }
    name: "android::hardware::media::omx::V1_0::IOmxBufferSource::castFrom"
    access: public_access
    linker_set_key: "_ZN7android8hardware5media3omx4V1_016IOmxBufferSource8castFromERKNS_2spIS4_EEb"
  }
  mangled_function_name: "_ZN7android8hardware5media3omx4V1_016IOmxBufferSource8castFromERKNS_2spIS4_EEb"
  source_file: "/data/aosp/out/soong/.intermediates/hardware/interfaces/media/omx/1.0/android.hardware.media.omx@1.0_genc++_headers/gen/android/hardware/media/omx/1.0/IOmxBufferSource.h"
  parameters {
    basic_abi {
      type_abi {
        name: "const android::sp<android::hardware::media::omx::V1_0::IOmxBufferSource> &"
      }
      name: "parent"
      access: public_access
      linker_set_key: "false"
    }
    default_arg: false
  }
  parameters {
    basic_abi {
      type_abi {
        name: "bool"
        size: 1
        alignment: 1
      }
      name: "emitError"
      access: public_access
      linker_set_key: "true"
    }
    default_arg: true
  }
}
functions {
  basic_abi {
    type_abi {
      name: "android::hardware::Return<android::sp<android::hardware::media::omx::V1_0::IOmxBufferSource> >"
    }
    name: "android::hardware::media::omx::V1_0::IOmxBufferSource::castFrom"
    access: public_access
    linker_set_key: "_ZN7android8hardware5media3omx4V1_016IOmxBufferSource8castFromERKNS_2spINS_4hidl4base4V1_05IBaseEEEb"
  }
  mangled_function_name: "_ZN7android8hardware5media3omx4V1_016IOmxBufferSource8castFromERKNS_2spINS_4hidl4base4V1_05IBaseEEEb"
  source_file: "/data/aosp/out/soong/.intermediates/hardware/interfaces/media/omx/1.0/android.hardware.media.omx@1.0_genc++_headers/gen/android/hardware/media/omx/1.0/IOmxBufferSource.h"
  parameters {
    basic_abi {
      type_abi {
        name: "const android::sp<android::hidl::base::V1_0::IBase> &"
      }
      name: "parent"
      access: public_access
      linker_set_key: "false"
    }
    default_arg: false
  }
  parameters {
    basic_abi {
      type_abi {
        name: "bool"
        size: 1
        alignment: 1
      }
      name: "emitError"
      access: public_access
      linker_set_key: "true"
    }
    default_arg: true
  }
}
functions {
  basic_abi {
    type_abi {
      name: "android::sp<android::hardware::media::omx::V1_0::IOmxBufferSource>"
    }
    name: "android::hardware::media::omx::V1_0::IOmxBufferSource::tryGetService"
    access: public_access
    linker_set_key: "_ZN7android8hardware5media3omx4V1_016IOmxBufferSource13tryGetServiceERKNSt3__112basic_stringIcNS5_11char_traitsIcEENS5_9allocatorIcEEEEb"
  }
  mangled_function_name: "_ZN7android8hardware5media3omx4V1_016IOmxBufferSource13tryGetServiceERKNSt3__112basic_stringIcNS5_11char_traitsIcEENS5_9allocatorIcEEEEb"
  source_file: "/data/aosp/out/soong/.intermediates/hardware/interfaces/media/omx/1.0/android.hardware.media.omx@1.0_genc++_headers/gen/android/hardware/media/omx/1.0/IOmxBufferSource.h"
  parameters {
    basic_abi {
      type_abi {
        name: "const std::basic_string<char, std::char_traits<char>, std::allocator<char> > &"
      }
      name: "serviceName"
      access: public_access
      linker_set_key: "true"
    }
    default_arg: true
  }
  parameters {
    basic_abi {
      type_abi {
        name: "bool"
        size: 1
        alignment: 1
      }
      name: "getStub"
      access: public_access
      linker_set_key: "true"
    }
    default_arg: true
  }
}
functions {
  basic_abi {
    type_abi {
      name: "android::sp<android::hardware::media::omx::V1_0::IOmxBufferSource>"
    }
    name: "android::hardware::media::omx::V1_0::IOmxBufferSource::tryGetService"
    access: public_access
    linker_set_key: "_ZN7android8hardware5media3omx4V1_016IOmxBufferSource13tryGetServiceEPKcb"
  }
  mangled_function_name: "_ZN7android8hardware5media3omx4V1_016IOmxBufferSource13tryGetServiceEPKcb"
  source_file: "/data/aosp/out/soong/.intermediates/hardware/interfaces/media/omx/1.0/android.hardware.media.omx@1.0_genc++_headers/gen/android/hardware/media/omx/1.0/IOmxBufferSource.h"
  parameters {
    basic_abi {
      type_abi {
        name: "const char *"
        size: 4
        alignment: 4
      }
      name: "serviceName"
      access: public_access
      linker_set_key: "false"
    }
    default_arg: false
  }
  parameters {
    basic_abi {
      type_abi {
        name: "bool"
        size: 1
        alignment: 1
      }
      name: "getStub"
      access: public_access
      linker_set_key: "true"
    }
    default_arg: true
  }
}
functions {
  basic_abi {
    type_abi {
      name: "android::sp<android::hardware::media::omx::V1_0::IOmxBufferSource>"
    }
    name: "android::hardware::media::omx::V1_0::IOmxBufferSource::tryGetService"
    access: public_access
    linker_set_key: "_ZN7android8hardware5media3omx4V1_016IOmxBufferSource13tryGetServiceERKNS0_11hidl_stringEb"
  }
  mangled_function_name: "_ZN7android8hardware5media3omx4V1_016IOmxBufferSource13tryGetServiceERKNS0_11hidl_stringEb"
  source_file: "/data/aosp/out/soong/.intermediates/hardware/interfaces/media/omx/1.0/android.hardware.media.omx@1.0_genc++_headers/gen/android/hardware/media/omx/1.0/IOmxBufferSource.h"
  parameters {
    basic_abi {
      type_abi {
        name: "const android::hardware::hidl_string &"
      }
      name: "serviceName"
      access: public_access
      linker_set_key: "false"
    }
    default_arg: false
  }
  parameters {
    basic_abi {
      type_abi {
        name: "bool"
        size: 1
        alignment: 1
      }
      name: "getStub"
      access: public_access
      linker_set_key: "true"
    }
    default_arg: true
  }
}
functions {
  basic_abi {
    type_abi {
      name: "android::sp<android::hardware::media::omx::V1_0::IOmxBufferSource>"
    }
    name: "android::hardware::media::omx::V1_0::IOmxBufferSource::tryGetService"
    access: public_access
    linker_set_key: "_ZN7android8hardware5media3omx4V1_016IOmxBufferSource13tryGetServiceEb"
  }
  mangled_function_name: "_ZN7android8hardware5media3omx4V1_016IOmxBufferSource13tryGetServiceEb"
  source_file: "/data/aosp/out/soong/.intermediates/hardware/interfaces/media/omx/1.0/android.hardware.media.omx@1.0_genc++_headers/gen/android/hardware/media/omx/1.0/IOmxBufferSource.h"
  parameters {
    basic_abi {
      type_abi {
        name: "bool"
        size: 1
        alignment: 1
      }
      name: "getStub"
      access: public_access
      linker_set_key: "false"
    }
    default_arg: false
  }
}
functions {
  basic_abi {
    type_abi {
      name: "android::sp<android::hardware::media::omx::V1_0::IOmxBufferSource>"
    }
    name: "android::hardware::media::omx::V1_0::IOmxBufferSource::getService"
    access: public_access
    linker_set_key: "_ZN7android8hardware5media3omx4V1_016IOmxBufferSource10getServiceERKNSt3__112basic_stringIcNS5_11char_traitsIcEENS5_9allocatorIcEEEEb"
  }
  mangled_function_name: "_ZN7android8hardware5media3omx4V1_016IOmxBufferSource10getServiceERKNSt3__112basic_stringIcNS5_11char_traitsIcEENS5_9allocatorIcEEEEb"
  source_file: "/data/aosp/out/soong/.intermediates/hardware/interfaces/media/omx/1.0/android.hardware.media.omx@1.0_genc++_headers/gen/android/hardware/media/omx/1.0/IOmxBufferSource.h"
  parameters {
    basic_abi {
      type_abi {
        name: "const std::basic_string<char, std::char_traits<char>, std::allocator<char> > &"
      }
      name: "serviceName"
      access: public_access
      linker_set_key: "true"
    }
    default_arg: true
  }
  parameters {
    basic_abi {
      type_abi {
        name: "bool"
        size: 1
        alignment: 1
      }
      name: "getStub"
      access: public_access
      linker_set_key: "true"
    }
    default_arg: true
  }
}
functions {
  basic_abi {
    type_abi {
      name: "android::sp<android::hardware::media::omx::V1_0::IOmxBufferSource>"
    }
    name: "android::hardware::media::omx::V1_0::IOmxBufferSource::getService"
    access: public_access
    linker_set_key: "_ZN7android8hardware5media3omx4V1_016IOmxBufferSource10getServiceEPKcb"
  }
  mangled_function_name: "_ZN7android8hardware5media3omx4V1_016IOmxBufferSource10getServiceEPKcb"
  source_file: "/data/aosp/out/soong/.intermediates/hardware/interfaces/media/omx/1.0/android.hardware.media.omx@1.0_genc++_headers/gen/android/hardware/media/omx/1.0/IOmxBufferSource.h"
  parameters {
    basic_abi {
      type_abi {
        name: "const char *"
        size: 4
        alignment: 4
      }
      name: "serviceName"
      access: public_access
      linker_set_key: "false"
    }
    default_arg: false
  }
  parameters {
    basic_abi {
      type_abi {
        name: "bool"
        size: 1
        alignment: 1
      }
      name: "getStub"
      access: public_access
      linker_set_key: "true"
    }
    default_arg: true
  }
}
functions {
  basic_abi {
    type_abi {
      name: "android::sp<android::hardware::media::omx::V1_0::IOmxBufferSource>"
    }
    name: "android::hardware::media::omx::V1_0::IOmxBufferSource::getService"
    access: public_access
    linker_set_key: "_ZN7android8hardware5media3omx4V1_016IOmxBufferSource10getServiceERKNS0_11hidl_stringEb"
  }
  mangled_function_name: "_ZN7android8hardware5media3omx4V1_016IOmxBufferSource10getServiceERKNS0_11hidl_stringEb"
  source_file: "/data/aosp/out/soong/.intermediates/hardware/interfaces/media/omx/1.0/android.hardware.media.omx@1.0_genc++_headers/gen/android/hardware/media/omx/1.0/IOmxBufferSource.h"
  parameters {
    basic_abi {
      type_abi {
        name: "const android::hardware::hidl_string &"
      }
      name: "serviceName"
      access: public_access
      linker_set_key: "false"
    }
    default_arg: false
  }
  parameters {
    basic_abi {
      type_abi {
        name: "bool"
        size: 1
        alignment: 1
      }
      name: "getStub"
      access: public_access
      linker_set_key: "true"
    }
    default_arg: true
  }
}
functions {
  basic_abi {
    type_abi {
      name: "android::sp<android::hardware::media::omx::V1_0::IOmxBufferSource>"
    }
    name: "android::hardware::media::omx::V1_0::IOmxBufferSource::getService"
    access: public_access
    linker_set_key: "_ZN7android8hardware5media3omx4V1_016IOmxBufferSource10getServiceEb"
  }
  mangled_function_name: "_ZN7android8hardware5media3omx4V1_016IOmxBufferSource10getServiceEb"
  source_file: "/data/aosp/out/soong/.intermediates/hardware/interfaces/media/omx/1.0/android.hardware.media.omx@1.0_genc++_headers/gen/android/hardware/media/omx/1.0/IOmxBufferSource.h"
  parameters {
    basic_abi {
      type_abi {
        name: "bool"
        size: 1
        alignment: 1
      }
      name: "getStub"
      access: public_access
      linker_set_key: "false"
    }
    default_arg: false
  }
}
functions {
  basic_abi {
    type_abi {
      name: "int"
      size: 4
      alignment: 4
    }
    name: "android::hardware::media::omx::V1_0::IOmxBufferSource::registerAsService"
    access: public_access
    linker_set_key: "_ZN7android8hardware5media3omx4V1_016IOmxBufferSource17registerAsServiceERKNSt3__112basic_stringIcNS5_11char_traitsIcEENS5_9allocatorIcEEEE"
  }
  mangled_function_name: "_ZN7android8hardware5media3omx4V1_016IOmxBufferSource17registerAsServiceERKNSt3__112basic_stringIcNS5_11char_traitsIcEENS5_9allocatorIcEEEE"
  source_file: "/data/aosp/out/soong/.intermediates/hardware/interfaces/media/omx/1.0/android.hardware.media.omx@1.0_genc++_headers/gen/android/hardware/media/omx/1.0/IOmxBufferSource.h"
  parameters {
    basic_abi {
      type_abi {
        name: "const std::basic_string<char, std::char_traits<char>, std::allocator<char> > &"
      }
      name: "serviceName"
      access: public_access
      linker_set_key: "true"
    }
    default_arg: true
  }
}
functions {
  basic_abi {
    type_abi {
      name: "bool"
      size: 1
      alignment: 1
    }
    name: "android::hardware::media::omx::V1_0::IOmxBufferSource::registerForNotifications"
    access: public_access
    linker_set_key: "_ZN7android8hardware5media3omx4V1_016IOmxBufferSource24registerForNotificationsERKNSt3__112basic_stringIcNS5_11char_traitsIcEENS5_9allocatorIcEEEERKNS_2spINS_4hidl7manager4V1_020IServiceNotificationEEE"
  }
  mangled_function_name: "_ZN7android8hardware5media3omx4V1_016IOmxBufferSource24registerForNotificationsERKNSt3__112basic_stringIcNS5_11char_traitsIcEENS5_9allocatorIcEEEERKNS_2spINS_4hidl7manager4V1_020IServiceNotificationEEE"
  source_file: "/data/aosp/out/soong/.intermediates/hardware/interfaces/media/omx/1.0/android.hardware.media.omx@1.0_genc++_headers/gen/android/hardware/media/omx/1.0/IOmxBufferSource.h"
  parameters {
    basic_abi {
      type_abi {
        name: "const std::basic_string<char, std::char_traits<char>, std::allocator<char> > &"
      }
      name: "serviceName"
      access: public_access
      linker_set_key: "false"
    }
    default_arg: false
  }
  parameters {
    basic_abi {
      type_abi {
        name: "const android::sp<android::hidl::manager::V1_0::IServiceNotification> &"
      }
      name: "notification"
      access: public_access
      linker_set_key: "false"
    }
    default_arg: false
  }
}
functions {
  basic_abi {
    type_abi {
      name: "std::basic_string<char, std::char_traits<char>, std::allocator<char> >"
    }
    name: "android::hardware::media::omx::V1_0::toString"
    access: public_access
    linker_set_key: "_ZN7android8hardware5media3omx4V1_08toStringERKNS_2spINS3_16IOmxBufferSourceEEE"
  }
  mangled_function_name: "_ZN7android8hardware5media3omx4V1_08toStringERKNS_2spINS3_16IOmxBufferSourceEEE"
  source_file: "/data/aosp/out/soong/.intermediates/hardware/interfaces/media/omx/1.0/android.hardware.media.omx@1.0_genc++_headers/gen/android/hardware/media/omx/1.0/IOmxBufferSource.h"
  parameters {
    basic_abi {
      type_abi {
        name: "const android::sp<android::hardware::media::omx::V1_0::IOmxBufferSource> &"
      }
      name: ""
      access: public_access
      linker_set_key: "false"
    }
    default_arg: false
  }
}
functions {
  basic_abi {
    type_abi {
      name: "bool"
      size: 1
      alignment: 1
    }
    name: "android::hardware::media::omx::V1_0::IOmxNode::isRemote"
    access: public_access
    linker_set_key: "_ZNK7android8hardware5media3omx4V1_08IOmxNode8isRemoteEv"
  }
  mangled_function_name: "_ZNK7android8hardware5media3omx4V1_08IOmxNode8isRemoteEv"
  source_file: "/data/aosp/out/soong/.intermediates/hardware/interfaces/media/omx/1.0/android.hardware.media.omx@1.0_genc++_headers/gen/android/hardware/media/omx/1.0/IOmxNode.h"
}
functions {
  basic_abi {
    type_abi {
      name: "android::hardware::Return<android::hardware::media::omx::V1_0::Status>"
    }
    name: "android::hardware::media::omx::V1_0::IOmxNode::freeNode"
    access: public_access
    linker_set_key: "_ZN7android8hardware5media3omx4V1_08IOmxNode8freeNodeEv"
  }
  mangled_function_name: "_ZN7android8hardware5media3omx4V1_08IOmxNode8freeNodeEv"
  source_file: "/data/aosp/out/soong/.intermediates/hardware/interfaces/media/omx/1.0/android.hardware.media.omx@1.0_genc++_headers/gen/android/hardware/media/omx/1.0/IOmxNode.h"
}
functions {
  basic_abi {
    type_abi {
      name: "android::hardware::Return<android::hardware::media::omx::V1_0::Status>"
    }
    name: "android::hardware::media::omx::V1_0::IOmxNode::sendCommand"
    access: public_access
    linker_set_key: "_ZN7android8hardware5media3omx4V1_08IOmxNode11sendCommandEji"
  }
  mangled_function_name: "_ZN7android8hardware5media3omx4V1_08IOmxNode11sendCommandEji"
  source_file: "/data/aosp/out/soong/.intermediates/hardware/interfaces/media/omx/1.0/android.hardware.media.omx@1.0_genc++_headers/gen/android/hardware/media/omx/1.0/IOmxNode.h"
  parameters {
    basic_abi {
      type_abi {
        name: "unsigned int"
        size: 4
        alignment: 4
      }
      name: "cmd"
      access: public_access
      linker_set_key: "false"
    }
    default_arg: false
  }
  parameters {
    basic_abi {
      type_abi {
        name: "int"
        size: 4
        alignment: 4
      }
      name: "param"
      access: public_access
      linker_set_key: "false"
    }
    default_arg: false
  }
}
functions {
  basic_abi {
    type_abi {
      name: "android::hardware::Return<void>"
    }
    name: "android::hardware::media::omx::V1_0::IOmxNode::getParameter"
    access: public_access
    linker_set_key: "_ZN7android8hardware5media3omx4V1_08IOmxNode12getParameterEjRKNS0_8hidl_vecIhEENSt3__18functionIFvNS3_6StatusES8_EEE"
  }
  mangled_function_name: "_ZN7android8hardware5media3omx4V1_08IOmxNode12getParameterEjRKNS0_8hidl_vecIhEENSt3__18functionIFvNS3_6StatusES8_EEE"
  source_file: "/data/aosp/out/soong/.intermediates/hardware/interfaces/media/omx/1.0/android.hardware.media.omx@1.0_genc++_headers/gen/android/hardware/media/omx/1.0/IOmxNode.h"
  parameters {
    basic_abi {
      type_abi {
        name: "unsigned int"
        size: 4
        alignment: 4
      }
      name: "index"
      access: public_access
      linker_set_key: "false"
    }
    default_arg: false
  }
  parameters {
    basic_abi {
      type_abi {
        name: "const android::hardware::hidl_vec<unsigned char> &"
      }
      name: "inParams"
      access: public_access
      linker_set_key: "false"
    }
    default_arg: false
  }
  parameters {
    basic_abi {
      type_abi {
        name: "std::function<void (Status, const hidl_vec<unsigned char> &)>"
      }
      name: "_hidl_cb"
      access: public_access
      linker_set_key: "false"
    }
    default_arg: false
  }
}
functions {
  basic_abi {
    type_abi {
      name: "android::hardware::Return<android::hardware::media::omx::V1_0::Status>"
    }
    name: "android::hardware::media::omx::V1_0::IOmxNode::setParameter"
    access: public_access
    linker_set_key: "_ZN7android8hardware5media3omx4V1_08IOmxNode12setParameterEjRKNS0_8hidl_vecIhEE"
  }
  mangled_function_name: "_ZN7android8hardware5media3omx4V1_08IOmxNode12setParameterEjRKNS0_8hidl_vecIhEE"
  source_file: "/data/aosp/out/soong/.intermediates/hardware/interfaces/media/omx/1.0/android.hardware.media.omx@1.0_genc++_headers/gen/android/hardware/media/omx/1.0/IOmxNode.h"
  parameters {
    basic_abi {
      type_abi {
        name: "unsigned int"
        size: 4
        alignment: 4
      }
      name: "index"
      access: public_access
      linker_set_key: "false"
    }
    default_arg: false
  }
  parameters {
    basic_abi {
      type_abi {
        name: "const android::hardware::hidl_vec<unsigned char> &"
      }
      name: "params"
      access: public_access
      linker_set_key: "false"
    }
    default_arg: false
  }
}
functions {
  basic_abi {
    type_abi {
      name: "android::hardware::Return<void>"
    }
    name: "android::hardware::media::omx::V1_0::IOmxNode::getConfig"
    access: public_access
    linker_set_key: "_ZN7android8hardware5media3omx4V1_08IOmxNode9getConfigEjRKNS0_8hidl_vecIhEENSt3__18functionIFvNS3_6StatusES8_EEE"
  }
  mangled_function_name: "_ZN7android8hardware5media3omx4V1_08IOmxNode9getConfigEjRKNS0_8hidl_vecIhEENSt3__18functionIFvNS3_6StatusES8_EEE"
  source_file: "/data/aosp/out/soong/.intermediates/hardware/interfaces/media/omx/1.0/android.hardware.media.omx@1.0_genc++_headers/gen/android/hardware/media/omx/1.0/IOmxNode.h"
  parameters {
    basic_abi {
      type_abi {
        name: "unsigned int"
        size: 4
        alignment: 4
      }
      name: "index"
      access: public_access
      linker_set_key: "false"
    }
    default_arg: false
  }
  parameters {
    basic_abi {
      type_abi {
        name: "const android::hardware::hidl_vec<unsigned char> &"
      }
      name: "inConfig"
      access: public_access
      linker_set_key: "false"
    }
    default_arg: false
  }
  parameters {
    basic_abi {
      type_abi {
        name: "std::function<void (Status, const hidl_vec<unsigned char> &)>"
      }
      name: "_hidl_cb"
      access: public_access
      linker_set_key: "false"
    }
    default_arg: false
  }
}
functions {
  basic_abi {
    type_abi {
      name: "android::hardware::Return<android::hardware::media::omx::V1_0::Status>"
    }
    name: "android::hardware::media::omx::V1_0::IOmxNode::setConfig"
    access: public_access
    linker_set_key: "_ZN7android8hardware5media3omx4V1_08IOmxNode9setConfigEjRKNS0_8hidl_vecIhEE"
  }
  mangled_function_name: "_ZN7android8hardware5media3omx4V1_08IOmxNode9setConfigEjRKNS0_8hidl_vecIhEE"
  source_file: "/data/aosp/out/soong/.intermediates/hardware/interfaces/media/omx/1.0/android.hardware.media.omx@1.0_genc++_headers/gen/android/hardware/media/omx/1.0/IOmxNode.h"
  parameters {
    basic_abi {
      type_abi {
        name: "unsigned int"
        size: 4
        alignment: 4
      }
      name: "index"
      access: public_access
      linker_set_key: "false"
    }
    default_arg: false
  }
  parameters {
    basic_abi {
      type_abi {
        name: "const android::hardware::hidl_vec<unsigned char> &"
      }
      name: "config"
      access: public_access
      linker_set_key: "false"
    }
    default_arg: false
  }
}
functions {
  basic_abi {
    type_abi {
      name: "android::hardware::Return<android::hardware::media::omx::V1_0::Status>"
    }
    name: "android::hardware::media::omx::V1_0::IOmxNode::setPortMode"
    access: public_access
    linker_set_key: "_ZN7android8hardware5media3omx4V1_08IOmxNode11setPortModeEjNS3_8PortModeE"
  }
  mangled_function_name: "_ZN7android8hardware5media3omx4V1_08IOmxNode11setPortModeEjNS3_8PortModeE"
  source_file: "/data/aosp/out/soong/.intermediates/hardware/interfaces/media/omx/1.0/android.hardware.media.omx@1.0_genc++_headers/gen/android/hardware/media/omx/1.0/IOmxNode.h"
  parameters {
    basic_abi {
      type_abi {
        name: "unsigned int"
        size: 4
        alignment: 4
      }
      name: "portIndex"
      access: public_access
      linker_set_key: "false"
    }
    default_arg: false
  }
  parameters {
    basic_abi {
      type_abi {
        name: "android::hardware::media::omx::V1_0::PortMode"
      }
      name: "mode"
      access: public_access
      linker_set_key: "false"
    }
    default_arg: false
  }
}
functions {
  basic_abi {
    type_abi {
      name: "android::hardware::Return<android::hardware::media::omx::V1_0::Status>"
    }
    name: "android::hardware::media::omx::V1_0::IOmxNode::prepareForAdaptivePlayback"
    access: public_access
    linker_set_key: "_ZN7android8hardware5media3omx4V1_08IOmxNode26prepareForAdaptivePlaybackEjbjj"
  }
  mangled_function_name: "_ZN7android8hardware5media3omx4V1_08IOmxNode26prepareForAdaptivePlaybackEjbjj"
  source_file: "/data/aosp/out/soong/.intermediates/hardware/interfaces/media/omx/1.0/android.hardware.media.omx@1.0_genc++_headers/gen/android/hardware/media/omx/1.0/IOmxNode.h"
  parameters {
    basic_abi {
      type_abi {
        name: "unsigned int"
        size: 4
        alignment: 4
      }
      name: "portIndex"
      access: public_access
      linker_set_key: "false"
    }
    default_arg: false
  }
  parameters {
    basic_abi {
      type_abi {
        name: "bool"
        size: 1
        alignment: 1
      }
      name: "enable"
      access: public_access
      linker_set_key: "false"
    }
    default_arg: false
  }
  parameters {
    basic_abi {
      type_abi {
        name: "unsigned int"
        size: 4
        alignment: 4
      }
      name: "maxFrameWidth"
      access: public_access
      linker_set_key: "false"
    }
    default_arg: false
  }
  parameters {
    basic_abi {
      type_abi {
        name: "unsigned int"
        size: 4
        alignment: 4
      }
      name: "maxFrameHeight"
      access: public_access
      linker_set_key: "false"
    }
    default_arg: false
  }
}
functions {
  basic_abi {
    type_abi {
      name: "android::hardware::Return<void>"
    }
    name: "android::hardware::media::omx::V1_0::IOmxNode::configureVideoTunnelMode"
    access: public_access
    linker_set_key: "_ZN7android8hardware5media3omx4V1_08IOmxNode24configureVideoTunnelModeEjbjNSt3__18functionIFvNS3_6StatusERKNS0_11hidl_handleEEEE"
  }
  mangled_function_name: "_ZN7android8hardware5media3omx4V1_08IOmxNode24configureVideoTunnelModeEjbjNSt3__18functionIFvNS3_6StatusERKNS0_11hidl_handleEEEE"
  source_file: "/data/aosp/out/soong/.intermediates/hardware/interfaces/media/omx/1.0/android.hardware.media.omx@1.0_genc++_headers/gen/android/hardware/media/omx/1.0/IOmxNode.h"
  parameters {
    basic_abi {
      type_abi {
        name: "unsigned int"
        size: 4
        alignment: 4
      }
      name: "portIndex"
      access: public_access
      linker_set_key: "false"
    }
    default_arg: false
  }
  parameters {
    basic_abi {
      type_abi {
        name: "bool"
        size: 1
        alignment: 1
      }
      name: "tunneled"
      access: public_access
      linker_set_key: "false"
    }
    default_arg: false
  }
  parameters {
    basic_abi {
      type_abi {
        name: "unsigned int"
        size: 4
        alignment: 4
      }
      name: "audioHwSync"
      access: public_access
      linker_set_key: "false"
    }
    default_arg: false
  }
  parameters {
    basic_abi {
      type_abi {
        name: "std::function<void (Status, const hidl_handle &)>"
      }
      name: "_hidl_cb"
      access: public_access
      linker_set_key: "false"
    }
    default_arg: false
  }
}
functions {
  basic_abi {
    type_abi {
      name: "android::hardware::Return<void>"
    }
    name: "android::hardware::media::omx::V1_0::IOmxNode::getGraphicBufferUsage"
    access: public_access
    linker_set_key: "_ZN7android8hardware5media3omx4V1_08IOmxNode21getGraphicBufferUsageEjNSt3__18functionIFvNS3_6StatusEjEEE"
  }
  mangled_function_name: "_ZN7android8hardware5media3omx4V1_08IOmxNode21getGraphicBufferUsageEjNSt3__18functionIFvNS3_6StatusEjEEE"
  source_file: "/data/aosp/out/soong/.intermediates/hardware/interfaces/media/omx/1.0/android.hardware.media.omx@1.0_genc++_headers/gen/android/hardware/media/omx/1.0/IOmxNode.h"
  parameters {
    basic_abi {
      type_abi {
        name: "unsigned int"
        size: 4
        alignment: 4
      }
      name: "portIndex"
      access: public_access
      linker_set_key: "false"
    }
    default_arg: false
  }
  parameters {
    basic_abi {
      type_abi {
        name: "std::function<void (Status, unsigned int)>"
      }
      name: "_hidl_cb"
      access: public_access
      linker_set_key: "false"
    }
    default_arg: false
  }
}
functions {
  basic_abi {
    type_abi {
      name: "android::hardware::Return<android::hardware::media::omx::V1_0::Status>"
    }
    name: "android::hardware::media::omx::V1_0::IOmxNode::setInputSurface"
    access: public_access
    linker_set_key: "_ZN7android8hardware5media3omx4V1_08IOmxNode15setInputSurfaceERKNS_2spINS3_16IOmxBufferSourceEEE"
  }
  mangled_function_name: "_ZN7android8hardware5media3omx4V1_08IOmxNode15setInputSurfaceERKNS_2spINS3_16IOmxBufferSourceEEE"
  source_file: "/data/aosp/out/soong/.intermediates/hardware/interfaces/media/omx/1.0/android.hardware.media.omx@1.0_genc++_headers/gen/android/hardware/media/omx/1.0/IOmxNode.h"
  parameters {
    basic_abi {
      type_abi {
        name: "const android::sp<android::hardware::media::omx::V1_0::IOmxBufferSource> &"
      }
      name: "bufferSource"
      access: public_access
      linker_set_key: "false"
    }
    default_arg: false
  }
}
functions {
  basic_abi {
    type_abi {
      name: "android::hardware::Return<void>"
    }
    name: "android::hardware::media::omx::V1_0::IOmxNode::allocateSecureBuffer"
    access: public_access
    linker_set_key: "_ZN7android8hardware5media3omx4V1_08IOmxNode20allocateSecureBufferEjyNSt3__18functionIFvNS3_6StatusEjRKNS0_11hidl_handleEEEE"
  }
  mangled_function_name: "_ZN7android8hardware5media3omx4V1_08IOmxNode20allocateSecureBufferEjyNSt3__18functionIFvNS3_6StatusEjRKNS0_11hidl_handleEEEE"
  source_file: "/data/aosp/out/soong/.intermediates/hardware/interfaces/media/omx/1.0/android.hardware.media.omx@1.0_genc++_headers/gen/android/hardware/media/omx/1.0/IOmxNode.h"
  parameters {
    basic_abi {
      type_abi {
        name: "unsigned int"
        size: 4
        alignment: 4
      }
      name: "portIndex"
      access: public_access
      linker_set_key: "false"
    }
    default_arg: false
  }
  parameters {
    basic_abi {
      type_abi {
        name: "unsigned long long"
        size: 8
        alignment: 8
      }
      name: "size"
      access: public_access
      linker_set_key: "false"
    }
    default_arg: false
  }
  parameters {
    basic_abi {
      type_abi {
        name: "std::function<void (Status, unsigned int, const hidl_handle &)>"
      }
      name: "_hidl_cb"
      access: public_access
      linker_set_key: "false"
    }
    default_arg: false
  }
}
functions {
  basic_abi {
    type_abi {
      name: "android::hardware::Return<void>"
    }
    name: "android::hardware::media::omx::V1_0::IOmxNode::useBuffer"
    access: public_access
    linker_set_key: "_ZN7android8hardware5media3omx4V1_08IOmxNode9useBufferEjRKNS3_11CodecBufferENSt3__18functionIFvNS3_6StatusEjEEE"
  }
  mangled_function_name: "_ZN7android8hardware5media3omx4V1_08IOmxNode9useBufferEjRKNS3_11CodecBufferENSt3__18functionIFvNS3_6StatusEjEEE"
  source_file: "/data/aosp/out/soong/.intermediates/hardware/interfaces/media/omx/1.0/android.hardware.media.omx@1.0_genc++_headers/gen/android/hardware/media/omx/1.0/IOmxNode.h"
  parameters {
    basic_abi {
      type_abi {
        name: "unsigned int"
        size: 4
        alignment: 4
      }
      name: "portIndex"
      access: public_access
      linker_set_key: "false"
    }
    default_arg: false
  }
  parameters {
    basic_abi {
      type_abi {
        name: "const android::hardware::media::omx::V1_0::CodecBuffer &"
      }
      name: "omxBuffer"
      access: public_access
      linker_set_key: "false"
    }
    default_arg: false
  }
  parameters {
    basic_abi {
      type_abi {
        name: "std::function<void (Status, unsigned int)>"
      }
      name: "_hidl_cb"
      access: public_access
      linker_set_key: "false"
    }
    default_arg: false
  }
}
functions {
  basic_abi {
    type_abi {
      name: "android::hardware::Return<android::hardware::media::omx::V1_0::Status>"
    }
    name: "android::hardware::media::omx::V1_0::IOmxNode::freeBuffer"
    access: public_access
    linker_set_key: "_ZN7android8hardware5media3omx4V1_08IOmxNode10freeBufferEjj"
  }
  mangled_function_name: "_ZN7android8hardware5media3omx4V1_08IOmxNode10freeBufferEjj"
  source_file: "/data/aosp/out/soong/.intermediates/hardware/interfaces/media/omx/1.0/android.hardware.media.omx@1.0_genc++_headers/gen/android/hardware/media/omx/1.0/IOmxNode.h"
  parameters {
    basic_abi {
      type_abi {
        name: "unsigned int"
        size: 4
        alignment: 4
      }
      name: "portIndex"
      access: public_access
      linker_set_key: "false"
    }
    default_arg: false
  }
  parameters {
    basic_abi {
      type_abi {
        name: "unsigned int"
        size: 4
        alignment: 4
      }
      name: "buffer"
      access: public_access
      linker_set_key: "false"
    }
    default_arg: false
  }
}
functions {
  basic_abi {
    type_abi {
      name: "android::hardware::Return<android::hardware::media::omx::V1_0::Status>"
    }
    name: "android::hardware::media::omx::V1_0::IOmxNode::fillBuffer"
    access: public_access
    linker_set_key: "_ZN7android8hardware5media3omx4V1_08IOmxNode10fillBufferEjRKNS3_11CodecBufferERKNS0_11hidl_handleE"
  }
  mangled_function_name: "_ZN7android8hardware5media3omx4V1_08IOmxNode10fillBufferEjRKNS3_11CodecBufferERKNS0_11hidl_handleE"
  source_file: "/data/aosp/out/soong/.intermediates/hardware/interfaces/media/omx/1.0/android.hardware.media.omx@1.0_genc++_headers/gen/android/hardware/media/omx/1.0/IOmxNode.h"
  parameters {
    basic_abi {
      type_abi {
        name: "unsigned int"
        size: 4
        alignment: 4
      }
      name: "buffer"
      access: public_access
      linker_set_key: "false"
    }
    default_arg: false
  }
  parameters {
    basic_abi {
      type_abi {
        name: "const android::hardware::media::omx::V1_0::CodecBuffer &"
      }
      name: "omxBuffer"
      access: public_access
      linker_set_key: "false"
    }
    default_arg: false
  }
  parameters {
    basic_abi {
      type_abi {
        name: "const android::hardware::hidl_handle &"
      }
      name: "fence"
      access: public_access
      linker_set_key: "false"
    }
    default_arg: false
  }
}
functions {
  basic_abi {
    type_abi {
      name: "android::hardware::Return<android::hardware::media::omx::V1_0::Status>"
    }
    name: "android::hardware::media::omx::V1_0::IOmxNode::emptyBuffer"
    access: public_access
    linker_set_key: "_ZN7android8hardware5media3omx4V1_08IOmxNode11emptyBufferEjRKNS3_11CodecBufferEjyRKNS0_11hidl_handleE"
  }
  mangled_function_name: "_ZN7android8hardware5media3omx4V1_08IOmxNode11emptyBufferEjRKNS3_11CodecBufferEjyRKNS0_11hidl_handleE"
  source_file: "/data/aosp/out/soong/.intermediates/hardware/interfaces/media/omx/1.0/android.hardware.media.omx@1.0_genc++_headers/gen/android/hardware/media/omx/1.0/IOmxNode.h"
  parameters {
    basic_abi {
      type_abi {
        name: "unsigned int"
        size: 4
        alignment: 4
      }
      name: "buffer"
      access: public_access
      linker_set_key: "false"
    }
    default_arg: false
  }
  parameters {
    basic_abi {
      type_abi {
        name: "const android::hardware::media::omx::V1_0::CodecBuffer &"
      }
      name: "omxBuffer"
      access: public_access
      linker_set_key: "false"
    }
    default_arg: false
  }
  parameters {
    basic_abi {
      type_abi {
        name: "unsigned int"
        size: 4
        alignment: 4
      }
      name: "flags"
      access: public_access
      linker_set_key: "false"
    }
    default_arg: false
  }
  parameters {
    basic_abi {
      type_abi {
        name: "unsigned long long"
        size: 8
        alignment: 8
      }
      name: "timestampUs"
      access: public_access
      linker_set_key: "false"
    }
    default_arg: false
  }
  parameters {
    basic_abi {
      type_abi {
        name: "const android::hardware::hidl_handle &"
      }
      name: "fence"
      access: public_access
      linker_set_key: "false"
    }
    default_arg: false
  }
}
functions {
  basic_abi {
    type_abi {
      name: "android::hardware::Return<void>"
    }
    name: "android::hardware::media::omx::V1_0::IOmxNode::getExtensionIndex"
    access: public_access
    linker_set_key: "_ZN7android8hardware5media3omx4V1_08IOmxNode17getExtensionIndexERKNS0_11hidl_stringENSt3__18functionIFvNS3_6StatusEjEEE"
  }
  mangled_function_name: "_ZN7android8hardware5media3omx4V1_08IOmxNode17getExtensionIndexERKNS0_11hidl_stringENSt3__18functionIFvNS3_6StatusEjEEE"
  source_file: "/data/aosp/out/soong/.intermediates/hardware/interfaces/media/omx/1.0/android.hardware.media.omx@1.0_genc++_headers/gen/android/hardware/media/omx/1.0/IOmxNode.h"
  parameters {
    basic_abi {
      type_abi {
        name: "const android::hardware::hidl_string &"
      }
      name: "parameterName"
      access: public_access
      linker_set_key: "false"
    }
    default_arg: false
  }
  parameters {
    basic_abi {
      type_abi {
        name: "std::function<void (Status, unsigned int)>"
      }
      name: "_hidl_cb"
      access: public_access
      linker_set_key: "false"
    }
    default_arg: false
  }
}
functions {
  basic_abi {
    type_abi {
      name: "android::hardware::Return<android::hardware::media::omx::V1_0::Status>"
    }
    name: "android::hardware::media::omx::V1_0::IOmxNode::dispatchMessage"
    access: public_access
    linker_set_key: "_ZN7android8hardware5media3omx4V1_08IOmxNode15dispatchMessageERKNS3_7MessageE"
  }
  mangled_function_name: "_ZN7android8hardware5media3omx4V1_08IOmxNode15dispatchMessageERKNS3_7MessageE"
  source_file: "/data/aosp/out/soong/.intermediates/hardware/interfaces/media/omx/1.0/android.hardware.media.omx@1.0_genc++_headers/gen/android/hardware/media/omx/1.0/IOmxNode.h"
  parameters {
    basic_abi {
      type_abi {
        name: "const android::hardware::media::omx::V1_0::Message &"
      }
      name: "msg"
      access: public_access
      linker_set_key: "false"
    }
    default_arg: false
  }
}
functions {
  basic_abi {
    type_abi {
      name: "android::hardware::Return<void>"
    }
    name: "android::hardware::media::omx::V1_0::IOmxNode::interfaceChain"
    access: public_access
    linker_set_key: "_ZN7android8hardware5media3omx4V1_08IOmxNode14interfaceChainENSt3__18functionIFvRKNS0_8hidl_vecINS0_11hidl_stringEEEEEE"
  }
  mangled_function_name: "_ZN7android8hardware5media3omx4V1_08IOmxNode14interfaceChainENSt3__18functionIFvRKNS0_8hidl_vecINS0_11hidl_stringEEEEEE"
  source_file: "/data/aosp/out/soong/.intermediates/hardware/interfaces/media/omx/1.0/android.hardware.media.omx@1.0_genc++_headers/gen/android/hardware/media/omx/1.0/IOmxNode.h"
  parameters {
    basic_abi {
      type_abi {
        name: "std::function<void (const hidl_vec<hidl_string> &)>"
      }
      name: "_hidl_cb"
      access: public_access
      linker_set_key: "false"
    }
    default_arg: false
  }
}
functions {
  basic_abi {
    type_abi {
      name: "android::hardware::Return<void>"
    }
    name: "android::hardware::media::omx::V1_0::IOmxNode::debug"
    access: public_access
    linker_set_key: "_ZN7android8hardware5media3omx4V1_08IOmxNode5debugERKNS0_11hidl_handleERKNS0_8hidl_vecINS0_11hidl_stringEEE"
  }
  mangled_function_name: "_ZN7android8hardware5media3omx4V1_08IOmxNode5debugERKNS0_11hidl_handleERKNS0_8hidl_vecINS0_11hidl_stringEEE"
  source_file: "/data/aosp/out/soong/.intermediates/hardware/interfaces/media/omx/1.0/android.hardware.media.omx@1.0_genc++_headers/gen/android/hardware/media/omx/1.0/IOmxNode.h"
  parameters {
    basic_abi {
      type_abi {
        name: "const android::hardware::hidl_handle &"
      }
      name: "fd"
      access: public_access
      linker_set_key: "false"
    }
    default_arg: false
  }
  parameters {
    basic_abi {
      type_abi {
        name: "const android::hardware::hidl_vec<android::hardware::hidl_string> &"
      }
      name: "options"
      access: public_access
      linker_set_key: "false"
    }
    default_arg: false
  }
}
functions {
  basic_abi {
    type_abi {
      name: "android::hardware::Return<void>"
    }
    name: "android::hardware::media::omx::V1_0::IOmxNode::interfaceDescriptor"
    access: public_access
    linker_set_key: "_ZN7android8hardware5media3omx4V1_08IOmxNode19interfaceDescriptorENSt3__18functionIFvRKNS0_11hidl_stringEEEE"
  }
  mangled_function_name: "_ZN7android8hardware5media3omx4V1_08IOmxNode19interfaceDescriptorENSt3__18functionIFvRKNS0_11hidl_stringEEEE"
  source_file: "/data/aosp/out/soong/.intermediates/hardware/interfaces/media/omx/1.0/android.hardware.media.omx@1.0_genc++_headers/gen/android/hardware/media/omx/1.0/IOmxNode.h"
  parameters {
    basic_abi {
      type_abi {
        name: "std::function<void (const hidl_string &)>"
      }
      name: "_hidl_cb"
      access: public_access
      linker_set_key: "false"
    }
    default_arg: false
  }
}
functions {
  basic_abi {
    type_abi {
      name: "android::hardware::Return<void>"
    }
    name: "android::hardware::media::omx::V1_0::IOmxNode::getHashChain"
    access: public_access
    linker_set_key: "_ZN7android8hardware5media3omx4V1_08IOmxNode12getHashChainENSt3__18functionIFvRKNS0_8hidl_vecINS0_10hidl_arrayIhLj32EJEEEEEEEE"
  }
  mangled_function_name: "_ZN7android8hardware5media3omx4V1_08IOmxNode12getHashChainENSt3__18functionIFvRKNS0_8hidl_vecINS0_10hidl_arrayIhLj32EJEEEEEEEE"
  source_file: "/data/aosp/out/soong/.intermediates/hardware/interfaces/media/omx/1.0/android.hardware.media.omx@1.0_genc++_headers/gen/android/hardware/media/omx/1.0/IOmxNode.h"
  parameters {
    basic_abi {
      type_abi {
        name: "std::function<void (const hidl_vec<hidl_array<unsigned char, 32> > &)>"
      }
      name: "_hidl_cb"
      access: public_access
      linker_set_key: "false"
    }
    default_arg: false
  }
}
functions {
  basic_abi {
    type_abi {
      name: "android::hardware::Return<void>"
    }
    name: "android::hardware::media::omx::V1_0::IOmxNode::setHALInstrumentation"
    access: public_access
    linker_set_key: "_ZN7android8hardware5media3omx4V1_08IOmxNode21setHALInstrumentationEv"
  }
  mangled_function_name: "_ZN7android8hardware5media3omx4V1_08IOmxNode21setHALInstrumentationEv"
  source_file: "/data/aosp/out/soong/.intermediates/hardware/interfaces/media/omx/1.0/android.hardware.media.omx@1.0_genc++_headers/gen/android/hardware/media/omx/1.0/IOmxNode.h"
}
functions {
  basic_abi {
    type_abi {
      name: "android::hardware::Return<bool>"
    }
    name: "android::hardware::media::omx::V1_0::IOmxNode::linkToDeath"
    access: public_access
    linker_set_key: "_ZN7android8hardware5media3omx4V1_08IOmxNode11linkToDeathERKNS_2spINS0_20hidl_death_recipientEEEy"
  }
  mangled_function_name: "_ZN7android8hardware5media3omx4V1_08IOmxNode11linkToDeathERKNS_2spINS0_20hidl_death_recipientEEEy"
  source_file: "/data/aosp/out/soong/.intermediates/hardware/interfaces/media/omx/1.0/android.hardware.media.omx@1.0_genc++_headers/gen/android/hardware/media/omx/1.0/IOmxNode.h"
  parameters {
    basic_abi {
      type_abi {
        name: "const android::sp<android::hardware::hidl_death_recipient> &"
      }
      name: "recipient"
      access: public_access
      linker_set_key: "false"
    }
    default_arg: false
  }
  parameters {
    basic_abi {
      type_abi {
        name: "unsigned long long"
        size: 8
        alignment: 8
      }
      name: "cookie"
      access: public_access
      linker_set_key: "false"
    }
    default_arg: false
  }
}
functions {
  basic_abi {
    type_abi {
      name: "android::hardware::Return<void>"
    }
    name: "android::hardware::media::omx::V1_0::IOmxNode::ping"
    access: public_access
    linker_set_key: "_ZN7android8hardware5media3omx4V1_08IOmxNode4pingEv"
  }
  mangled_function_name: "_ZN7android8hardware5media3omx4V1_08IOmxNode4pingEv"
  source_file: "/data/aosp/out/soong/.intermediates/hardware/interfaces/media/omx/1.0/android.hardware.media.omx@1.0_genc++_headers/gen/android/hardware/media/omx/1.0/IOmxNode.h"
}
functions {
  basic_abi {
    type_abi {
      name: "android::hardware::Return<void>"
    }
    name: "android::hardware::media::omx::V1_0::IOmxNode::getDebugInfo"
    access: public_access
    linker_set_key: "_ZN7android8hardware5media3omx4V1_08IOmxNode12getDebugInfoENSt3__18functionIFvRKNS_4hidl4base4V1_09DebugInfoEEEE"
  }
  mangled_function_name: "_ZN7android8hardware5media3omx4V1_08IOmxNode12getDebugInfoENSt3__18functionIFvRKNS_4hidl4base4V1_09DebugInfoEEEE"
  source_file: "/data/aosp/out/soong/.intermediates/hardware/interfaces/media/omx/1.0/android.hardware.media.omx@1.0_genc++_headers/gen/android/hardware/media/omx/1.0/IOmxNode.h"
  parameters {
    basic_abi {
      type_abi {
        name: "std::function<void (const DebugInfo &)>"
      }
      name: "_hidl_cb"
      access: public_access
      linker_set_key: "false"
    }
    default_arg: false
  }
}
functions {
  basic_abi {
    type_abi {
      name: "android::hardware::Return<void>"
    }
    name: "android::hardware::media::omx::V1_0::IOmxNode::notifySyspropsChanged"
    access: public_access
    linker_set_key: "_ZN7android8hardware5media3omx4V1_08IOmxNode21notifySyspropsChangedEv"
  }
  mangled_function_name: "_ZN7android8hardware5media3omx4V1_08IOmxNode21notifySyspropsChangedEv"
  source_file: "/data/aosp/out/soong/.intermediates/hardware/interfaces/media/omx/1.0/android.hardware.media.omx@1.0_genc++_headers/gen/android/hardware/media/omx/1.0/IOmxNode.h"
}
functions {
  basic_abi {
    type_abi {
      name: "android::hardware::Return<bool>"
    }
    name: "android::hardware::media::omx::V1_0::IOmxNode::unlinkToDeath"
    access: public_access
    linker_set_key: "_ZN7android8hardware5media3omx4V1_08IOmxNode13unlinkToDeathERKNS_2spINS0_20hidl_death_recipientEEE"
  }
  mangled_function_name: "_ZN7android8hardware5media3omx4V1_08IOmxNode13unlinkToDeathERKNS_2spINS0_20hidl_death_recipientEEE"
  source_file: "/data/aosp/out/soong/.intermediates/hardware/interfaces/media/omx/1.0/android.hardware.media.omx@1.0_genc++_headers/gen/android/hardware/media/omx/1.0/IOmxNode.h"
  parameters {
    basic_abi {
      type_abi {
        name: "const android::sp<android::hardware::hidl_death_recipient> &"
      }
      name: "recipient"
      access: public_access
      linker_set_key: "false"
    }
    default_arg: false
  }
}
functions {
  basic_abi {
    type_abi {
      name: "android::hardware::Return<android::sp<android::hardware::media::omx::V1_0::IOmxNode> >"
    }
    name: "android::hardware::media::omx::V1_0::IOmxNode::castFrom"
    access: public_access
    linker_set_key: "_ZN7android8hardware5media3omx4V1_08IOmxNode8castFromERKNS_2spIS4_EEb"
  }
  mangled_function_name: "_ZN7android8hardware5media3omx4V1_08IOmxNode8castFromERKNS_2spIS4_EEb"
  source_file: "/data/aosp/out/soong/.intermediates/hardware/interfaces/media/omx/1.0/android.hardware.media.omx@1.0_genc++_headers/gen/android/hardware/media/omx/1.0/IOmxNode.h"
  parameters {
    basic_abi {
      type_abi {
        name: "const android::sp<android::hardware::media::omx::V1_0::IOmxNode> &"
      }
      name: "parent"
      access: public_access
      linker_set_key: "false"
    }
    default_arg: false
  }
  parameters {
    basic_abi {
      type_abi {
        name: "bool"
        size: 1
        alignment: 1
      }
      name: "emitError"
      access: public_access
      linker_set_key: "true"
    }
    default_arg: true
  }
}
functions {
  basic_abi {
    type_abi {
      name: "android::hardware::Return<android::sp<android::hardware::media::omx::V1_0::IOmxNode> >"
    }
    name: "android::hardware::media::omx::V1_0::IOmxNode::castFrom"
    access: public_access
    linker_set_key: "_ZN7android8hardware5media3omx4V1_08IOmxNode8castFromERKNS_2spINS_4hidl4base4V1_05IBaseEEEb"
  }
  mangled_function_name: "_ZN7android8hardware5media3omx4V1_08IOmxNode8castFromERKNS_2spINS_4hidl4base4V1_05IBaseEEEb"
  source_file: "/data/aosp/out/soong/.intermediates/hardware/interfaces/media/omx/1.0/android.hardware.media.omx@1.0_genc++_headers/gen/android/hardware/media/omx/1.0/IOmxNode.h"
  parameters {
    basic_abi {
      type_abi {
        name: "const android::sp<android::hidl::base::V1_0::IBase> &"
      }
      name: "parent"
      access: public_access
      linker_set_key: "false"
    }
    default_arg: false
  }
  parameters {
    basic_abi {
      type_abi {
        name: "bool"
        size: 1
        alignment: 1
      }
      name: "emitError"
      access: public_access
      linker_set_key: "true"
    }
    default_arg: true
  }
}
functions {
  basic_abi {
    type_abi {
      name: "android::sp<android::hardware::media::omx::V1_0::IOmxNode>"
    }
    name: "android::hardware::media::omx::V1_0::IOmxNode::tryGetService"
    access: public_access
    linker_set_key: "_ZN7android8hardware5media3omx4V1_08IOmxNode13tryGetServiceERKNSt3__112basic_stringIcNS5_11char_traitsIcEENS5_9allocatorIcEEEEb"
  }
  mangled_function_name: "_ZN7android8hardware5media3omx4V1_08IOmxNode13tryGetServiceERKNSt3__112basic_stringIcNS5_11char_traitsIcEENS5_9allocatorIcEEEEb"
  source_file: "/data/aosp/out/soong/.intermediates/hardware/interfaces/media/omx/1.0/android.hardware.media.omx@1.0_genc++_headers/gen/android/hardware/media/omx/1.0/IOmxNode.h"
  parameters {
    basic_abi {
      type_abi {
        name: "const std::basic_string<char, std::char_traits<char>, std::allocator<char> > &"
      }
      name: "serviceName"
      access: public_access
      linker_set_key: "true"
    }
    default_arg: true
  }
  parameters {
    basic_abi {
      type_abi {
        name: "bool"
        size: 1
        alignment: 1
      }
      name: "getStub"
      access: public_access
      linker_set_key: "true"
    }
    default_arg: true
  }
}
functions {
  basic_abi {
    type_abi {
      name: "android::sp<android::hardware::media::omx::V1_0::IOmxNode>"
    }
    name: "android::hardware::media::omx::V1_0::IOmxNode::tryGetService"
    access: public_access
    linker_set_key: "_ZN7android8hardware5media3omx4V1_08IOmxNode13tryGetServiceEPKcb"
  }
  mangled_function_name: "_ZN7android8hardware5media3omx4V1_08IOmxNode13tryGetServiceEPKcb"
  source_file: "/data/aosp/out/soong/.intermediates/hardware/interfaces/media/omx/1.0/android.hardware.media.omx@1.0_genc++_headers/gen/android/hardware/media/omx/1.0/IOmxNode.h"
  parameters {
    basic_abi {
      type_abi {
        name: "const char *"
        size: 4
        alignment: 4
      }
      name: "serviceName"
      access: public_access
      linker_set_key: "false"
    }
    default_arg: false
  }
  parameters {
    basic_abi {
      type_abi {
        name: "bool"
        size: 1
        alignment: 1
      }
      name: "getStub"
      access: public_access
      linker_set_key: "true"
    }
    default_arg: true
  }
}
functions {
  basic_abi {
    type_abi {
      name: "android::sp<android::hardware::media::omx::V1_0::IOmxNode>"
    }
    name: "android::hardware::media::omx::V1_0::IOmxNode::tryGetService"
    access: public_access
    linker_set_key: "_ZN7android8hardware5media3omx4V1_08IOmxNode13tryGetServiceERKNS0_11hidl_stringEb"
  }
  mangled_function_name: "_ZN7android8hardware5media3omx4V1_08IOmxNode13tryGetServiceERKNS0_11hidl_stringEb"
  source_file: "/data/aosp/out/soong/.intermediates/hardware/interfaces/media/omx/1.0/android.hardware.media.omx@1.0_genc++_headers/gen/android/hardware/media/omx/1.0/IOmxNode.h"
  parameters {
    basic_abi {
      type_abi {
        name: "const android::hardware::hidl_string &"
      }
      name: "serviceName"
      access: public_access
      linker_set_key: "false"
    }
    default_arg: false
  }
  parameters {
    basic_abi {
      type_abi {
        name: "bool"
        size: 1
        alignment: 1
      }
      name: "getStub"
      access: public_access
      linker_set_key: "true"
    }
    default_arg: true
  }
}
functions {
  basic_abi {
    type_abi {
      name: "android::sp<android::hardware::media::omx::V1_0::IOmxNode>"
    }
    name: "android::hardware::media::omx::V1_0::IOmxNode::tryGetService"
    access: public_access
    linker_set_key: "_ZN7android8hardware5media3omx4V1_08IOmxNode13tryGetServiceEb"
  }
  mangled_function_name: "_ZN7android8hardware5media3omx4V1_08IOmxNode13tryGetServiceEb"
  source_file: "/data/aosp/out/soong/.intermediates/hardware/interfaces/media/omx/1.0/android.hardware.media.omx@1.0_genc++_headers/gen/android/hardware/media/omx/1.0/IOmxNode.h"
  parameters {
    basic_abi {
      type_abi {
        name: "bool"
        size: 1
        alignment: 1
      }
      name: "getStub"
      access: public_access
      linker_set_key: "false"
    }
    default_arg: false
  }
}
functions {
  basic_abi {
    type_abi {
      name: "android::sp<android::hardware::media::omx::V1_0::IOmxNode>"
    }
    name: "android::hardware::media::omx::V1_0::IOmxNode::getService"
    access: public_access
    linker_set_key: "_ZN7android8hardware5media3omx4V1_08IOmxNode10getServiceERKNSt3__112basic_stringIcNS5_11char_traitsIcEENS5_9allocatorIcEEEEb"
  }
  mangled_function_name: "_ZN7android8hardware5media3omx4V1_08IOmxNode10getServiceERKNSt3__112basic_stringIcNS5_11char_traitsIcEENS5_9allocatorIcEEEEb"
  source_file: "/data/aosp/out/soong/.intermediates/hardware/interfaces/media/omx/1.0/android.hardware.media.omx@1.0_genc++_headers/gen/android/hardware/media/omx/1.0/IOmxNode.h"
  parameters {
    basic_abi {
      type_abi {
        name: "const std::basic_string<char, std::char_traits<char>, std::allocator<char> > &"
      }
      name: "serviceName"
      access: public_access
      linker_set_key: "true"
    }
    default_arg: true
  }
  parameters {
    basic_abi {
      type_abi {
        name: "bool"
        size: 1
        alignment: 1
      }
      name: "getStub"
      access: public_access
      linker_set_key: "true"
    }
    default_arg: true
  }
}
functions {
  basic_abi {
    type_abi {
      name: "android::sp<android::hardware::media::omx::V1_0::IOmxNode>"
    }
    name: "android::hardware::media::omx::V1_0::IOmxNode::getService"
    access: public_access
    linker_set_key: "_ZN7android8hardware5media3omx4V1_08IOmxNode10getServiceEPKcb"
  }
  mangled_function_name: "_ZN7android8hardware5media3omx4V1_08IOmxNode10getServiceEPKcb"
  source_file: "/data/aosp/out/soong/.intermediates/hardware/interfaces/media/omx/1.0/android.hardware.media.omx@1.0_genc++_headers/gen/android/hardware/media/omx/1.0/IOmxNode.h"
  parameters {
    basic_abi {
      type_abi {
        name: "const char *"
        size: 4
        alignment: 4
      }
      name: "serviceName"
      access: public_access
      linker_set_key: "false"
    }
    default_arg: false
  }
  parameters {
    basic_abi {
      type_abi {
        name: "bool"
        size: 1
        alignment: 1
      }
      name: "getStub"
      access: public_access
      linker_set_key: "true"
    }
    default_arg: true
  }
}
functions {
  basic_abi {
    type_abi {
      name: "android::sp<android::hardware::media::omx::V1_0::IOmxNode>"
    }
    name: "android::hardware::media::omx::V1_0::IOmxNode::getService"
    access: public_access
    linker_set_key: "_ZN7android8hardware5media3omx4V1_08IOmxNode10getServiceERKNS0_11hidl_stringEb"
  }
  mangled_function_name: "_ZN7android8hardware5media3omx4V1_08IOmxNode10getServiceERKNS0_11hidl_stringEb"
  source_file: "/data/aosp/out/soong/.intermediates/hardware/interfaces/media/omx/1.0/android.hardware.media.omx@1.0_genc++_headers/gen/android/hardware/media/omx/1.0/IOmxNode.h"
  parameters {
    basic_abi {
      type_abi {
        name: "const android::hardware::hidl_string &"
      }
      name: "serviceName"
      access: public_access
      linker_set_key: "false"
    }
    default_arg: false
  }
  parameters {
    basic_abi {
      type_abi {
        name: "bool"
        size: 1
        alignment: 1
      }
      name: "getStub"
      access: public_access
      linker_set_key: "true"
    }
    default_arg: true
  }
}
functions {
  basic_abi {
    type_abi {
      name: "android::sp<android::hardware::media::omx::V1_0::IOmxNode>"
    }
    name: "android::hardware::media::omx::V1_0::IOmxNode::getService"
    access: public_access
    linker_set_key: "_ZN7android8hardware5media3omx4V1_08IOmxNode10getServiceEb"
  }
  mangled_function_name: "_ZN7android8hardware5media3omx4V1_08IOmxNode10getServiceEb"
  source_file: "/data/aosp/out/soong/.intermediates/hardware/interfaces/media/omx/1.0/android.hardware.media.omx@1.0_genc++_headers/gen/android/hardware/media/omx/1.0/IOmxNode.h"
  parameters {
    basic_abi {
      type_abi {
        name: "bool"
        size: 1
        alignment: 1
      }
      name: "getStub"
      access: public_access
      linker_set_key: "false"
    }
    default_arg: false
  }
}
functions {
  basic_abi {
    type_abi {
      name: "int"
      size: 4
      alignment: 4
    }
    name: "android::hardware::media::omx::V1_0::IOmxNode::registerAsService"
    access: public_access
    linker_set_key: "_ZN7android8hardware5media3omx4V1_08IOmxNode17registerAsServiceERKNSt3__112basic_stringIcNS5_11char_traitsIcEENS5_9allocatorIcEEEE"
  }
  mangled_function_name: "_ZN7android8hardware5media3omx4V1_08IOmxNode17registerAsServiceERKNSt3__112basic_stringIcNS5_11char_traitsIcEENS5_9allocatorIcEEEE"
  source_file: "/data/aosp/out/soong/.intermediates/hardware/interfaces/media/omx/1.0/android.hardware.media.omx@1.0_genc++_headers/gen/android/hardware/media/omx/1.0/IOmxNode.h"
  parameters {
    basic_abi {
      type_abi {
        name: "const std::basic_string<char, std::char_traits<char>, std::allocator<char> > &"
      }
      name: "serviceName"
      access: public_access
      linker_set_key: "true"
    }
    default_arg: true
  }
}
functions {
  basic_abi {
    type_abi {
      name: "bool"
      size: 1
      alignment: 1
    }
    name: "android::hardware::media::omx::V1_0::IOmxNode::registerForNotifications"
    access: public_access
    linker_set_key: "_ZN7android8hardware5media3omx4V1_08IOmxNode24registerForNotificationsERKNSt3__112basic_stringIcNS5_11char_traitsIcEENS5_9allocatorIcEEEERKNS_2spINS_4hidl7manager4V1_020IServiceNotificationEEE"
  }
  mangled_function_name: "_ZN7android8hardware5media3omx4V1_08IOmxNode24registerForNotificationsERKNSt3__112basic_stringIcNS5_11char_traitsIcEENS5_9allocatorIcEEEERKNS_2spINS_4hidl7manager4V1_020IServiceNotificationEEE"
  source_file: "/data/aosp/out/soong/.intermediates/hardware/interfaces/media/omx/1.0/android.hardware.media.omx@1.0_genc++_headers/gen/android/hardware/media/omx/1.0/IOmxNode.h"
  parameters {
    basic_abi {
      type_abi {
        name: "const std::basic_string<char, std::char_traits<char>, std::allocator<char> > &"
      }
      name: "serviceName"
      access: public_access
      linker_set_key: "false"
    }
    default_arg: false
  }
  parameters {
    basic_abi {
      type_abi {
        name: "const android::sp<android::hidl::manager::V1_0::IServiceNotification> &"
      }
      name: "notification"
      access: public_access
      linker_set_key: "false"
    }
    default_arg: false
  }
}
functions {
  basic_abi {
    type_abi {
      name: "std::basic_string<char, std::char_traits<char>, std::allocator<char> >"
    }
    name: "android::hardware::media::omx::V1_0::toString"
    access: public_access
    linker_set_key: "_ZN7android8hardware5media3omx4V1_08toStringERKNS_2spINS3_8IOmxNodeEEE"
  }
  mangled_function_name: "_ZN7android8hardware5media3omx4V1_08toStringERKNS_2spINS3_8IOmxNodeEEE"
  source_file: "/data/aosp/out/soong/.intermediates/hardware/interfaces/media/omx/1.0/android.hardware.media.omx@1.0_genc++_headers/gen/android/hardware/media/omx/1.0/IOmxNode.h"
  parameters {
    basic_abi {
      type_abi {
        name: "const android::sp<android::hardware::media::omx::V1_0::IOmxNode> &"
      }
      name: ""
      access: public_access
      linker_set_key: "false"
    }
    default_arg: false
  }
}
functions {
  basic_abi {
    type_abi {
      name: "int"
      size: 4
      alignment: 4
    }
    name: "android::hardware::media::omx::V1_0::readEmbeddedFromParcel"
    access: public_access
    linker_set_key: "_ZN7android8hardware5media3omx4V1_022readEmbeddedFromParcelERKNS3_7MessageERKNS0_6ParcelEjj"
  }
  mangled_function_name: "_ZN7android8hardware5media3omx4V1_022readEmbeddedFromParcelERKNS3_7MessageERKNS0_6ParcelEjj"
  source_file: "/data/aosp/out/soong/.intermediates/hardware/interfaces/media/omx/1.0/android.hardware.media.omx@1.0_genc++_headers/gen/android/hardware/media/omx/1.0/hwtypes.h"
  parameters {
    basic_abi {
      type_abi {
        name: "const android::hardware::media::omx::V1_0::Message &"
      }
      name: "obj"
      access: public_access
      linker_set_key: "false"
    }
    default_arg: false
  }
  parameters {
    basic_abi {
      type_abi {
        name: "const android::hardware::Parcel &"
      }
      name: "parcel"
      access: public_access
      linker_set_key: "false"
    }
    default_arg: false
  }
  parameters {
    basic_abi {
      type_abi {
        name: "unsigned int"
        size: 4
        alignment: 4
      }
      name: "parentHandle"
      access: public_access
      linker_set_key: "false"
    }
    default_arg: false
  }
  parameters {
    basic_abi {
      type_abi {
        name: "unsigned int"
        size: 4
        alignment: 4
      }
      name: "parentOffset"
      access: public_access
      linker_set_key: "false"
    }
    default_arg: false
  }
}
functions {
  basic_abi {
    type_abi {
      name: "int"
      size: 4
      alignment: 4
    }
    name: "android::hardware::media::omx::V1_0::writeEmbeddedToParcel"
    access: public_access
    linker_set_key: "_ZN7android8hardware5media3omx4V1_021writeEmbeddedToParcelERKNS3_7MessageEPNS0_6ParcelEjj"
  }
  mangled_function_name: "_ZN7android8hardware5media3omx4V1_021writeEmbeddedToParcelERKNS3_7MessageEPNS0_6ParcelEjj"
  source_file: "/data/aosp/out/soong/.intermediates/hardware/interfaces/media/omx/1.0/android.hardware.media.omx@1.0_genc++_headers/gen/android/hardware/media/omx/1.0/hwtypes.h"
  parameters {
    basic_abi {
      type_abi {
        name: "const android::hardware::media::omx::V1_0::Message &"
      }
      name: "obj"
      access: public_access
      linker_set_key: "false"
    }
    default_arg: false
  }
  parameters {
    basic_abi {
      type_abi {
        name: "android::hardware::Parcel *"
        size: 4
        alignment: 4
      }
      name: "parcel"
      access: public_access
      linker_set_key: "false"
    }
    default_arg: false
  }
  parameters {
    basic_abi {
      type_abi {
        name: "unsigned int"
        size: 4
        alignment: 4
      }
      name: "parentHandle"
      access: public_access
      linker_set_key: "false"
    }
    default_arg: false
  }
  parameters {
    basic_abi {
      type_abi {
        name: "unsigned int"
        size: 4
        alignment: 4
      }
      name: "parentOffset"
      access: public_access
      linker_set_key: "false"
    }
    default_arg: false
  }
}
functions {
  basic_abi {
    type_abi {
      name: "int"
      size: 4
      alignment: 4
    }
    name: "android::hardware::media::omx::V1_0::readEmbeddedFromParcel"
    access: public_access
    linker_set_key: "_ZN7android8hardware5media3omx4V1_022readEmbeddedFromParcelERKNS3_11CodecBufferERKNS0_6ParcelEjj"
  }
  mangled_function_name: "_ZN7android8hardware5media3omx4V1_022readEmbeddedFromParcelERKNS3_11CodecBufferERKNS0_6ParcelEjj"
  source_file: "/data/aosp/out/soong/.intermediates/hardware/interfaces/media/omx/1.0/android.hardware.media.omx@1.0_genc++_headers/gen/android/hardware/media/omx/1.0/hwtypes.h"
  parameters {
    basic_abi {
      type_abi {
        name: "const android::hardware::media::omx::V1_0::CodecBuffer &"
      }
      name: "obj"
      access: public_access
      linker_set_key: "false"
    }
    default_arg: false
  }
  parameters {
    basic_abi {
      type_abi {
        name: "const android::hardware::Parcel &"
      }
      name: "parcel"
      access: public_access
      linker_set_key: "false"
    }
    default_arg: false
  }
  parameters {
    basic_abi {
      type_abi {
        name: "unsigned int"
        size: 4
        alignment: 4
      }
      name: "parentHandle"
      access: public_access
      linker_set_key: "false"
    }
    default_arg: false
  }
  parameters {
    basic_abi {
      type_abi {
        name: "unsigned int"
        size: 4
        alignment: 4
      }
      name: "parentOffset"
      access: public_access
      linker_set_key: "false"
    }
    default_arg: false
  }
}
functions {
  basic_abi {
    type_abi {
      name: "int"
      size: 4
      alignment: 4
    }
    name: "android::hardware::media::omx::V1_0::writeEmbeddedToParcel"
    access: public_access
    linker_set_key: "_ZN7android8hardware5media3omx4V1_021writeEmbeddedToParcelERKNS3_11CodecBufferEPNS0_6ParcelEjj"
  }
  mangled_function_name: "_ZN7android8hardware5media3omx4V1_021writeEmbeddedToParcelERKNS3_11CodecBufferEPNS0_6ParcelEjj"
  source_file: "/data/aosp/out/soong/.intermediates/hardware/interfaces/media/omx/1.0/android.hardware.media.omx@1.0_genc++_headers/gen/android/hardware/media/omx/1.0/hwtypes.h"
  parameters {
    basic_abi {
      type_abi {
        name: "const android::hardware::media::omx::V1_0::CodecBuffer &"
      }
      name: "obj"
      access: public_access
      linker_set_key: "false"
    }
    default_arg: false
  }
  parameters {
    basic_abi {
      type_abi {
        name: "android::hardware::Parcel *"
        size: 4
        alignment: 4
      }
      name: "parcel"
      access: public_access
      linker_set_key: "false"
    }
    default_arg: false
  }
  parameters {
    basic_abi {
      type_abi {
        name: "unsigned int"
        size: 4
        alignment: 4
      }
      name: "parentHandle"
      access: public_access
      linker_set_key: "false"
    }
    default_arg: false
  }
  parameters {
    basic_abi {
      type_abi {
        name: "unsigned int"
        size: 4
        alignment: 4
      }
      name: "parentOffset"
      access: public_access
      linker_set_key: "false"
    }
    default_arg: false
  }
}
functions {
  basic_abi {
    type_abi {
      name: "void"
    }
    name: "android::hardware::media::omx::V1_0::BnHwOmxBufferSource::BnHwOmxBufferSource"
    access: public_access
    linker_set_key: "_ZN7android8hardware5media3omx4V1_019BnHwOmxBufferSourceC2ERKNS_2spINS3_16IOmxBufferSourceEEE"
  }
  mangled_function_name: "_ZN7android8hardware5media3omx4V1_019BnHwOmxBufferSourceC2ERKNS_2spINS3_16IOmxBufferSourceEEE"
  source_file: "/data/aosp/out/soong/.intermediates/hardware/interfaces/media/omx/1.0/android.hardware.media.omx@1.0_genc++_headers/gen/android/hardware/media/omx/1.0/BnHwOmxBufferSource.h"
  parameters {
    basic_abi {
      type_abi {
        name: "const android::sp<android::hardware::media::omx::V1_0::IOmxBufferSource> &"
      }
      name: "_hidl_impl"
      access: public_access
      linker_set_key: "false"
    }
    default_arg: false
  }
}
functions {
  basic_abi {
    type_abi {
      name: "void"
    }
    name: "android::hardware::media::omx::V1_0::BnHwOmxBufferSource::BnHwOmxBufferSource"
    access: public_access
    linker_set_key: "_ZN7android8hardware5media3omx4V1_019BnHwOmxBufferSourceC1ERKNS_2spINS3_16IOmxBufferSourceEEE"
  }
  mangled_function_name: "_ZN7android8hardware5media3omx4V1_019BnHwOmxBufferSourceC1ERKNS_2spINS3_16IOmxBufferSourceEEE"
  source_file: "/data/aosp/out/soong/.intermediates/hardware/interfaces/media/omx/1.0/android.hardware.media.omx@1.0_genc++_headers/gen/android/hardware/media/omx/1.0/BnHwOmxBufferSource.h"
  parameters {
    basic_abi {
      type_abi {
        name: "const android::sp<android::hardware::media::omx::V1_0::IOmxBufferSource> &"
      }
      name: "_hidl_impl"
      access: public_access
      linker_set_key: "false"
    }
    default_arg: false
  }
}
functions {
  basic_abi {
    type_abi {
      name: "void"
    }
    name: "android::hardware::media::omx::V1_0::BnHwOmxBufferSource::BnHwOmxBufferSource"
    access: public_access
    linker_set_key: "_ZN7android8hardware5media3omx4V1_019BnHwOmxBufferSourceC2ERKNS_2spINS3_16IOmxBufferSourceEEERKNSt3__112basic_stringIcNSA_11char_traitsIcEENSA_9allocatorIcEEEESI_"
  }
  mangled_function_name: "_ZN7android8hardware5media3omx4V1_019BnHwOmxBufferSourceC2ERKNS_2spINS3_16IOmxBufferSourceEEERKNSt3__112basic_stringIcNSA_11char_traitsIcEENSA_9allocatorIcEEEESI_"
  source_file: "/data/aosp/out/soong/.intermediates/hardware/interfaces/media/omx/1.0/android.hardware.media.omx@1.0_genc++_headers/gen/android/hardware/media/omx/1.0/BnHwOmxBufferSource.h"
  parameters {
    basic_abi {
      type_abi {
        name: "const android::sp<android::hardware::media::omx::V1_0::IOmxBufferSource> &"
      }
      name: "_hidl_impl"
      access: public_access
      linker_set_key: "false"
    }
    default_arg: false
  }
  parameters {
    basic_abi {
      type_abi {
        name: "const std::basic_string<char, std::char_traits<char>, std::allocator<char> > &"
      }
      name: "HidlInstrumentor_package"
      access: public_access
      linker_set_key: "false"
    }
    default_arg: false
  }
  parameters {
    basic_abi {
      type_abi {
        name: "const std::basic_string<char, std::char_traits<char>, std::allocator<char> > &"
      }
      name: "HidlInstrumentor_interface"
      access: public_access
      linker_set_key: "false"
    }
    default_arg: false
  }
}
functions {
  basic_abi {
    type_abi {
      name: "void"
    }
    name: "android::hardware::media::omx::V1_0::BnHwOmxBufferSource::BnHwOmxBufferSource"
    access: public_access
    linker_set_key: "_ZN7android8hardware5media3omx4V1_019BnHwOmxBufferSourceC1ERKNS_2spINS3_16IOmxBufferSourceEEERKNSt3__112basic_stringIcNSA_11char_traitsIcEENSA_9allocatorIcEEEESI_"
  }
  mangled_function_name: "_ZN7android8hardware5media3omx4V1_019BnHwOmxBufferSourceC1ERKNS_2spINS3_16IOmxBufferSourceEEERKNSt3__112basic_stringIcNSA_11char_traitsIcEENSA_9allocatorIcEEEESI_"
  source_file: "/data/aosp/out/soong/.intermediates/hardware/interfaces/media/omx/1.0/android.hardware.media.omx@1.0_genc++_headers/gen/android/hardware/media/omx/1.0/BnHwOmxBufferSource.h"
  parameters {
    basic_abi {
      type_abi {
        name: "const android::sp<android::hardware::media::omx::V1_0::IOmxBufferSource> &"
      }
      name: "_hidl_impl"
      access: public_access
      linker_set_key: "false"
    }
    default_arg: false
  }
  parameters {
    basic_abi {
      type_abi {
        name: "const std::basic_string<char, std::char_traits<char>, std::allocator<char> > &"
      }
      name: "HidlInstrumentor_package"
      access: public_access
      linker_set_key: "false"
    }
    default_arg: false
  }
  parameters {
    basic_abi {
      type_abi {
        name: "const std::basic_string<char, std::char_traits<char>, std::allocator<char> > &"
      }
      name: "HidlInstrumentor_interface"
      access: public_access
      linker_set_key: "false"
    }
    default_arg: false
  }
}
functions {
  basic_abi {
    type_abi {
      name: "void"
    }
    name: "android::hardware::media::omx::V1_0::BnHwOmxBufferSource::~BnHwOmxBufferSource"
    access: public_access
    linker_set_key: "_ZN7android8hardware5media3omx4V1_019BnHwOmxBufferSourceD2Ev"
  }
  mangled_function_name: "_ZN7android8hardware5media3omx4V1_019BnHwOmxBufferSourceD2Ev"
  source_file: "/data/aosp/out/soong/.intermediates/hardware/interfaces/media/omx/1.0/android.hardware.media.omx@1.0_genc++_headers/gen/android/hardware/media/omx/1.0/BnHwOmxBufferSource.h"
}
functions {
  basic_abi {
    type_abi {
      name: "void"
    }
    name: "android::hardware::media::omx::V1_0::BnHwOmxBufferSource::~BnHwOmxBufferSource"
    access: public_access
    linker_set_key: "_ZN7android8hardware5media3omx4V1_019BnHwOmxBufferSourceD1Ev"
  }
  mangled_function_name: "_ZN7android8hardware5media3omx4V1_019BnHwOmxBufferSourceD1Ev"
  source_file: "/data/aosp/out/soong/.intermediates/hardware/interfaces/media/omx/1.0/android.hardware.media.omx@1.0_genc++_headers/gen/android/hardware/media/omx/1.0/BnHwOmxBufferSource.h"
}
functions {
  basic_abi {
    type_abi {
      name: "void"
    }
    name: "android::hardware::media::omx::V1_0::BnHwOmxBufferSource::~BnHwOmxBufferSource"
    access: public_access
    linker_set_key: "_ZN7android8hardware5media3omx4V1_019BnHwOmxBufferSourceD0Ev"
  }
  mangled_function_name: "_ZN7android8hardware5media3omx4V1_019BnHwOmxBufferSourceD0Ev"
  source_file: "/data/aosp/out/soong/.intermediates/hardware/interfaces/media/omx/1.0/android.hardware.media.omx@1.0_genc++_headers/gen/android/hardware/media/omx/1.0/BnHwOmxBufferSource.h"
}
functions {
  basic_abi {
    type_abi {
      name: "int"
      size: 4
      alignment: 4
    }
    name: "android::hardware::media::omx::V1_0::BnHwOmxBufferSource::onTransact"
    access: public_access
    linker_set_key: "_ZN7android8hardware5media3omx4V1_019BnHwOmxBufferSource10onTransactEjRKNS0_6ParcelEPS5_jNSt3__18functionIFvRS5_EEE"
  }
  mangled_function_name: "_ZN7android8hardware5media3omx4V1_019BnHwOmxBufferSource10onTransactEjRKNS0_6ParcelEPS5_jNSt3__18functionIFvRS5_EEE"
  source_file: "/data/aosp/out/soong/.intermediates/hardware/interfaces/media/omx/1.0/android.hardware.media.omx@1.0_genc++_headers/gen/android/hardware/media/omx/1.0/BnHwOmxBufferSource.h"
  parameters {
    basic_abi {
      type_abi {
        name: "unsigned int"
        size: 4
        alignment: 4
      }
      name: "_hidl_code"
      access: public_access
      linker_set_key: "false"
    }
    default_arg: false
  }
  parameters {
    basic_abi {
      type_abi {
        name: "const android::hardware::Parcel &"
      }
      name: "_hidl_data"
      access: public_access
      linker_set_key: "false"
    }
    default_arg: false
  }
  parameters {
    basic_abi {
      type_abi {
        name: "android::hardware::Parcel *"
        size: 4
        alignment: 4
      }
      name: "_hidl_reply"
      access: public_access
      linker_set_key: "false"
    }
    default_arg: false
  }
  parameters {
    basic_abi {
      type_abi {
        name: "unsigned int"
        size: 4
        alignment: 4
      }
      name: "_hidl_flags"
      access: public_access
      linker_set_key: "true"
    }
    default_arg: true
  }
  parameters {
    basic_abi {
      type_abi {
        name: "std::function<void (Parcel &)>"
      }
      name: "_hidl_cb"
      access: public_access
      linker_set_key: "true"
    }
    default_arg: true
  }
}
functions {
  basic_abi {
    type_abi {
      name: "android::sp<android::hardware::media::omx::V1_0::IOmxBufferSource>"
    }
    name: "android::hardware::media::omx::V1_0::BnHwOmxBufferSource::getImpl"
    access: public_access
    linker_set_key: "_ZN7android8hardware5media3omx4V1_019BnHwOmxBufferSource7getImplEv"
  }
  mangled_function_name: "_ZN7android8hardware5media3omx4V1_019BnHwOmxBufferSource7getImplEv"
  source_file: "/data/aosp/out/soong/.intermediates/hardware/interfaces/media/omx/1.0/android.hardware.media.omx@1.0_genc++_headers/gen/android/hardware/media/omx/1.0/BnHwOmxBufferSource.h"
}
functions {
  basic_abi {
    type_abi {
      name: "int"
      size: 4
      alignment: 4
    }
    name: "android::hardware::media::omx::V1_0::BnHwOmxBufferSource::_hidl_onOmxExecuting"
    access: public_access
    linker_set_key: "_ZN7android8hardware5media3omx4V1_019BnHwOmxBufferSource20_hidl_onOmxExecutingEPNS_4hidl4base4V1_08BnHwBaseERKNS0_6ParcelEPSA_NSt3__18functionIFvRSA_EEE"
  }
  mangled_function_name: "_ZN7android8hardware5media3omx4V1_019BnHwOmxBufferSource20_hidl_onOmxExecutingEPNS_4hidl4base4V1_08BnHwBaseERKNS0_6ParcelEPSA_NSt3__18functionIFvRSA_EEE"
  source_file: "/data/aosp/out/soong/.intermediates/hardware/interfaces/media/omx/1.0/android.hardware.media.omx@1.0_genc++_headers/gen/android/hardware/media/omx/1.0/BnHwOmxBufferSource.h"
  parameters {
    basic_abi {
      type_abi {
        name: "android::hidl::base::V1_0::BnHwBase *"
        size: 4
        alignment: 4
      }
      name: "_hidl_this"
      access: public_access
      linker_set_key: "false"
    }
    default_arg: false
  }
  parameters {
    basic_abi {
      type_abi {
        name: "const android::hardware::Parcel &"
      }
      name: "_hidl_data"
      access: public_access
      linker_set_key: "false"
    }
    default_arg: false
  }
  parameters {
    basic_abi {
      type_abi {
        name: "android::hardware::Parcel *"
        size: 4
        alignment: 4
      }
      name: "_hidl_reply"
      access: public_access
      linker_set_key: "false"
    }
    default_arg: false
  }
  parameters {
    basic_abi {
      type_abi {
        name: "std::function<void (Parcel &)>"
      }
      name: "_hidl_cb"
      access: public_access
      linker_set_key: "false"
    }
    default_arg: false
  }
}
functions {
  basic_abi {
    type_abi {
      name: "int"
      size: 4
      alignment: 4
    }
    name: "android::hardware::media::omx::V1_0::BnHwOmxBufferSource::_hidl_onOmxIdle"
    access: public_access
    linker_set_key: "_ZN7android8hardware5media3omx4V1_019BnHwOmxBufferSource15_hidl_onOmxIdleEPNS_4hidl4base4V1_08BnHwBaseERKNS0_6ParcelEPSA_NSt3__18functionIFvRSA_EEE"
  }
  mangled_function_name: "_ZN7android8hardware5media3omx4V1_019BnHwOmxBufferSource15_hidl_onOmxIdleEPNS_4hidl4base4V1_08BnHwBaseERKNS0_6ParcelEPSA_NSt3__18functionIFvRSA_EEE"
  source_file: "/data/aosp/out/soong/.intermediates/hardware/interfaces/media/omx/1.0/android.hardware.media.omx@1.0_genc++_headers/gen/android/hardware/media/omx/1.0/BnHwOmxBufferSource.h"
  parameters {
    basic_abi {
      type_abi {
        name: "android::hidl::base::V1_0::BnHwBase *"
        size: 4
        alignment: 4
      }
      name: "_hidl_this"
      access: public_access
      linker_set_key: "false"
    }
    default_arg: false
  }
  parameters {
    basic_abi {
      type_abi {
        name: "const android::hardware::Parcel &"
      }
      name: "_hidl_data"
      access: public_access
      linker_set_key: "false"
    }
    default_arg: false
  }
  parameters {
    basic_abi {
      type_abi {
        name: "android::hardware::Parcel *"
        size: 4
        alignment: 4
      }
      name: "_hidl_reply"
      access: public_access
      linker_set_key: "false"
    }
    default_arg: false
  }
  parameters {
    basic_abi {
      type_abi {
        name: "std::function<void (Parcel &)>"
      }
      name: "_hidl_cb"
      access: public_access
      linker_set_key: "false"
    }
    default_arg: false
  }
}
functions {
  basic_abi {
    type_abi {
      name: "int"
      size: 4
      alignment: 4
    }
    name: "android::hardware::media::omx::V1_0::BnHwOmxBufferSource::_hidl_onOmxLoaded"
    access: public_access
    linker_set_key: "_ZN7android8hardware5media3omx4V1_019BnHwOmxBufferSource17_hidl_onOmxLoadedEPNS_4hidl4base4V1_08BnHwBaseERKNS0_6ParcelEPSA_NSt3__18functionIFvRSA_EEE"
  }
  mangled_function_name: "_ZN7android8hardware5media3omx4V1_019BnHwOmxBufferSource17_hidl_onOmxLoadedEPNS_4hidl4base4V1_08BnHwBaseERKNS0_6ParcelEPSA_NSt3__18functionIFvRSA_EEE"
  source_file: "/data/aosp/out/soong/.intermediates/hardware/interfaces/media/omx/1.0/android.hardware.media.omx@1.0_genc++_headers/gen/android/hardware/media/omx/1.0/BnHwOmxBufferSource.h"
  parameters {
    basic_abi {
      type_abi {
        name: "android::hidl::base::V1_0::BnHwBase *"
        size: 4
        alignment: 4
      }
      name: "_hidl_this"
      access: public_access
      linker_set_key: "false"
    }
    default_arg: false
  }
  parameters {
    basic_abi {
      type_abi {
        name: "const android::hardware::Parcel &"
      }
      name: "_hidl_data"
      access: public_access
      linker_set_key: "false"
    }
    default_arg: false
  }
  parameters {
    basic_abi {
      type_abi {
        name: "android::hardware::Parcel *"
        size: 4
        alignment: 4
      }
      name: "_hidl_reply"
      access: public_access
      linker_set_key: "false"
    }
    default_arg: false
  }
  parameters {
    basic_abi {
      type_abi {
        name: "std::function<void (Parcel &)>"
      }
      name: "_hidl_cb"
      access: public_access
      linker_set_key: "false"
    }
    default_arg: false
  }
}
functions {
  basic_abi {
    type_abi {
      name: "int"
      size: 4
      alignment: 4
    }
    name: "android::hardware::media::omx::V1_0::BnHwOmxBufferSource::_hidl_onInputBufferAdded"
    access: public_access
    linker_set_key: "_ZN7android8hardware5media3omx4V1_019BnHwOmxBufferSource24_hidl_onInputBufferAddedEPNS_4hidl4base4V1_08BnHwBaseERKNS0_6ParcelEPSA_NSt3__18functionIFvRSA_EEE"
  }
  mangled_function_name: "_ZN7android8hardware5media3omx4V1_019BnHwOmxBufferSource24_hidl_onInputBufferAddedEPNS_4hidl4base4V1_08BnHwBaseERKNS0_6ParcelEPSA_NSt3__18functionIFvRSA_EEE"
  source_file: "/data/aosp/out/soong/.intermediates/hardware/interfaces/media/omx/1.0/android.hardware.media.omx@1.0_genc++_headers/gen/android/hardware/media/omx/1.0/BnHwOmxBufferSource.h"
  parameters {
    basic_abi {
      type_abi {
        name: "android::hidl::base::V1_0::BnHwBase *"
        size: 4
        alignment: 4
      }
      name: "_hidl_this"
      access: public_access
      linker_set_key: "false"
    }
    default_arg: false
  }
  parameters {
    basic_abi {
      type_abi {
        name: "const android::hardware::Parcel &"
      }
      name: "_hidl_data"
      access: public_access
      linker_set_key: "false"
    }
    default_arg: false
  }
  parameters {
    basic_abi {
      type_abi {
        name: "android::hardware::Parcel *"
        size: 4
        alignment: 4
      }
      name: "_hidl_reply"
      access: public_access
      linker_set_key: "false"
    }
    default_arg: false
  }
  parameters {
    basic_abi {
      type_abi {
        name: "std::function<void (Parcel &)>"
      }
      name: "_hidl_cb"
      access: public_access
      linker_set_key: "false"
    }
    default_arg: false
  }
}
functions {
  basic_abi {
    type_abi {
      name: "int"
      size: 4
      alignment: 4
    }
    name: "android::hardware::media::omx::V1_0::BnHwOmxBufferSource::_hidl_onInputBufferEmptied"
    access: public_access
    linker_set_key: "_ZN7android8hardware5media3omx4V1_019BnHwOmxBufferSource26_hidl_onInputBufferEmptiedEPNS_4hidl4base4V1_08BnHwBaseERKNS0_6ParcelEPSA_NSt3__18functionIFvRSA_EEE"
  }
  mangled_function_name: "_ZN7android8hardware5media3omx4V1_019BnHwOmxBufferSource26_hidl_onInputBufferEmptiedEPNS_4hidl4base4V1_08BnHwBaseERKNS0_6ParcelEPSA_NSt3__18functionIFvRSA_EEE"
  source_file: "/data/aosp/out/soong/.intermediates/hardware/interfaces/media/omx/1.0/android.hardware.media.omx@1.0_genc++_headers/gen/android/hardware/media/omx/1.0/BnHwOmxBufferSource.h"
  parameters {
    basic_abi {
      type_abi {
        name: "android::hidl::base::V1_0::BnHwBase *"
        size: 4
        alignment: 4
      }
      name: "_hidl_this"
      access: public_access
      linker_set_key: "false"
    }
    default_arg: false
  }
  parameters {
    basic_abi {
      type_abi {
        name: "const android::hardware::Parcel &"
      }
      name: "_hidl_data"
      access: public_access
      linker_set_key: "false"
    }
    default_arg: false
  }
  parameters {
    basic_abi {
      type_abi {
        name: "android::hardware::Parcel *"
        size: 4
        alignment: 4
      }
      name: "_hidl_reply"
      access: public_access
      linker_set_key: "false"
    }
    default_arg: false
  }
  parameters {
    basic_abi {
      type_abi {
        name: "std::function<void (Parcel &)>"
      }
      name: "_hidl_cb"
      access: public_access
      linker_set_key: "false"
    }
    default_arg: false
  }
}
functions {
  basic_abi {
    type_abi {
      name: "android::hardware::Return<void>"
    }
    name: "android::hardware::media::omx::V1_0::BnHwOmxBufferSource::ping"
    access: private_access
    linker_set_key: "_ZN7android8hardware5media3omx4V1_019BnHwOmxBufferSource4pingEv"
  }
  mangled_function_name: "_ZN7android8hardware5media3omx4V1_019BnHwOmxBufferSource4pingEv"
  source_file: "/data/aosp/out/soong/.intermediates/hardware/interfaces/media/omx/1.0/android.hardware.media.omx@1.0_genc++_headers/gen/android/hardware/media/omx/1.0/BnHwOmxBufferSource.h"
}
functions {
  basic_abi {
    type_abi {
      name: "android::hardware::Return<void>"
    }
    name: "android::hardware::media::omx::V1_0::BnHwOmxBufferSource::getDebugInfo"
    access: private_access
    linker_set_key: "_ZN7android8hardware5media3omx4V1_019BnHwOmxBufferSource12getDebugInfoENSt3__18functionIFvRKNS_4hidl4base4V1_09DebugInfoEEEE"
  }
  mangled_function_name: "_ZN7android8hardware5media3omx4V1_019BnHwOmxBufferSource12getDebugInfoENSt3__18functionIFvRKNS_4hidl4base4V1_09DebugInfoEEEE"
  source_file: "/data/aosp/out/soong/.intermediates/hardware/interfaces/media/omx/1.0/android.hardware.media.omx@1.0_genc++_headers/gen/android/hardware/media/omx/1.0/BnHwOmxBufferSource.h"
  parameters {
    basic_abi {
      type_abi {
        name: "std::function<void (const DebugInfo &)>"
      }
      name: "_hidl_cb"
      access: public_access
      linker_set_key: "false"
    }
    default_arg: false
  }
}
functions {
  basic_abi {
    type_abi {
      name: "void"
    }
    name: "android::hardware::media::omx::V1_0::BpHwOmxBufferSource::BpHwOmxBufferSource"
    access: public_access
    linker_set_key: "_ZN7android8hardware5media3omx4V1_019BpHwOmxBufferSourceC2ERKNS_2spINS0_7IBinderEEE"
  }
  mangled_function_name: "_ZN7android8hardware5media3omx4V1_019BpHwOmxBufferSourceC2ERKNS_2spINS0_7IBinderEEE"
  source_file: "/data/aosp/out/soong/.intermediates/hardware/interfaces/media/omx/1.0/android.hardware.media.omx@1.0_genc++_headers/gen/android/hardware/media/omx/1.0/BpHwOmxBufferSource.h"
  parameters {
    basic_abi {
      type_abi {
        name: "const android::sp<android::hardware::IBinder> &"
      }
      name: "_hidl_impl"
      access: public_access
      linker_set_key: "false"
    }
    default_arg: false
  }
}
functions {
  basic_abi {
    type_abi {
      name: "void"
    }
    name: "android::hardware::media::omx::V1_0::BpHwOmxBufferSource::BpHwOmxBufferSource"
    access: public_access
    linker_set_key: "_ZN7android8hardware5media3omx4V1_019BpHwOmxBufferSourceC1ERKNS_2spINS0_7IBinderEEE"
  }
  mangled_function_name: "_ZN7android8hardware5media3omx4V1_019BpHwOmxBufferSourceC1ERKNS_2spINS0_7IBinderEEE"
  source_file: "/data/aosp/out/soong/.intermediates/hardware/interfaces/media/omx/1.0/android.hardware.media.omx@1.0_genc++_headers/gen/android/hardware/media/omx/1.0/BpHwOmxBufferSource.h"
  parameters {
    basic_abi {
      type_abi {
        name: "const android::sp<android::hardware::IBinder> &"
      }
      name: "_hidl_impl"
      access: public_access
      linker_set_key: "false"
    }
    default_arg: false
  }
}
functions {
  basic_abi {
    type_abi {
      name: "bool"
      size: 1
      alignment: 1
    }
    name: "android::hardware::media::omx::V1_0::BpHwOmxBufferSource::isRemote"
    access: public_access
    linker_set_key: "_ZNK7android8hardware5media3omx4V1_019BpHwOmxBufferSource8isRemoteEv"
  }
  mangled_function_name: "_ZNK7android8hardware5media3omx4V1_019BpHwOmxBufferSource8isRemoteEv"
  source_file: "/data/aosp/out/soong/.intermediates/hardware/interfaces/media/omx/1.0/android.hardware.media.omx@1.0_genc++_headers/gen/android/hardware/media/omx/1.0/BpHwOmxBufferSource.h"
}
functions {
  basic_abi {
    type_abi {
      name: "android::hardware::Return<void>"
    }
    name: "android::hardware::media::omx::V1_0::BpHwOmxBufferSource::_hidl_onOmxExecuting"
    access: public_access
    linker_set_key: "_ZN7android8hardware5media3omx4V1_019BpHwOmxBufferSource20_hidl_onOmxExecutingEPNS0_10IInterfaceEPNS0_7details16HidlInstrumentorE"
  }
  mangled_function_name: "_ZN7android8hardware5media3omx4V1_019BpHwOmxBufferSource20_hidl_onOmxExecutingEPNS0_10IInterfaceEPNS0_7details16HidlInstrumentorE"
  source_file: "/data/aosp/out/soong/.intermediates/hardware/interfaces/media/omx/1.0/android.hardware.media.omx@1.0_genc++_headers/gen/android/hardware/media/omx/1.0/BpHwOmxBufferSource.h"
  parameters {
    basic_abi {
      type_abi {
        name: "android::hardware::IInterface *"
        size: 4
        alignment: 4
      }
      name: "_hidl_this"
      access: public_access
      linker_set_key: "false"
    }
    default_arg: false
  }
  parameters {
    basic_abi {
      type_abi {
        name: "android::hardware::details::HidlInstrumentor *"
        size: 4
        alignment: 4
      }
      name: "_hidl_this_instrumentor"
      access: public_access
      linker_set_key: "false"
    }
    default_arg: false
  }
}
functions {
  basic_abi {
    type_abi {
      name: "android::hardware::Return<void>"
    }
    name: "android::hardware::media::omx::V1_0::BpHwOmxBufferSource::_hidl_onOmxIdle"
    access: public_access
    linker_set_key: "_ZN7android8hardware5media3omx4V1_019BpHwOmxBufferSource15_hidl_onOmxIdleEPNS0_10IInterfaceEPNS0_7details16HidlInstrumentorE"
  }
  mangled_function_name: "_ZN7android8hardware5media3omx4V1_019BpHwOmxBufferSource15_hidl_onOmxIdleEPNS0_10IInterfaceEPNS0_7details16HidlInstrumentorE"
  source_file: "/data/aosp/out/soong/.intermediates/hardware/interfaces/media/omx/1.0/android.hardware.media.omx@1.0_genc++_headers/gen/android/hardware/media/omx/1.0/BpHwOmxBufferSource.h"
  parameters {
    basic_abi {
      type_abi {
        name: "android::hardware::IInterface *"
        size: 4
        alignment: 4
      }
      name: "_hidl_this"
      access: public_access
      linker_set_key: "false"
    }
    default_arg: false
  }
  parameters {
    basic_abi {
      type_abi {
        name: "android::hardware::details::HidlInstrumentor *"
        size: 4
        alignment: 4
      }
      name: "_hidl_this_instrumentor"
      access: public_access
      linker_set_key: "false"
    }
    default_arg: false
  }
}
functions {
  basic_abi {
    type_abi {
      name: "android::hardware::Return<void>"
    }
    name: "android::hardware::media::omx::V1_0::BpHwOmxBufferSource::_hidl_onOmxLoaded"
    access: public_access
    linker_set_key: "_ZN7android8hardware5media3omx4V1_019BpHwOmxBufferSource17_hidl_onOmxLoadedEPNS0_10IInterfaceEPNS0_7details16HidlInstrumentorE"
  }
  mangled_function_name: "_ZN7android8hardware5media3omx4V1_019BpHwOmxBufferSource17_hidl_onOmxLoadedEPNS0_10IInterfaceEPNS0_7details16HidlInstrumentorE"
  source_file: "/data/aosp/out/soong/.intermediates/hardware/interfaces/media/omx/1.0/android.hardware.media.omx@1.0_genc++_headers/gen/android/hardware/media/omx/1.0/BpHwOmxBufferSource.h"
  parameters {
    basic_abi {
      type_abi {
        name: "android::hardware::IInterface *"
        size: 4
        alignment: 4
      }
      name: "_hidl_this"
      access: public_access
      linker_set_key: "false"
    }
    default_arg: false
  }
  parameters {
    basic_abi {
      type_abi {
        name: "android::hardware::details::HidlInstrumentor *"
        size: 4
        alignment: 4
      }
      name: "_hidl_this_instrumentor"
      access: public_access
      linker_set_key: "false"
    }
    default_arg: false
  }
}
functions {
  basic_abi {
    type_abi {
      name: "android::hardware::Return<void>"
    }
    name: "android::hardware::media::omx::V1_0::BpHwOmxBufferSource::_hidl_onInputBufferAdded"
    access: public_access
    linker_set_key: "_ZN7android8hardware5media3omx4V1_019BpHwOmxBufferSource24_hidl_onInputBufferAddedEPNS0_10IInterfaceEPNS0_7details16HidlInstrumentorEj"
  }
  mangled_function_name: "_ZN7android8hardware5media3omx4V1_019BpHwOmxBufferSource24_hidl_onInputBufferAddedEPNS0_10IInterfaceEPNS0_7details16HidlInstrumentorEj"
  source_file: "/data/aosp/out/soong/.intermediates/hardware/interfaces/media/omx/1.0/android.hardware.media.omx@1.0_genc++_headers/gen/android/hardware/media/omx/1.0/BpHwOmxBufferSource.h"
  parameters {
    basic_abi {
      type_abi {
        name: "android::hardware::IInterface *"
        size: 4
        alignment: 4
      }
      name: "_hidl_this"
      access: public_access
      linker_set_key: "false"
    }
    default_arg: false
  }
  parameters {
    basic_abi {
      type_abi {
        name: "android::hardware::details::HidlInstrumentor *"
        size: 4
        alignment: 4
      }
      name: "_hidl_this_instrumentor"
      access: public_access
      linker_set_key: "false"
    }
    default_arg: false
  }
  parameters {
    basic_abi {
      type_abi {
        name: "unsigned int"
        size: 4
        alignment: 4
      }
      name: "buffer"
      access: public_access
      linker_set_key: "false"
    }
    default_arg: false
  }
}
functions {
  basic_abi {
    type_abi {
      name: "android::hardware::Return<void>"
    }
    name: "android::hardware::media::omx::V1_0::BpHwOmxBufferSource::_hidl_onInputBufferEmptied"
    access: public_access
    linker_set_key: "_ZN7android8hardware5media3omx4V1_019BpHwOmxBufferSource26_hidl_onInputBufferEmptiedEPNS0_10IInterfaceEPNS0_7details16HidlInstrumentorEjRKNS0_11hidl_handleE"
  }
  mangled_function_name: "_ZN7android8hardware5media3omx4V1_019BpHwOmxBufferSource26_hidl_onInputBufferEmptiedEPNS0_10IInterfaceEPNS0_7details16HidlInstrumentorEjRKNS0_11hidl_handleE"
  source_file: "/data/aosp/out/soong/.intermediates/hardware/interfaces/media/omx/1.0/android.hardware.media.omx@1.0_genc++_headers/gen/android/hardware/media/omx/1.0/BpHwOmxBufferSource.h"
  parameters {
    basic_abi {
      type_abi {
        name: "android::hardware::IInterface *"
        size: 4
        alignment: 4
      }
      name: "_hidl_this"
      access: public_access
      linker_set_key: "false"
    }
    default_arg: false
  }
  parameters {
    basic_abi {
      type_abi {
        name: "android::hardware::details::HidlInstrumentor *"
        size: 4
        alignment: 4
      }
      name: "_hidl_this_instrumentor"
      access: public_access
      linker_set_key: "false"
    }
    default_arg: false
  }
  parameters {
    basic_abi {
      type_abi {
        name: "unsigned int"
        size: 4
        alignment: 4
      }
      name: "buffer"
      access: public_access
      linker_set_key: "false"
    }
    default_arg: false
  }
  parameters {
    basic_abi {
      type_abi {
        name: "const android::hardware::hidl_handle &"
      }
      name: "fence"
      access: public_access
      linker_set_key: "false"
    }
    default_arg: false
  }
}
functions {
  basic_abi {
    type_abi {
      name: "android::hardware::Return<void>"
    }
    name: "android::hardware::media::omx::V1_0::BpHwOmxBufferSource::onOmxExecuting"
    access: public_access
    linker_set_key: "_ZN7android8hardware5media3omx4V1_019BpHwOmxBufferSource14onOmxExecutingEv"
  }
  mangled_function_name: "_ZN7android8hardware5media3omx4V1_019BpHwOmxBufferSource14onOmxExecutingEv"
  source_file: "/data/aosp/out/soong/.intermediates/hardware/interfaces/media/omx/1.0/android.hardware.media.omx@1.0_genc++_headers/gen/android/hardware/media/omx/1.0/BpHwOmxBufferSource.h"
}
functions {
  basic_abi {
    type_abi {
      name: "android::hardware::Return<void>"
    }
    name: "android::hardware::media::omx::V1_0::BpHwOmxBufferSource::onOmxIdle"
    access: public_access
    linker_set_key: "_ZN7android8hardware5media3omx4V1_019BpHwOmxBufferSource9onOmxIdleEv"
  }
  mangled_function_name: "_ZN7android8hardware5media3omx4V1_019BpHwOmxBufferSource9onOmxIdleEv"
  source_file: "/data/aosp/out/soong/.intermediates/hardware/interfaces/media/omx/1.0/android.hardware.media.omx@1.0_genc++_headers/gen/android/hardware/media/omx/1.0/BpHwOmxBufferSource.h"
}
functions {
  basic_abi {
    type_abi {
      name: "android::hardware::Return<void>"
    }
    name: "android::hardware::media::omx::V1_0::BpHwOmxBufferSource::onOmxLoaded"
    access: public_access
    linker_set_key: "_ZN7android8hardware5media3omx4V1_019BpHwOmxBufferSource11onOmxLoadedEv"
  }
  mangled_function_name: "_ZN7android8hardware5media3omx4V1_019BpHwOmxBufferSource11onOmxLoadedEv"
  source_file: "/data/aosp/out/soong/.intermediates/hardware/interfaces/media/omx/1.0/android.hardware.media.omx@1.0_genc++_headers/gen/android/hardware/media/omx/1.0/BpHwOmxBufferSource.h"
}
functions {
  basic_abi {
    type_abi {
      name: "android::hardware::Return<void>"
    }
    name: "android::hardware::media::omx::V1_0::BpHwOmxBufferSource::onInputBufferAdded"
    access: public_access
    linker_set_key: "_ZN7android8hardware5media3omx4V1_019BpHwOmxBufferSource18onInputBufferAddedEj"
  }
  mangled_function_name: "_ZN7android8hardware5media3omx4V1_019BpHwOmxBufferSource18onInputBufferAddedEj"
  source_file: "/data/aosp/out/soong/.intermediates/hardware/interfaces/media/omx/1.0/android.hardware.media.omx@1.0_genc++_headers/gen/android/hardware/media/omx/1.0/BpHwOmxBufferSource.h"
  parameters {
    basic_abi {
      type_abi {
        name: "unsigned int"
        size: 4
        alignment: 4
      }
      name: "buffer"
      access: public_access
      linker_set_key: "false"
    }
    default_arg: false
  }
}
functions {
  basic_abi {
    type_abi {
      name: "android::hardware::Return<void>"
    }
    name: "android::hardware::media::omx::V1_0::BpHwOmxBufferSource::onInputBufferEmptied"
    access: public_access
    linker_set_key: "_ZN7android8hardware5media3omx4V1_019BpHwOmxBufferSource20onInputBufferEmptiedEjRKNS0_11hidl_handleE"
  }
  mangled_function_name: "_ZN7android8hardware5media3omx4V1_019BpHwOmxBufferSource20onInputBufferEmptiedEjRKNS0_11hidl_handleE"
  source_file: "/data/aosp/out/soong/.intermediates/hardware/interfaces/media/omx/1.0/android.hardware.media.omx@1.0_genc++_headers/gen/android/hardware/media/omx/1.0/BpHwOmxBufferSource.h"
  parameters {
    basic_abi {
      type_abi {
        name: "unsigned int"
        size: 4
        alignment: 4
      }
      name: "buffer"
      access: public_access
      linker_set_key: "false"
    }
    default_arg: false
  }
  parameters {
    basic_abi {
      type_abi {
        name: "const android::hardware::hidl_handle &"
      }
      name: "fence"
      access: public_access
      linker_set_key: "false"
    }
    default_arg: false
  }
}
functions {
  basic_abi {
    type_abi {
      name: "android::hardware::Return<void>"
    }
    name: "android::hardware::media::omx::V1_0::BpHwOmxBufferSource::interfaceChain"
    access: public_access
    linker_set_key: "_ZN7android8hardware5media3omx4V1_019BpHwOmxBufferSource14interfaceChainENSt3__18functionIFvRKNS0_8hidl_vecINS0_11hidl_stringEEEEEE"
  }
  mangled_function_name: "_ZN7android8hardware5media3omx4V1_019BpHwOmxBufferSource14interfaceChainENSt3__18functionIFvRKNS0_8hidl_vecINS0_11hidl_stringEEEEEE"
  source_file: "/data/aosp/out/soong/.intermediates/hardware/interfaces/media/omx/1.0/android.hardware.media.omx@1.0_genc++_headers/gen/android/hardware/media/omx/1.0/BpHwOmxBufferSource.h"
  parameters {
    basic_abi {
      type_abi {
        name: "std::function<void (const hidl_vec<hidl_string> &)>"
      }
      name: "_hidl_cb"
      access: public_access
      linker_set_key: "false"
    }
    default_arg: false
  }
}
functions {
  basic_abi {
    type_abi {
      name: "android::hardware::Return<void>"
    }
    name: "android::hardware::media::omx::V1_0::BpHwOmxBufferSource::debug"
    access: public_access
    linker_set_key: "_ZN7android8hardware5media3omx4V1_019BpHwOmxBufferSource5debugERKNS0_11hidl_handleERKNS0_8hidl_vecINS0_11hidl_stringEEE"
  }
  mangled_function_name: "_ZN7android8hardware5media3omx4V1_019BpHwOmxBufferSource5debugERKNS0_11hidl_handleERKNS0_8hidl_vecINS0_11hidl_stringEEE"
  source_file: "/data/aosp/out/soong/.intermediates/hardware/interfaces/media/omx/1.0/android.hardware.media.omx@1.0_genc++_headers/gen/android/hardware/media/omx/1.0/BpHwOmxBufferSource.h"
  parameters {
    basic_abi {
      type_abi {
        name: "const android::hardware::hidl_handle &"
      }
      name: "fd"
      access: public_access
      linker_set_key: "false"
    }
    default_arg: false
  }
  parameters {
    basic_abi {
      type_abi {
        name: "const android::hardware::hidl_vec<android::hardware::hidl_string> &"
      }
      name: "options"
      access: public_access
      linker_set_key: "false"
    }
    default_arg: false
  }
}
functions {
  basic_abi {
    type_abi {
      name: "android::hardware::Return<void>"
    }
    name: "android::hardware::media::omx::V1_0::BpHwOmxBufferSource::interfaceDescriptor"
    access: public_access
    linker_set_key: "_ZN7android8hardware5media3omx4V1_019BpHwOmxBufferSource19interfaceDescriptorENSt3__18functionIFvRKNS0_11hidl_stringEEEE"
  }
  mangled_function_name: "_ZN7android8hardware5media3omx4V1_019BpHwOmxBufferSource19interfaceDescriptorENSt3__18functionIFvRKNS0_11hidl_stringEEEE"
  source_file: "/data/aosp/out/soong/.intermediates/hardware/interfaces/media/omx/1.0/android.hardware.media.omx@1.0_genc++_headers/gen/android/hardware/media/omx/1.0/BpHwOmxBufferSource.h"
  parameters {
    basic_abi {
      type_abi {
        name: "std::function<void (const hidl_string &)>"
      }
      name: "_hidl_cb"
      access: public_access
      linker_set_key: "false"
    }
    default_arg: false
  }
}
functions {
  basic_abi {
    type_abi {
      name: "android::hardware::Return<void>"
    }
    name: "android::hardware::media::omx::V1_0::BpHwOmxBufferSource::getHashChain"
    access: public_access
    linker_set_key: "_ZN7android8hardware5media3omx4V1_019BpHwOmxBufferSource12getHashChainENSt3__18functionIFvRKNS0_8hidl_vecINS0_10hidl_arrayIhLj32EJEEEEEEEE"
  }
  mangled_function_name: "_ZN7android8hardware5media3omx4V1_019BpHwOmxBufferSource12getHashChainENSt3__18functionIFvRKNS0_8hidl_vecINS0_10hidl_arrayIhLj32EJEEEEEEEE"
  source_file: "/data/aosp/out/soong/.intermediates/hardware/interfaces/media/omx/1.0/android.hardware.media.omx@1.0_genc++_headers/gen/android/hardware/media/omx/1.0/BpHwOmxBufferSource.h"
  parameters {
    basic_abi {
      type_abi {
        name: "std::function<void (const hidl_vec<hidl_array<unsigned char, 32> > &)>"
      }
      name: "_hidl_cb"
      access: public_access
      linker_set_key: "false"
    }
    default_arg: false
  }
}
functions {
  basic_abi {
    type_abi {
      name: "android::hardware::Return<void>"
    }
    name: "android::hardware::media::omx::V1_0::BpHwOmxBufferSource::setHALInstrumentation"
    access: public_access
    linker_set_key: "_ZN7android8hardware5media3omx4V1_019BpHwOmxBufferSource21setHALInstrumentationEv"
  }
  mangled_function_name: "_ZN7android8hardware5media3omx4V1_019BpHwOmxBufferSource21setHALInstrumentationEv"
  source_file: "/data/aosp/out/soong/.intermediates/hardware/interfaces/media/omx/1.0/android.hardware.media.omx@1.0_genc++_headers/gen/android/hardware/media/omx/1.0/BpHwOmxBufferSource.h"
}
functions {
  basic_abi {
    type_abi {
      name: "android::hardware::Return<bool>"
    }
    name: "android::hardware::media::omx::V1_0::BpHwOmxBufferSource::linkToDeath"
    access: public_access
    linker_set_key: "_ZN7android8hardware5media3omx4V1_019BpHwOmxBufferSource11linkToDeathERKNS_2spINS0_20hidl_death_recipientEEEy"
  }
  mangled_function_name: "_ZN7android8hardware5media3omx4V1_019BpHwOmxBufferSource11linkToDeathERKNS_2spINS0_20hidl_death_recipientEEEy"
  source_file: "/data/aosp/out/soong/.intermediates/hardware/interfaces/media/omx/1.0/android.hardware.media.omx@1.0_genc++_headers/gen/android/hardware/media/omx/1.0/BpHwOmxBufferSource.h"
  parameters {
    basic_abi {
      type_abi {
        name: "const android::sp<android::hardware::hidl_death_recipient> &"
      }
      name: "recipient"
      access: public_access
      linker_set_key: "false"
    }
    default_arg: false
  }
  parameters {
    basic_abi {
      type_abi {
        name: "unsigned long long"
        size: 8
        alignment: 8
      }
      name: "cookie"
      access: public_access
      linker_set_key: "false"
    }
    default_arg: false
  }
}
functions {
  basic_abi {
    type_abi {
      name: "android::hardware::Return<void>"
    }
    name: "android::hardware::media::omx::V1_0::BpHwOmxBufferSource::ping"
    access: public_access
    linker_set_key: "_ZN7android8hardware5media3omx4V1_019BpHwOmxBufferSource4pingEv"
  }
  mangled_function_name: "_ZN7android8hardware5media3omx4V1_019BpHwOmxBufferSource4pingEv"
  source_file: "/data/aosp/out/soong/.intermediates/hardware/interfaces/media/omx/1.0/android.hardware.media.omx@1.0_genc++_headers/gen/android/hardware/media/omx/1.0/BpHwOmxBufferSource.h"
}
functions {
  basic_abi {
    type_abi {
      name: "android::hardware::Return<void>"
    }
    name: "android::hardware::media::omx::V1_0::BpHwOmxBufferSource::getDebugInfo"
    access: public_access
    linker_set_key: "_ZN7android8hardware5media3omx4V1_019BpHwOmxBufferSource12getDebugInfoENSt3__18functionIFvRKNS_4hidl4base4V1_09DebugInfoEEEE"
  }
  mangled_function_name: "_ZN7android8hardware5media3omx4V1_019BpHwOmxBufferSource12getDebugInfoENSt3__18functionIFvRKNS_4hidl4base4V1_09DebugInfoEEEE"
  source_file: "/data/aosp/out/soong/.intermediates/hardware/interfaces/media/omx/1.0/android.hardware.media.omx@1.0_genc++_headers/gen/android/hardware/media/omx/1.0/BpHwOmxBufferSource.h"
  parameters {
    basic_abi {
      type_abi {
        name: "std::function<void (const DebugInfo &)>"
      }
      name: "_hidl_cb"
      access: public_access
      linker_set_key: "false"
    }
    default_arg: false
  }
}
functions {
  basic_abi {
    type_abi {
      name: "android::hardware::Return<void>"
    }
    name: "android::hardware::media::omx::V1_0::BpHwOmxBufferSource::notifySyspropsChanged"
    access: public_access
    linker_set_key: "_ZN7android8hardware5media3omx4V1_019BpHwOmxBufferSource21notifySyspropsChangedEv"
  }
  mangled_function_name: "_ZN7android8hardware5media3omx4V1_019BpHwOmxBufferSource21notifySyspropsChangedEv"
  source_file: "/data/aosp/out/soong/.intermediates/hardware/interfaces/media/omx/1.0/android.hardware.media.omx@1.0_genc++_headers/gen/android/hardware/media/omx/1.0/BpHwOmxBufferSource.h"
}
functions {
  basic_abi {
    type_abi {
      name: "android::hardware::Return<bool>"
    }
    name: "android::hardware::media::omx::V1_0::BpHwOmxBufferSource::unlinkToDeath"
    access: public_access
    linker_set_key: "_ZN7android8hardware5media3omx4V1_019BpHwOmxBufferSource13unlinkToDeathERKNS_2spINS0_20hidl_death_recipientEEE"
  }
  mangled_function_name: "_ZN7android8hardware5media3omx4V1_019BpHwOmxBufferSource13unlinkToDeathERKNS_2spINS0_20hidl_death_recipientEEE"
  source_file: "/data/aosp/out/soong/.intermediates/hardware/interfaces/media/omx/1.0/android.hardware.media.omx@1.0_genc++_headers/gen/android/hardware/media/omx/1.0/BpHwOmxBufferSource.h"
  parameters {
    basic_abi {
      type_abi {
        name: "const android::sp<android::hardware::hidl_death_recipient> &"
      }
      name: "recipient"
      access: public_access
      linker_set_key: "false"
    }
    default_arg: false
  }
}
functions {
  basic_abi {
    type_abi {
      name: "void"
    }
    name: "android::hardware::media::omx::V1_0::BpHwOmxNode::BpHwOmxNode"
    access: public_access
    linker_set_key: "_ZN7android8hardware5media3omx4V1_011BpHwOmxNodeC2ERKNS_2spINS0_7IBinderEEE"
  }
  mangled_function_name: "_ZN7android8hardware5media3omx4V1_011BpHwOmxNodeC2ERKNS_2spINS0_7IBinderEEE"
  source_file: "/data/aosp/out/soong/.intermediates/hardware/interfaces/media/omx/1.0/android.hardware.media.omx@1.0_genc++_headers/gen/android/hardware/media/omx/1.0/BpHwOmxNode.h"
  parameters {
    basic_abi {
      type_abi {
        name: "const android::sp<android::hardware::IBinder> &"
      }
      name: "_hidl_impl"
      access: public_access
      linker_set_key: "false"
    }
    default_arg: false
  }
}
functions {
  basic_abi {
    type_abi {
      name: "void"
    }
    name: "android::hardware::media::omx::V1_0::BpHwOmxNode::BpHwOmxNode"
    access: public_access
    linker_set_key: "_ZN7android8hardware5media3omx4V1_011BpHwOmxNodeC1ERKNS_2spINS0_7IBinderEEE"
  }
  mangled_function_name: "_ZN7android8hardware5media3omx4V1_011BpHwOmxNodeC1ERKNS_2spINS0_7IBinderEEE"
  source_file: "/data/aosp/out/soong/.intermediates/hardware/interfaces/media/omx/1.0/android.hardware.media.omx@1.0_genc++_headers/gen/android/hardware/media/omx/1.0/BpHwOmxNode.h"
  parameters {
    basic_abi {
      type_abi {
        name: "const android::sp<android::hardware::IBinder> &"
      }
      name: "_hidl_impl"
      access: public_access
      linker_set_key: "false"
    }
    default_arg: false
  }
}
functions {
  basic_abi {
    type_abi {
      name: "bool"
      size: 1
      alignment: 1
    }
    name: "android::hardware::media::omx::V1_0::BpHwOmxNode::isRemote"
    access: public_access
    linker_set_key: "_ZNK7android8hardware5media3omx4V1_011BpHwOmxNode8isRemoteEv"
  }
  mangled_function_name: "_ZNK7android8hardware5media3omx4V1_011BpHwOmxNode8isRemoteEv"
  source_file: "/data/aosp/out/soong/.intermediates/hardware/interfaces/media/omx/1.0/android.hardware.media.omx@1.0_genc++_headers/gen/android/hardware/media/omx/1.0/BpHwOmxNode.h"
}
functions {
  basic_abi {
    type_abi {
      name: "android::hardware::Return<android::hardware::media::omx::V1_0::Status>"
    }
    name: "android::hardware::media::omx::V1_0::BpHwOmxNode::_hidl_freeNode"
    access: public_access
    linker_set_key: "_ZN7android8hardware5media3omx4V1_011BpHwOmxNode14_hidl_freeNodeEPNS0_10IInterfaceEPNS0_7details16HidlInstrumentorE"
  }
  mangled_function_name: "_ZN7android8hardware5media3omx4V1_011BpHwOmxNode14_hidl_freeNodeEPNS0_10IInterfaceEPNS0_7details16HidlInstrumentorE"
  source_file: "/data/aosp/out/soong/.intermediates/hardware/interfaces/media/omx/1.0/android.hardware.media.omx@1.0_genc++_headers/gen/android/hardware/media/omx/1.0/BpHwOmxNode.h"
  parameters {
    basic_abi {
      type_abi {
        name: "android::hardware::IInterface *"
        size: 4
        alignment: 4
      }
      name: "_hidl_this"
      access: public_access
      linker_set_key: "false"
    }
    default_arg: false
  }
  parameters {
    basic_abi {
      type_abi {
        name: "android::hardware::details::HidlInstrumentor *"
        size: 4
        alignment: 4
      }
      name: "_hidl_this_instrumentor"
      access: public_access
      linker_set_key: "false"
    }
    default_arg: false
  }
}
functions {
  basic_abi {
    type_abi {
      name: "android::hardware::Return<android::hardware::media::omx::V1_0::Status>"
    }
    name: "android::hardware::media::omx::V1_0::BpHwOmxNode::_hidl_sendCommand"
    access: public_access
    linker_set_key: "_ZN7android8hardware5media3omx4V1_011BpHwOmxNode17_hidl_sendCommandEPNS0_10IInterfaceEPNS0_7details16HidlInstrumentorEji"
  }
  mangled_function_name: "_ZN7android8hardware5media3omx4V1_011BpHwOmxNode17_hidl_sendCommandEPNS0_10IInterfaceEPNS0_7details16HidlInstrumentorEji"
  source_file: "/data/aosp/out/soong/.intermediates/hardware/interfaces/media/omx/1.0/android.hardware.media.omx@1.0_genc++_headers/gen/android/hardware/media/omx/1.0/BpHwOmxNode.h"
  parameters {
    basic_abi {
      type_abi {
        name: "android::hardware::IInterface *"
        size: 4
        alignment: 4
      }
      name: "_hidl_this"
      access: public_access
      linker_set_key: "false"
    }
    default_arg: false
  }
  parameters {
    basic_abi {
      type_abi {
        name: "android::hardware::details::HidlInstrumentor *"
        size: 4
        alignment: 4
      }
      name: "_hidl_this_instrumentor"
      access: public_access
      linker_set_key: "false"
    }
    default_arg: false
  }
  parameters {
    basic_abi {
      type_abi {
        name: "unsigned int"
        size: 4
        alignment: 4
      }
      name: "cmd"
      access: public_access
      linker_set_key: "false"
    }
    default_arg: false
  }
  parameters {
    basic_abi {
      type_abi {
        name: "int"
        size: 4
        alignment: 4
      }
      name: "param"
      access: public_access
      linker_set_key: "false"
    }
    default_arg: false
  }
}
functions {
  basic_abi {
    type_abi {
      name: "android::hardware::Return<void>"
    }
    name: "android::hardware::media::omx::V1_0::BpHwOmxNode::_hidl_getParameter"
    access: public_access
    linker_set_key: "_ZN7android8hardware5media3omx4V1_011BpHwOmxNode18_hidl_getParameterEPNS0_10IInterfaceEPNS0_7details16HidlInstrumentorEjRKNS0_8hidl_vecIhEENSt3__18functionIFvNS3_6StatusESD_EEE"
  }
  mangled_function_name: "_ZN7android8hardware5media3omx4V1_011BpHwOmxNode18_hidl_getParameterEPNS0_10IInterfaceEPNS0_7details16HidlInstrumentorEjRKNS0_8hidl_vecIhEENSt3__18functionIFvNS3_6StatusESD_EEE"
  source_file: "/data/aosp/out/soong/.intermediates/hardware/interfaces/media/omx/1.0/android.hardware.media.omx@1.0_genc++_headers/gen/android/hardware/media/omx/1.0/BpHwOmxNode.h"
  parameters {
    basic_abi {
      type_abi {
        name: "android::hardware::IInterface *"
        size: 4
        alignment: 4
      }
      name: "_hidl_this"
      access: public_access
      linker_set_key: "false"
    }
    default_arg: false
  }
  parameters {
    basic_abi {
      type_abi {
        name: "android::hardware::details::HidlInstrumentor *"
        size: 4
        alignment: 4
      }
      name: "_hidl_this_instrumentor"
      access: public_access
      linker_set_key: "false"
    }
    default_arg: false
  }
  parameters {
    basic_abi {
      type_abi {
        name: "unsigned int"
        size: 4
        alignment: 4
      }
      name: "index"
      access: public_access
      linker_set_key: "false"
    }
    default_arg: false
  }
  parameters {
    basic_abi {
      type_abi {
        name: "const android::hardware::hidl_vec<unsigned char> &"
      }
      name: "inParams"
      access: public_access
      linker_set_key: "false"
    }
    default_arg: false
  }
  parameters {
    basic_abi {
      type_abi {
        name: "std::function<void (Status, const hidl_vec<unsigned char> &)>"
      }
      name: "_hidl_cb"
      access: public_access
      linker_set_key: "false"
    }
    default_arg: false
  }
}
functions {
  basic_abi {
    type_abi {
      name: "android::hardware::Return<android::hardware::media::omx::V1_0::Status>"
    }
    name: "android::hardware::media::omx::V1_0::BpHwOmxNode::_hidl_setParameter"
    access: public_access
    linker_set_key: "_ZN7android8hardware5media3omx4V1_011BpHwOmxNode18_hidl_setParameterEPNS0_10IInterfaceEPNS0_7details16HidlInstrumentorEjRKNS0_8hidl_vecIhEE"
  }
  mangled_function_name: "_ZN7android8hardware5media3omx4V1_011BpHwOmxNode18_hidl_setParameterEPNS0_10IInterfaceEPNS0_7details16HidlInstrumentorEjRKNS0_8hidl_vecIhEE"
  source_file: "/data/aosp/out/soong/.intermediates/hardware/interfaces/media/omx/1.0/android.hardware.media.omx@1.0_genc++_headers/gen/android/hardware/media/omx/1.0/BpHwOmxNode.h"
  parameters {
    basic_abi {
      type_abi {
        name: "android::hardware::IInterface *"
        size: 4
        alignment: 4
      }
      name: "_hidl_this"
      access: public_access
      linker_set_key: "false"
    }
    default_arg: false
  }
  parameters {
    basic_abi {
      type_abi {
        name: "android::hardware::details::HidlInstrumentor *"
        size: 4
        alignment: 4
      }
      name: "_hidl_this_instrumentor"
      access: public_access
      linker_set_key: "false"
    }
    default_arg: false
  }
  parameters {
    basic_abi {
      type_abi {
        name: "unsigned int"
        size: 4
        alignment: 4
      }
      name: "index"
      access: public_access
      linker_set_key: "false"
    }
    default_arg: false
  }
  parameters {
    basic_abi {
      type_abi {
        name: "const android::hardware::hidl_vec<unsigned char> &"
      }
      name: "params"
      access: public_access
      linker_set_key: "false"
    }
    default_arg: false
  }
}
functions {
  basic_abi {
    type_abi {
      name: "android::hardware::Return<void>"
    }
    name: "android::hardware::media::omx::V1_0::BpHwOmxNode::_hidl_getConfig"
    access: public_access
    linker_set_key: "_ZN7android8hardware5media3omx4V1_011BpHwOmxNode15_hidl_getConfigEPNS0_10IInterfaceEPNS0_7details16HidlInstrumentorEjRKNS0_8hidl_vecIhEENSt3__18functionIFvNS3_6StatusESD_EEE"
  }
  mangled_function_name: "_ZN7android8hardware5media3omx4V1_011BpHwOmxNode15_hidl_getConfigEPNS0_10IInterfaceEPNS0_7details16HidlInstrumentorEjRKNS0_8hidl_vecIhEENSt3__18functionIFvNS3_6StatusESD_EEE"
  source_file: "/data/aosp/out/soong/.intermediates/hardware/interfaces/media/omx/1.0/android.hardware.media.omx@1.0_genc++_headers/gen/android/hardware/media/omx/1.0/BpHwOmxNode.h"
  parameters {
    basic_abi {
      type_abi {
        name: "android::hardware::IInterface *"
        size: 4
        alignment: 4
      }
      name: "_hidl_this"
      access: public_access
      linker_set_key: "false"
    }
    default_arg: false
  }
  parameters {
    basic_abi {
      type_abi {
        name: "android::hardware::details::HidlInstrumentor *"
        size: 4
        alignment: 4
      }
      name: "_hidl_this_instrumentor"
      access: public_access
      linker_set_key: "false"
    }
    default_arg: false
  }
  parameters {
    basic_abi {
      type_abi {
        name: "unsigned int"
        size: 4
        alignment: 4
      }
      name: "index"
      access: public_access
      linker_set_key: "false"
    }
    default_arg: false
  }
  parameters {
    basic_abi {
      type_abi {
        name: "const android::hardware::hidl_vec<unsigned char> &"
      }
      name: "inConfig"
      access: public_access
      linker_set_key: "false"
    }
    default_arg: false
  }
  parameters {
    basic_abi {
      type_abi {
        name: "std::function<void (Status, const hidl_vec<unsigned char> &)>"
      }
      name: "_hidl_cb"
      access: public_access
      linker_set_key: "false"
    }
    default_arg: false
  }
}
functions {
  basic_abi {
    type_abi {
      name: "android::hardware::Return<android::hardware::media::omx::V1_0::Status>"
    }
    name: "android::hardware::media::omx::V1_0::BpHwOmxNode::_hidl_setConfig"
    access: public_access
    linker_set_key: "_ZN7android8hardware5media3omx4V1_011BpHwOmxNode15_hidl_setConfigEPNS0_10IInterfaceEPNS0_7details16HidlInstrumentorEjRKNS0_8hidl_vecIhEE"
  }
  mangled_function_name: "_ZN7android8hardware5media3omx4V1_011BpHwOmxNode15_hidl_setConfigEPNS0_10IInterfaceEPNS0_7details16HidlInstrumentorEjRKNS0_8hidl_vecIhEE"
  source_file: "/data/aosp/out/soong/.intermediates/hardware/interfaces/media/omx/1.0/android.hardware.media.omx@1.0_genc++_headers/gen/android/hardware/media/omx/1.0/BpHwOmxNode.h"
  parameters {
    basic_abi {
      type_abi {
        name: "android::hardware::IInterface *"
        size: 4
        alignment: 4
      }
      name: "_hidl_this"
      access: public_access
      linker_set_key: "false"
    }
    default_arg: false
  }
  parameters {
    basic_abi {
      type_abi {
        name: "android::hardware::details::HidlInstrumentor *"
        size: 4
        alignment: 4
      }
      name: "_hidl_this_instrumentor"
      access: public_access
      linker_set_key: "false"
    }
    default_arg: false
  }
  parameters {
    basic_abi {
      type_abi {
        name: "unsigned int"
        size: 4
        alignment: 4
      }
      name: "index"
      access: public_access
      linker_set_key: "false"
    }
    default_arg: false
  }
  parameters {
    basic_abi {
      type_abi {
        name: "const android::hardware::hidl_vec<unsigned char> &"
      }
      name: "config"
      access: public_access
      linker_set_key: "false"
    }
    default_arg: false
  }
}
functions {
  basic_abi {
    type_abi {
      name: "android::hardware::Return<android::hardware::media::omx::V1_0::Status>"
    }
    name: "android::hardware::media::omx::V1_0::BpHwOmxNode::_hidl_setPortMode"
    access: public_access
    linker_set_key: "_ZN7android8hardware5media3omx4V1_011BpHwOmxNode17_hidl_setPortModeEPNS0_10IInterfaceEPNS0_7details16HidlInstrumentorEjNS3_8PortModeE"
  }
  mangled_function_name: "_ZN7android8hardware5media3omx4V1_011BpHwOmxNode17_hidl_setPortModeEPNS0_10IInterfaceEPNS0_7details16HidlInstrumentorEjNS3_8PortModeE"
  source_file: "/data/aosp/out/soong/.intermediates/hardware/interfaces/media/omx/1.0/android.hardware.media.omx@1.0_genc++_headers/gen/android/hardware/media/omx/1.0/BpHwOmxNode.h"
  parameters {
    basic_abi {
      type_abi {
        name: "android::hardware::IInterface *"
        size: 4
        alignment: 4
      }
      name: "_hidl_this"
      access: public_access
      linker_set_key: "false"
    }
    default_arg: false
  }
  parameters {
    basic_abi {
      type_abi {
        name: "android::hardware::details::HidlInstrumentor *"
        size: 4
        alignment: 4
      }
      name: "_hidl_this_instrumentor"
      access: public_access
      linker_set_key: "false"
    }
    default_arg: false
  }
  parameters {
    basic_abi {
      type_abi {
        name: "unsigned int"
        size: 4
        alignment: 4
      }
      name: "portIndex"
      access: public_access
      linker_set_key: "false"
    }
    default_arg: false
  }
  parameters {
    basic_abi {
      type_abi {
        name: "android::hardware::media::omx::V1_0::PortMode"
      }
      name: "mode"
      access: public_access
      linker_set_key: "false"
    }
    default_arg: false
  }
}
functions {
  basic_abi {
    type_abi {
      name: "android::hardware::Return<android::hardware::media::omx::V1_0::Status>"
    }
    name: "android::hardware::media::omx::V1_0::BpHwOmxNode::_hidl_prepareForAdaptivePlayback"
    access: public_access
    linker_set_key: "_ZN7android8hardware5media3omx4V1_011BpHwOmxNode32_hidl_prepareForAdaptivePlaybackEPNS0_10IInterfaceEPNS0_7details16HidlInstrumentorEjbjj"
  }
  mangled_function_name: "_ZN7android8hardware5media3omx4V1_011BpHwOmxNode32_hidl_prepareForAdaptivePlaybackEPNS0_10IInterfaceEPNS0_7details16HidlInstrumentorEjbjj"
  source_file: "/data/aosp/out/soong/.intermediates/hardware/interfaces/media/omx/1.0/android.hardware.media.omx@1.0_genc++_headers/gen/android/hardware/media/omx/1.0/BpHwOmxNode.h"
  parameters {
    basic_abi {
      type_abi {
        name: "android::hardware::IInterface *"
        size: 4
        alignment: 4
      }
      name: "_hidl_this"
      access: public_access
      linker_set_key: "false"
    }
    default_arg: false
  }
  parameters {
    basic_abi {
      type_abi {
        name: "android::hardware::details::HidlInstrumentor *"
        size: 4
        alignment: 4
      }
      name: "_hidl_this_instrumentor"
      access: public_access
      linker_set_key: "false"
    }
    default_arg: false
  }
  parameters {
    basic_abi {
      type_abi {
        name: "unsigned int"
        size: 4
        alignment: 4
      }
      name: "portIndex"
      access: public_access
      linker_set_key: "false"
    }
    default_arg: false
  }
  parameters {
    basic_abi {
      type_abi {
        name: "bool"
        size: 1
        alignment: 1
      }
      name: "enable"
      access: public_access
      linker_set_key: "false"
    }
    default_arg: false
  }
  parameters {
    basic_abi {
      type_abi {
        name: "unsigned int"
        size: 4
        alignment: 4
      }
      name: "maxFrameWidth"
      access: public_access
      linker_set_key: "false"
    }
    default_arg: false
  }
  parameters {
    basic_abi {
      type_abi {
        name: "unsigned int"
        size: 4
        alignment: 4
      }
      name: "maxFrameHeight"
      access: public_access
      linker_set_key: "false"
    }
    default_arg: false
  }
}
functions {
  basic_abi {
    type_abi {
      name: "android::hardware::Return<void>"
    }
    name: "android::hardware::media::omx::V1_0::BpHwOmxNode::_hidl_configureVideoTunnelMode"
    access: public_access
    linker_set_key: "_ZN7android8hardware5media3omx4V1_011BpHwOmxNode30_hidl_configureVideoTunnelModeEPNS0_10IInterfaceEPNS0_7details16HidlInstrumentorEjbjNSt3__18functionIFvNS3_6StatusERKNS0_11hidl_handleEEEE"
  }
  mangled_function_name: "_ZN7android8hardware5media3omx4V1_011BpHwOmxNode30_hidl_configureVideoTunnelModeEPNS0_10IInterfaceEPNS0_7details16HidlInstrumentorEjbjNSt3__18functionIFvNS3_6StatusERKNS0_11hidl_handleEEEE"
  source_file: "/data/aosp/out/soong/.intermediates/hardware/interfaces/media/omx/1.0/android.hardware.media.omx@1.0_genc++_headers/gen/android/hardware/media/omx/1.0/BpHwOmxNode.h"
  parameters {
    basic_abi {
      type_abi {
        name: "android::hardware::IInterface *"
        size: 4
        alignment: 4
      }
      name: "_hidl_this"
      access: public_access
      linker_set_key: "false"
    }
    default_arg: false
  }
  parameters {
    basic_abi {
      type_abi {
        name: "android::hardware::details::HidlInstrumentor *"
        size: 4
        alignment: 4
      }
      name: "_hidl_this_instrumentor"
      access: public_access
      linker_set_key: "false"
    }
    default_arg: false
  }
  parameters {
    basic_abi {
      type_abi {
        name: "unsigned int"
        size: 4
        alignment: 4
      }
      name: "portIndex"
      access: public_access
      linker_set_key: "false"
    }
    default_arg: false
  }
  parameters {
    basic_abi {
      type_abi {
        name: "bool"
        size: 1
        alignment: 1
      }
      name: "tunneled"
      access: public_access
      linker_set_key: "false"
    }
    default_arg: false
  }
  parameters {
    basic_abi {
      type_abi {
        name: "unsigned int"
        size: 4
        alignment: 4
      }
      name: "audioHwSync"
      access: public_access
      linker_set_key: "false"
    }
    default_arg: false
  }
  parameters {
    basic_abi {
      type_abi {
        name: "std::function<void (Status, const hidl_handle &)>"
      }
      name: "_hidl_cb"
      access: public_access
      linker_set_key: "false"
    }
    default_arg: false
  }
}
functions {
  basic_abi {
    type_abi {
      name: "android::hardware::Return<void>"
    }
    name: "android::hardware::media::omx::V1_0::BpHwOmxNode::_hidl_getGraphicBufferUsage"
    access: public_access
    linker_set_key: "_ZN7android8hardware5media3omx4V1_011BpHwOmxNode27_hidl_getGraphicBufferUsageEPNS0_10IInterfaceEPNS0_7details16HidlInstrumentorEjNSt3__18functionIFvNS3_6StatusEjEEE"
  }
  mangled_function_name: "_ZN7android8hardware5media3omx4V1_011BpHwOmxNode27_hidl_getGraphicBufferUsageEPNS0_10IInterfaceEPNS0_7details16HidlInstrumentorEjNSt3__18functionIFvNS3_6StatusEjEEE"
  source_file: "/data/aosp/out/soong/.intermediates/hardware/interfaces/media/omx/1.0/android.hardware.media.omx@1.0_genc++_headers/gen/android/hardware/media/omx/1.0/BpHwOmxNode.h"
  parameters {
    basic_abi {
      type_abi {
        name: "android::hardware::IInterface *"
        size: 4
        alignment: 4
      }
      name: "_hidl_this"
      access: public_access
      linker_set_key: "false"
    }
    default_arg: false
  }
  parameters {
    basic_abi {
      type_abi {
        name: "android::hardware::details::HidlInstrumentor *"
        size: 4
        alignment: 4
      }
      name: "_hidl_this_instrumentor"
      access: public_access
      linker_set_key: "false"
    }
    default_arg: false
  }
  parameters {
    basic_abi {
      type_abi {
        name: "unsigned int"
        size: 4
        alignment: 4
      }
      name: "portIndex"
      access: public_access
      linker_set_key: "false"
    }
    default_arg: false
  }
  parameters {
    basic_abi {
      type_abi {
        name: "std::function<void (Status, unsigned int)>"
      }
      name: "_hidl_cb"
      access: public_access
      linker_set_key: "false"
    }
    default_arg: false
  }
}
functions {
  basic_abi {
    type_abi {
      name: "android::hardware::Return<android::hardware::media::omx::V1_0::Status>"
    }
    name: "android::hardware::media::omx::V1_0::BpHwOmxNode::_hidl_setInputSurface"
    access: public_access
    linker_set_key: "_ZN7android8hardware5media3omx4V1_011BpHwOmxNode21_hidl_setInputSurfaceEPNS0_10IInterfaceEPNS0_7details16HidlInstrumentorERKNS_2spINS3_16IOmxBufferSourceEEE"
  }
  mangled_function_name: "_ZN7android8hardware5media3omx4V1_011BpHwOmxNode21_hidl_setInputSurfaceEPNS0_10IInterfaceEPNS0_7details16HidlInstrumentorERKNS_2spINS3_16IOmxBufferSourceEEE"
  source_file: "/data/aosp/out/soong/.intermediates/hardware/interfaces/media/omx/1.0/android.hardware.media.omx@1.0_genc++_headers/gen/android/hardware/media/omx/1.0/BpHwOmxNode.h"
  parameters {
    basic_abi {
      type_abi {
        name: "android::hardware::IInterface *"
        size: 4
        alignment: 4
      }
      name: "_hidl_this"
      access: public_access
      linker_set_key: "false"
    }
    default_arg: false
  }
  parameters {
    basic_abi {
      type_abi {
        name: "android::hardware::details::HidlInstrumentor *"
        size: 4
        alignment: 4
      }
      name: "_hidl_this_instrumentor"
      access: public_access
      linker_set_key: "false"
    }
    default_arg: false
  }
  parameters {
    basic_abi {
      type_abi {
        name: "const android::sp<android::hardware::media::omx::V1_0::IOmxBufferSource> &"
      }
      name: "bufferSource"
      access: public_access
      linker_set_key: "false"
    }
    default_arg: false
  }
}
functions {
  basic_abi {
    type_abi {
      name: "android::hardware::Return<void>"
    }
    name: "android::hardware::media::omx::V1_0::BpHwOmxNode::_hidl_allocateSecureBuffer"
    access: public_access
    linker_set_key: "_ZN7android8hardware5media3omx4V1_011BpHwOmxNode26_hidl_allocateSecureBufferEPNS0_10IInterfaceEPNS0_7details16HidlInstrumentorEjyNSt3__18functionIFvNS3_6StatusEjRKNS0_11hidl_handleEEEE"
  }
  mangled_function_name: "_ZN7android8hardware5media3omx4V1_011BpHwOmxNode26_hidl_allocateSecureBufferEPNS0_10IInterfaceEPNS0_7details16HidlInstrumentorEjyNSt3__18functionIFvNS3_6StatusEjRKNS0_11hidl_handleEEEE"
  source_file: "/data/aosp/out/soong/.intermediates/hardware/interfaces/media/omx/1.0/android.hardware.media.omx@1.0_genc++_headers/gen/android/hardware/media/omx/1.0/BpHwOmxNode.h"
  parameters {
    basic_abi {
      type_abi {
        name: "android::hardware::IInterface *"
        size: 4
        alignment: 4
      }
      name: "_hidl_this"
      access: public_access
      linker_set_key: "false"
    }
    default_arg: false
  }
  parameters {
    basic_abi {
      type_abi {
        name: "android::hardware::details::HidlInstrumentor *"
        size: 4
        alignment: 4
      }
      name: "_hidl_this_instrumentor"
      access: public_access
      linker_set_key: "false"
    }
    default_arg: false
  }
  parameters {
    basic_abi {
      type_abi {
        name: "unsigned int"
        size: 4
        alignment: 4
      }
      name: "portIndex"
      access: public_access
      linker_set_key: "false"
    }
    default_arg: false
  }
  parameters {
    basic_abi {
      type_abi {
        name: "unsigned long long"
        size: 8
        alignment: 8
      }
      name: "size"
      access: public_access
      linker_set_key: "false"
    }
    default_arg: false
  }
  parameters {
    basic_abi {
      type_abi {
        name: "std::function<void (Status, unsigned int, const hidl_handle &)>"
      }
      name: "_hidl_cb"
      access: public_access
      linker_set_key: "false"
    }
    default_arg: false
  }
}
functions {
  basic_abi {
    type_abi {
      name: "android::hardware::Return<void>"
    }
    name: "android::hardware::media::omx::V1_0::BpHwOmxNode::_hidl_useBuffer"
    access: public_access
    linker_set_key: "_ZN7android8hardware5media3omx4V1_011BpHwOmxNode15_hidl_useBufferEPNS0_10IInterfaceEPNS0_7details16HidlInstrumentorEjRKNS3_11CodecBufferENSt3__18functionIFvNS3_6StatusEjEEE"
  }
  mangled_function_name: "_ZN7android8hardware5media3omx4V1_011BpHwOmxNode15_hidl_useBufferEPNS0_10IInterfaceEPNS0_7details16HidlInstrumentorEjRKNS3_11CodecBufferENSt3__18functionIFvNS3_6StatusEjEEE"
  source_file: "/data/aosp/out/soong/.intermediates/hardware/interfaces/media/omx/1.0/android.hardware.media.omx@1.0_genc++_headers/gen/android/hardware/media/omx/1.0/BpHwOmxNode.h"
  parameters {
    basic_abi {
      type_abi {
        name: "android::hardware::IInterface *"
        size: 4
        alignment: 4
      }
      name: "_hidl_this"
      access: public_access
      linker_set_key: "false"
    }
    default_arg: false
  }
  parameters {
    basic_abi {
      type_abi {
        name: "android::hardware::details::HidlInstrumentor *"
        size: 4
        alignment: 4
      }
      name: "_hidl_this_instrumentor"
      access: public_access
      linker_set_key: "false"
    }
    default_arg: false
  }
  parameters {
    basic_abi {
      type_abi {
        name: "unsigned int"
        size: 4
        alignment: 4
      }
      name: "portIndex"
      access: public_access
      linker_set_key: "false"
    }
    default_arg: false
  }
  parameters {
    basic_abi {
      type_abi {
        name: "const android::hardware::media::omx::V1_0::CodecBuffer &"
      }
      name: "omxBuffer"
      access: public_access
      linker_set_key: "false"
    }
    default_arg: false
  }
  parameters {
    basic_abi {
      type_abi {
        name: "std::function<void (Status, unsigned int)>"
      }
      name: "_hidl_cb"
      access: public_access
      linker_set_key: "false"
    }
    default_arg: false
  }
}
functions {
  basic_abi {
    type_abi {
      name: "android::hardware::Return<android::hardware::media::omx::V1_0::Status>"
    }
    name: "android::hardware::media::omx::V1_0::BpHwOmxNode::_hidl_freeBuffer"
    access: public_access
    linker_set_key: "_ZN7android8hardware5media3omx4V1_011BpHwOmxNode16_hidl_freeBufferEPNS0_10IInterfaceEPNS0_7details16HidlInstrumentorEjj"
  }
  mangled_function_name: "_ZN7android8hardware5media3omx4V1_011BpHwOmxNode16_hidl_freeBufferEPNS0_10IInterfaceEPNS0_7details16HidlInstrumentorEjj"
  source_file: "/data/aosp/out/soong/.intermediates/hardware/interfaces/media/omx/1.0/android.hardware.media.omx@1.0_genc++_headers/gen/android/hardware/media/omx/1.0/BpHwOmxNode.h"
  parameters {
    basic_abi {
      type_abi {
        name: "android::hardware::IInterface *"
        size: 4
        alignment: 4
      }
      name: "_hidl_this"
      access: public_access
      linker_set_key: "false"
    }
    default_arg: false
  }
  parameters {
    basic_abi {
      type_abi {
        name: "android::hardware::details::HidlInstrumentor *"
        size: 4
        alignment: 4
      }
      name: "_hidl_this_instrumentor"
      access: public_access
      linker_set_key: "false"
    }
    default_arg: false
  }
  parameters {
    basic_abi {
      type_abi {
        name: "unsigned int"
        size: 4
        alignment: 4
      }
      name: "portIndex"
      access: public_access
      linker_set_key: "false"
    }
    default_arg: false
  }
  parameters {
    basic_abi {
      type_abi {
        name: "unsigned int"
        size: 4
        alignment: 4
      }
      name: "buffer"
      access: public_access
      linker_set_key: "false"
    }
    default_arg: false
  }
}
functions {
  basic_abi {
    type_abi {
      name: "android::hardware::Return<android::hardware::media::omx::V1_0::Status>"
    }
    name: "android::hardware::media::omx::V1_0::BpHwOmxNode::_hidl_fillBuffer"
    access: public_access
    linker_set_key: "_ZN7android8hardware5media3omx4V1_011BpHwOmxNode16_hidl_fillBufferEPNS0_10IInterfaceEPNS0_7details16HidlInstrumentorEjRKNS3_11CodecBufferERKNS0_11hidl_handleE"
  }
  mangled_function_name: "_ZN7android8hardware5media3omx4V1_011BpHwOmxNode16_hidl_fillBufferEPNS0_10IInterfaceEPNS0_7details16HidlInstrumentorEjRKNS3_11CodecBufferERKNS0_11hidl_handleE"
  source_file: "/data/aosp/out/soong/.intermediates/hardware/interfaces/media/omx/1.0/android.hardware.media.omx@1.0_genc++_headers/gen/android/hardware/media/omx/1.0/BpHwOmxNode.h"
  parameters {
    basic_abi {
      type_abi {
        name: "android::hardware::IInterface *"
        size: 4
        alignment: 4
      }
      name: "_hidl_this"
      access: public_access
      linker_set_key: "false"
    }
    default_arg: false
  }
  parameters {
    basic_abi {
      type_abi {
        name: "android::hardware::details::HidlInstrumentor *"
        size: 4
        alignment: 4
      }
      name: "_hidl_this_instrumentor"
      access: public_access
      linker_set_key: "false"
    }
    default_arg: false
  }
  parameters {
    basic_abi {
      type_abi {
        name: "unsigned int"
        size: 4
        alignment: 4
      }
      name: "buffer"
      access: public_access
      linker_set_key: "false"
    }
    default_arg: false
  }
  parameters {
    basic_abi {
      type_abi {
        name: "const android::hardware::media::omx::V1_0::CodecBuffer &"
      }
      name: "omxBuffer"
      access: public_access
      linker_set_key: "false"
    }
    default_arg: false
  }
  parameters {
    basic_abi {
      type_abi {
        name: "const android::hardware::hidl_handle &"
      }
      name: "fence"
      access: public_access
      linker_set_key: "false"
    }
    default_arg: false
  }
}
functions {
  basic_abi {
    type_abi {
      name: "android::hardware::Return<android::hardware::media::omx::V1_0::Status>"
    }
    name: "android::hardware::media::omx::V1_0::BpHwOmxNode::_hidl_emptyBuffer"
    access: public_access
    linker_set_key: "_ZN7android8hardware5media3omx4V1_011BpHwOmxNode17_hidl_emptyBufferEPNS0_10IInterfaceEPNS0_7details16HidlInstrumentorEjRKNS3_11CodecBufferEjyRKNS0_11hidl_handleE"
  }
  mangled_function_name: "_ZN7android8hardware5media3omx4V1_011BpHwOmxNode17_hidl_emptyBufferEPNS0_10IInterfaceEPNS0_7details16HidlInstrumentorEjRKNS3_11CodecBufferEjyRKNS0_11hidl_handleE"
  source_file: "/data/aosp/out/soong/.intermediates/hardware/interfaces/media/omx/1.0/android.hardware.media.omx@1.0_genc++_headers/gen/android/hardware/media/omx/1.0/BpHwOmxNode.h"
  parameters {
    basic_abi {
      type_abi {
        name: "android::hardware::IInterface *"
        size: 4
        alignment: 4
      }
      name: "_hidl_this"
      access: public_access
      linker_set_key: "false"
    }
    default_arg: false
  }
  parameters {
    basic_abi {
      type_abi {
        name: "android::hardware::details::HidlInstrumentor *"
        size: 4
        alignment: 4
      }
      name: "_hidl_this_instrumentor"
      access: public_access
      linker_set_key: "false"
    }
    default_arg: false
  }
  parameters {
    basic_abi {
      type_abi {
        name: "unsigned int"
        size: 4
        alignment: 4
      }
      name: "buffer"
      access: public_access
      linker_set_key: "false"
    }
    default_arg: false
  }
  parameters {
    basic_abi {
      type_abi {
        name: "const android::hardware::media::omx::V1_0::CodecBuffer &"
      }
      name: "omxBuffer"
      access: public_access
      linker_set_key: "false"
    }
    default_arg: false
  }
  parameters {
    basic_abi {
      type_abi {
        name: "unsigned int"
        size: 4
        alignment: 4
      }
      name: "flags"
      access: public_access
      linker_set_key: "false"
    }
    default_arg: false
  }
  parameters {
    basic_abi {
      type_abi {
        name: "unsigned long long"
        size: 8
        alignment: 8
      }
      name: "timestampUs"
      access: public_access
      linker_set_key: "false"
    }
    default_arg: false
  }
  parameters {
    basic_abi {
      type_abi {
        name: "const android::hardware::hidl_handle &"
      }
      name: "fence"
      access: public_access
      linker_set_key: "false"
    }
    default_arg: false
  }
}
functions {
  basic_abi {
    type_abi {
      name: "android::hardware::Return<void>"
    }
    name: "android::hardware::media::omx::V1_0::BpHwOmxNode::_hidl_getExtensionIndex"
    access: public_access
    linker_set_key: "_ZN7android8hardware5media3omx4V1_011BpHwOmxNode23_hidl_getExtensionIndexEPNS0_10IInterfaceEPNS0_7details16HidlInstrumentorERKNS0_11hidl_stringENSt3__18functionIFvNS3_6StatusEjEEE"
  }
  mangled_function_name: "_ZN7android8hardware5media3omx4V1_011BpHwOmxNode23_hidl_getExtensionIndexEPNS0_10IInterfaceEPNS0_7details16HidlInstrumentorERKNS0_11hidl_stringENSt3__18functionIFvNS3_6StatusEjEEE"
  source_file: "/data/aosp/out/soong/.intermediates/hardware/interfaces/media/omx/1.0/android.hardware.media.omx@1.0_genc++_headers/gen/android/hardware/media/omx/1.0/BpHwOmxNode.h"
  parameters {
    basic_abi {
      type_abi {
        name: "android::hardware::IInterface *"
        size: 4
        alignment: 4
      }
      name: "_hidl_this"
      access: public_access
      linker_set_key: "false"
    }
    default_arg: false
  }
  parameters {
    basic_abi {
      type_abi {
        name: "android::hardware::details::HidlInstrumentor *"
        size: 4
        alignment: 4
      }
      name: "_hidl_this_instrumentor"
      access: public_access
      linker_set_key: "false"
    }
    default_arg: false
  }
  parameters {
    basic_abi {
      type_abi {
        name: "const android::hardware::hidl_string &"
      }
      name: "parameterName"
      access: public_access
      linker_set_key: "false"
    }
    default_arg: false
  }
  parameters {
    basic_abi {
      type_abi {
        name: "std::function<void (Status, unsigned int)>"
      }
      name: "_hidl_cb"
      access: public_access
      linker_set_key: "false"
    }
    default_arg: false
  }
}
functions {
  basic_abi {
    type_abi {
      name: "android::hardware::Return<android::hardware::media::omx::V1_0::Status>"
    }
    name: "android::hardware::media::omx::V1_0::BpHwOmxNode::_hidl_dispatchMessage"
    access: public_access
    linker_set_key: "_ZN7android8hardware5media3omx4V1_011BpHwOmxNode21_hidl_dispatchMessageEPNS0_10IInterfaceEPNS0_7details16HidlInstrumentorERKNS3_7MessageE"
  }
  mangled_function_name: "_ZN7android8hardware5media3omx4V1_011BpHwOmxNode21_hidl_dispatchMessageEPNS0_10IInterfaceEPNS0_7details16HidlInstrumentorERKNS3_7MessageE"
  source_file: "/data/aosp/out/soong/.intermediates/hardware/interfaces/media/omx/1.0/android.hardware.media.omx@1.0_genc++_headers/gen/android/hardware/media/omx/1.0/BpHwOmxNode.h"
  parameters {
    basic_abi {
      type_abi {
        name: "android::hardware::IInterface *"
        size: 4
        alignment: 4
      }
      name: "_hidl_this"
      access: public_access
      linker_set_key: "false"
    }
    default_arg: false
  }
  parameters {
    basic_abi {
      type_abi {
        name: "android::hardware::details::HidlInstrumentor *"
        size: 4
        alignment: 4
      }
      name: "_hidl_this_instrumentor"
      access: public_access
      linker_set_key: "false"
    }
    default_arg: false
  }
  parameters {
    basic_abi {
      type_abi {
        name: "const android::hardware::media::omx::V1_0::Message &"
      }
      name: "msg"
      access: public_access
      linker_set_key: "false"
    }
    default_arg: false
  }
}
functions {
  basic_abi {
    type_abi {
      name: "android::hardware::Return<android::hardware::media::omx::V1_0::Status>"
    }
    name: "android::hardware::media::omx::V1_0::BpHwOmxNode::freeNode"
    access: public_access
    linker_set_key: "_ZN7android8hardware5media3omx4V1_011BpHwOmxNode8freeNodeEv"
  }
  mangled_function_name: "_ZN7android8hardware5media3omx4V1_011BpHwOmxNode8freeNodeEv"
  source_file: "/data/aosp/out/soong/.intermediates/hardware/interfaces/media/omx/1.0/android.hardware.media.omx@1.0_genc++_headers/gen/android/hardware/media/omx/1.0/BpHwOmxNode.h"
}
functions {
  basic_abi {
    type_abi {
      name: "android::hardware::Return<android::hardware::media::omx::V1_0::Status>"
    }
    name: "android::hardware::media::omx::V1_0::BpHwOmxNode::sendCommand"
    access: public_access
    linker_set_key: "_ZN7android8hardware5media3omx4V1_011BpHwOmxNode11sendCommandEji"
  }
  mangled_function_name: "_ZN7android8hardware5media3omx4V1_011BpHwOmxNode11sendCommandEji"
  source_file: "/data/aosp/out/soong/.intermediates/hardware/interfaces/media/omx/1.0/android.hardware.media.omx@1.0_genc++_headers/gen/android/hardware/media/omx/1.0/BpHwOmxNode.h"
  parameters {
    basic_abi {
      type_abi {
        name: "unsigned int"
        size: 4
        alignment: 4
      }
      name: "cmd"
      access: public_access
      linker_set_key: "false"
    }
    default_arg: false
  }
  parameters {
    basic_abi {
      type_abi {
        name: "int"
        size: 4
        alignment: 4
      }
      name: "param"
      access: public_access
      linker_set_key: "false"
    }
    default_arg: false
  }
}
functions {
  basic_abi {
    type_abi {
      name: "android::hardware::Return<void>"
    }
    name: "android::hardware::media::omx::V1_0::BpHwOmxNode::getParameter"
    access: public_access
    linker_set_key: "_ZN7android8hardware5media3omx4V1_011BpHwOmxNode12getParameterEjRKNS0_8hidl_vecIhEENSt3__18functionIFvNS3_6StatusES8_EEE"
  }
  mangled_function_name: "_ZN7android8hardware5media3omx4V1_011BpHwOmxNode12getParameterEjRKNS0_8hidl_vecIhEENSt3__18functionIFvNS3_6StatusES8_EEE"
  source_file: "/data/aosp/out/soong/.intermediates/hardware/interfaces/media/omx/1.0/android.hardware.media.omx@1.0_genc++_headers/gen/android/hardware/media/omx/1.0/BpHwOmxNode.h"
  parameters {
    basic_abi {
      type_abi {
        name: "unsigned int"
        size: 4
        alignment: 4
      }
      name: "index"
      access: public_access
      linker_set_key: "false"
    }
    default_arg: false
  }
  parameters {
    basic_abi {
      type_abi {
        name: "const android::hardware::hidl_vec<unsigned char> &"
      }
      name: "inParams"
      access: public_access
      linker_set_key: "false"
    }
    default_arg: false
  }
  parameters {
    basic_abi {
      type_abi {
        name: "std::function<void (Status, const hidl_vec<unsigned char> &)>"
      }
      name: "_hidl_cb"
      access: public_access
      linker_set_key: "false"
    }
    default_arg: false
  }
}
functions {
  basic_abi {
    type_abi {
      name: "android::hardware::Return<android::hardware::media::omx::V1_0::Status>"
    }
    name: "android::hardware::media::omx::V1_0::BpHwOmxNode::setParameter"
    access: public_access
    linker_set_key: "_ZN7android8hardware5media3omx4V1_011BpHwOmxNode12setParameterEjRKNS0_8hidl_vecIhEE"
  }
  mangled_function_name: "_ZN7android8hardware5media3omx4V1_011BpHwOmxNode12setParameterEjRKNS0_8hidl_vecIhEE"
  source_file: "/data/aosp/out/soong/.intermediates/hardware/interfaces/media/omx/1.0/android.hardware.media.omx@1.0_genc++_headers/gen/android/hardware/media/omx/1.0/BpHwOmxNode.h"
  parameters {
    basic_abi {
      type_abi {
        name: "unsigned int"
        size: 4
        alignment: 4
      }
      name: "index"
      access: public_access
      linker_set_key: "false"
    }
    default_arg: false
  }
  parameters {
    basic_abi {
      type_abi {
        name: "const android::hardware::hidl_vec<unsigned char> &"
      }
      name: "params"
      access: public_access
      linker_set_key: "false"
    }
    default_arg: false
  }
}
functions {
  basic_abi {
    type_abi {
      name: "android::hardware::Return<void>"
    }
    name: "android::hardware::media::omx::V1_0::BpHwOmxNode::getConfig"
    access: public_access
    linker_set_key: "_ZN7android8hardware5media3omx4V1_011BpHwOmxNode9getConfigEjRKNS0_8hidl_vecIhEENSt3__18functionIFvNS3_6StatusES8_EEE"
  }
  mangled_function_name: "_ZN7android8hardware5media3omx4V1_011BpHwOmxNode9getConfigEjRKNS0_8hidl_vecIhEENSt3__18functionIFvNS3_6StatusES8_EEE"
  source_file: "/data/aosp/out/soong/.intermediates/hardware/interfaces/media/omx/1.0/android.hardware.media.omx@1.0_genc++_headers/gen/android/hardware/media/omx/1.0/BpHwOmxNode.h"
  parameters {
    basic_abi {
      type_abi {
        name: "unsigned int"
        size: 4
        alignment: 4
      }
      name: "index"
      access: public_access
      linker_set_key: "false"
    }
    default_arg: false
  }
  parameters {
    basic_abi {
      type_abi {
        name: "const android::hardware::hidl_vec<unsigned char> &"
      }
      name: "inConfig"
      access: public_access
      linker_set_key: "false"
    }
    default_arg: false
  }
  parameters {
    basic_abi {
      type_abi {
        name: "std::function<void (Status, const hidl_vec<unsigned char> &)>"
      }
      name: "_hidl_cb"
      access: public_access
      linker_set_key: "false"
    }
    default_arg: false
  }
}
functions {
  basic_abi {
    type_abi {
      name: "android::hardware::Return<android::hardware::media::omx::V1_0::Status>"
    }
    name: "android::hardware::media::omx::V1_0::BpHwOmxNode::setConfig"
    access: public_access
    linker_set_key: "_ZN7android8hardware5media3omx4V1_011BpHwOmxNode9setConfigEjRKNS0_8hidl_vecIhEE"
  }
  mangled_function_name: "_ZN7android8hardware5media3omx4V1_011BpHwOmxNode9setConfigEjRKNS0_8hidl_vecIhEE"
  source_file: "/data/aosp/out/soong/.intermediates/hardware/interfaces/media/omx/1.0/android.hardware.media.omx@1.0_genc++_headers/gen/android/hardware/media/omx/1.0/BpHwOmxNode.h"
  parameters {
    basic_abi {
      type_abi {
        name: "unsigned int"
        size: 4
        alignment: 4
      }
      name: "index"
      access: public_access
      linker_set_key: "false"
    }
    default_arg: false
  }
  parameters {
    basic_abi {
      type_abi {
        name: "const android::hardware::hidl_vec<unsigned char> &"
      }
      name: "config"
      access: public_access
      linker_set_key: "false"
    }
    default_arg: false
  }
}
functions {
  basic_abi {
    type_abi {
      name: "android::hardware::Return<android::hardware::media::omx::V1_0::Status>"
    }
    name: "android::hardware::media::omx::V1_0::BpHwOmxNode::setPortMode"
    access: public_access
    linker_set_key: "_ZN7android8hardware5media3omx4V1_011BpHwOmxNode11setPortModeEjNS3_8PortModeE"
  }
  mangled_function_name: "_ZN7android8hardware5media3omx4V1_011BpHwOmxNode11setPortModeEjNS3_8PortModeE"
  source_file: "/data/aosp/out/soong/.intermediates/hardware/interfaces/media/omx/1.0/android.hardware.media.omx@1.0_genc++_headers/gen/android/hardware/media/omx/1.0/BpHwOmxNode.h"
  parameters {
    basic_abi {
      type_abi {
        name: "unsigned int"
        size: 4
        alignment: 4
      }
      name: "portIndex"
      access: public_access
      linker_set_key: "false"
    }
    default_arg: false
  }
  parameters {
    basic_abi {
      type_abi {
        name: "android::hardware::media::omx::V1_0::PortMode"
      }
      name: "mode"
      access: public_access
      linker_set_key: "false"
    }
    default_arg: false
  }
}
functions {
  basic_abi {
    type_abi {
      name: "android::hardware::Return<android::hardware::media::omx::V1_0::Status>"
    }
    name: "android::hardware::media::omx::V1_0::BpHwOmxNode::prepareForAdaptivePlayback"
    access: public_access
    linker_set_key: "_ZN7android8hardware5media3omx4V1_011BpHwOmxNode26prepareForAdaptivePlaybackEjbjj"
  }
  mangled_function_name: "_ZN7android8hardware5media3omx4V1_011BpHwOmxNode26prepareForAdaptivePlaybackEjbjj"
  source_file: "/data/aosp/out/soong/.intermediates/hardware/interfaces/media/omx/1.0/android.hardware.media.omx@1.0_genc++_headers/gen/android/hardware/media/omx/1.0/BpHwOmxNode.h"
  parameters {
    basic_abi {
      type_abi {
        name: "unsigned int"
        size: 4
        alignment: 4
      }
      name: "portIndex"
      access: public_access
      linker_set_key: "false"
    }
    default_arg: false
  }
  parameters {
    basic_abi {
      type_abi {
        name: "bool"
        size: 1
        alignment: 1
      }
      name: "enable"
      access: public_access
      linker_set_key: "false"
    }
    default_arg: false
  }
  parameters {
    basic_abi {
      type_abi {
        name: "unsigned int"
        size: 4
        alignment: 4
      }
      name: "maxFrameWidth"
      access: public_access
      linker_set_key: "false"
    }
    default_arg: false
  }
  parameters {
    basic_abi {
      type_abi {
        name: "unsigned int"
        size: 4
        alignment: 4
      }
      name: "maxFrameHeight"
      access: public_access
      linker_set_key: "false"
    }
    default_arg: false
  }
}
functions {
  basic_abi {
    type_abi {
      name: "android::hardware::Return<void>"
    }
    name: "android::hardware::media::omx::V1_0::BpHwOmxNode::configureVideoTunnelMode"
    access: public_access
    linker_set_key: "_ZN7android8hardware5media3omx4V1_011BpHwOmxNode24configureVideoTunnelModeEjbjNSt3__18functionIFvNS3_6StatusERKNS0_11hidl_handleEEEE"
  }
  mangled_function_name: "_ZN7android8hardware5media3omx4V1_011BpHwOmxNode24configureVideoTunnelModeEjbjNSt3__18functionIFvNS3_6StatusERKNS0_11hidl_handleEEEE"
  source_file: "/data/aosp/out/soong/.intermediates/hardware/interfaces/media/omx/1.0/android.hardware.media.omx@1.0_genc++_headers/gen/android/hardware/media/omx/1.0/BpHwOmxNode.h"
  parameters {
    basic_abi {
      type_abi {
        name: "unsigned int"
        size: 4
        alignment: 4
      }
      name: "portIndex"
      access: public_access
      linker_set_key: "false"
    }
    default_arg: false
  }
  parameters {
    basic_abi {
      type_abi {
        name: "bool"
        size: 1
        alignment: 1
      }
      name: "tunneled"
      access: public_access
      linker_set_key: "false"
    }
    default_arg: false
  }
  parameters {
    basic_abi {
      type_abi {
        name: "unsigned int"
        size: 4
        alignment: 4
      }
      name: "audioHwSync"
      access: public_access
      linker_set_key: "false"
    }
    default_arg: false
  }
  parameters {
    basic_abi {
      type_abi {
        name: "std::function<void (Status, const hidl_handle &)>"
      }
      name: "_hidl_cb"
      access: public_access
      linker_set_key: "false"
    }
    default_arg: false
  }
}
functions {
  basic_abi {
    type_abi {
      name: "android::hardware::Return<void>"
    }
    name: "android::hardware::media::omx::V1_0::BpHwOmxNode::getGraphicBufferUsage"
    access: public_access
    linker_set_key: "_ZN7android8hardware5media3omx4V1_011BpHwOmxNode21getGraphicBufferUsageEjNSt3__18functionIFvNS3_6StatusEjEEE"
  }
  mangled_function_name: "_ZN7android8hardware5media3omx4V1_011BpHwOmxNode21getGraphicBufferUsageEjNSt3__18functionIFvNS3_6StatusEjEEE"
  source_file: "/data/aosp/out/soong/.intermediates/hardware/interfaces/media/omx/1.0/android.hardware.media.omx@1.0_genc++_headers/gen/android/hardware/media/omx/1.0/BpHwOmxNode.h"
  parameters {
    basic_abi {
      type_abi {
        name: "unsigned int"
        size: 4
        alignment: 4
      }
      name: "portIndex"
      access: public_access
      linker_set_key: "false"
    }
    default_arg: false
  }
  parameters {
    basic_abi {
      type_abi {
        name: "std::function<void (Status, unsigned int)>"
      }
      name: "_hidl_cb"
      access: public_access
      linker_set_key: "false"
    }
    default_arg: false
  }
}
functions {
  basic_abi {
    type_abi {
      name: "android::hardware::Return<android::hardware::media::omx::V1_0::Status>"
    }
    name: "android::hardware::media::omx::V1_0::BpHwOmxNode::setInputSurface"
    access: public_access
    linker_set_key: "_ZN7android8hardware5media3omx4V1_011BpHwOmxNode15setInputSurfaceERKNS_2spINS3_16IOmxBufferSourceEEE"
  }
  mangled_function_name: "_ZN7android8hardware5media3omx4V1_011BpHwOmxNode15setInputSurfaceERKNS_2spINS3_16IOmxBufferSourceEEE"
  source_file: "/data/aosp/out/soong/.intermediates/hardware/interfaces/media/omx/1.0/android.hardware.media.omx@1.0_genc++_headers/gen/android/hardware/media/omx/1.0/BpHwOmxNode.h"
  parameters {
    basic_abi {
      type_abi {
        name: "const android::sp<android::hardware::media::omx::V1_0::IOmxBufferSource> &"
      }
      name: "bufferSource"
      access: public_access
      linker_set_key: "false"
    }
    default_arg: false
  }
}
functions {
  basic_abi {
    type_abi {
      name: "android::hardware::Return<void>"
    }
    name: "android::hardware::media::omx::V1_0::BpHwOmxNode::allocateSecureBuffer"
    access: public_access
    linker_set_key: "_ZN7android8hardware5media3omx4V1_011BpHwOmxNode20allocateSecureBufferEjyNSt3__18functionIFvNS3_6StatusEjRKNS0_11hidl_handleEEEE"
  }
  mangled_function_name: "_ZN7android8hardware5media3omx4V1_011BpHwOmxNode20allocateSecureBufferEjyNSt3__18functionIFvNS3_6StatusEjRKNS0_11hidl_handleEEEE"
  source_file: "/data/aosp/out/soong/.intermediates/hardware/interfaces/media/omx/1.0/android.hardware.media.omx@1.0_genc++_headers/gen/android/hardware/media/omx/1.0/BpHwOmxNode.h"
  parameters {
    basic_abi {
      type_abi {
        name: "unsigned int"
        size: 4
        alignment: 4
      }
      name: "portIndex"
      access: public_access
      linker_set_key: "false"
    }
    default_arg: false
  }
  parameters {
    basic_abi {
      type_abi {
        name: "unsigned long long"
        size: 8
        alignment: 8
      }
      name: "size"
      access: public_access
      linker_set_key: "false"
    }
    default_arg: false
  }
  parameters {
    basic_abi {
      type_abi {
        name: "std::function<void (Status, unsigned int, const hidl_handle &)>"
      }
      name: "_hidl_cb"
      access: public_access
      linker_set_key: "false"
    }
    default_arg: false
  }
}
functions {
  basic_abi {
    type_abi {
      name: "android::hardware::Return<void>"
    }
    name: "android::hardware::media::omx::V1_0::BpHwOmxNode::useBuffer"
    access: public_access
    linker_set_key: "_ZN7android8hardware5media3omx4V1_011BpHwOmxNode9useBufferEjRKNS3_11CodecBufferENSt3__18functionIFvNS3_6StatusEjEEE"
  }
  mangled_function_name: "_ZN7android8hardware5media3omx4V1_011BpHwOmxNode9useBufferEjRKNS3_11CodecBufferENSt3__18functionIFvNS3_6StatusEjEEE"
  source_file: "/data/aosp/out/soong/.intermediates/hardware/interfaces/media/omx/1.0/android.hardware.media.omx@1.0_genc++_headers/gen/android/hardware/media/omx/1.0/BpHwOmxNode.h"
  parameters {
    basic_abi {
      type_abi {
        name: "unsigned int"
        size: 4
        alignment: 4
      }
      name: "portIndex"
      access: public_access
      linker_set_key: "false"
    }
    default_arg: false
  }
  parameters {
    basic_abi {
      type_abi {
        name: "const android::hardware::media::omx::V1_0::CodecBuffer &"
      }
      name: "omxBuffer"
      access: public_access
      linker_set_key: "false"
    }
    default_arg: false
  }
  parameters {
    basic_abi {
      type_abi {
        name: "std::function<void (Status, unsigned int)>"
      }
      name: "_hidl_cb"
      access: public_access
      linker_set_key: "false"
    }
    default_arg: false
  }
}
functions {
  basic_abi {
    type_abi {
      name: "android::hardware::Return<android::hardware::media::omx::V1_0::Status>"
    }
    name: "android::hardware::media::omx::V1_0::BpHwOmxNode::freeBuffer"
    access: public_access
    linker_set_key: "_ZN7android8hardware5media3omx4V1_011BpHwOmxNode10freeBufferEjj"
  }
  mangled_function_name: "_ZN7android8hardware5media3omx4V1_011BpHwOmxNode10freeBufferEjj"
  source_file: "/data/aosp/out/soong/.intermediates/hardware/interfaces/media/omx/1.0/android.hardware.media.omx@1.0_genc++_headers/gen/android/hardware/media/omx/1.0/BpHwOmxNode.h"
  parameters {
    basic_abi {
      type_abi {
        name: "unsigned int"
        size: 4
        alignment: 4
      }
      name: "portIndex"
      access: public_access
      linker_set_key: "false"
    }
    default_arg: false
  }
  parameters {
    basic_abi {
      type_abi {
        name: "unsigned int"
        size: 4
        alignment: 4
      }
      name: "buffer"
      access: public_access
      linker_set_key: "false"
    }
    default_arg: false
  }
}
functions {
  basic_abi {
    type_abi {
      name: "android::hardware::Return<android::hardware::media::omx::V1_0::Status>"
    }
    name: "android::hardware::media::omx::V1_0::BpHwOmxNode::fillBuffer"
    access: public_access
    linker_set_key: "_ZN7android8hardware5media3omx4V1_011BpHwOmxNode10fillBufferEjRKNS3_11CodecBufferERKNS0_11hidl_handleE"
  }
  mangled_function_name: "_ZN7android8hardware5media3omx4V1_011BpHwOmxNode10fillBufferEjRKNS3_11CodecBufferERKNS0_11hidl_handleE"
  source_file: "/data/aosp/out/soong/.intermediates/hardware/interfaces/media/omx/1.0/android.hardware.media.omx@1.0_genc++_headers/gen/android/hardware/media/omx/1.0/BpHwOmxNode.h"
  parameters {
    basic_abi {
      type_abi {
        name: "unsigned int"
        size: 4
        alignment: 4
      }
      name: "buffer"
      access: public_access
      linker_set_key: "false"
    }
    default_arg: false
  }
  parameters {
    basic_abi {
      type_abi {
        name: "const android::hardware::media::omx::V1_0::CodecBuffer &"
      }
      name: "omxBuffer"
      access: public_access
      linker_set_key: "false"
    }
    default_arg: false
  }
  parameters {
    basic_abi {
      type_abi {
        name: "const android::hardware::hidl_handle &"
      }
      name: "fence"
      access: public_access
      linker_set_key: "false"
    }
    default_arg: false
  }
}
functions {
  basic_abi {
    type_abi {
      name: "android::hardware::Return<android::hardware::media::omx::V1_0::Status>"
    }
    name: "android::hardware::media::omx::V1_0::BpHwOmxNode::emptyBuffer"
    access: public_access
    linker_set_key: "_ZN7android8hardware5media3omx4V1_011BpHwOmxNode11emptyBufferEjRKNS3_11CodecBufferEjyRKNS0_11hidl_handleE"
  }
  mangled_function_name: "_ZN7android8hardware5media3omx4V1_011BpHwOmxNode11emptyBufferEjRKNS3_11CodecBufferEjyRKNS0_11hidl_handleE"
  source_file: "/data/aosp/out/soong/.intermediates/hardware/interfaces/media/omx/1.0/android.hardware.media.omx@1.0_genc++_headers/gen/android/hardware/media/omx/1.0/BpHwOmxNode.h"
  parameters {
    basic_abi {
      type_abi {
        name: "unsigned int"
        size: 4
        alignment: 4
      }
      name: "buffer"
      access: public_access
      linker_set_key: "false"
    }
    default_arg: false
  }
  parameters {
    basic_abi {
      type_abi {
        name: "const android::hardware::media::omx::V1_0::CodecBuffer &"
      }
      name: "omxBuffer"
      access: public_access
      linker_set_key: "false"
    }
    default_arg: false
  }
  parameters {
    basic_abi {
      type_abi {
        name: "unsigned int"
        size: 4
        alignment: 4
      }
      name: "flags"
      access: public_access
      linker_set_key: "false"
    }
    default_arg: false
  }
  parameters {
    basic_abi {
      type_abi {
        name: "unsigned long long"
        size: 8
        alignment: 8
      }
      name: "timestampUs"
      access: public_access
      linker_set_key: "false"
    }
    default_arg: false
  }
  parameters {
    basic_abi {
      type_abi {
        name: "const android::hardware::hidl_handle &"
      }
      name: "fence"
      access: public_access
      linker_set_key: "false"
    }
    default_arg: false
  }
}
functions {
  basic_abi {
    type_abi {
      name: "android::hardware::Return<void>"
    }
    name: "android::hardware::media::omx::V1_0::BpHwOmxNode::getExtensionIndex"
    access: public_access
    linker_set_key: "_ZN7android8hardware5media3omx4V1_011BpHwOmxNode17getExtensionIndexERKNS0_11hidl_stringENSt3__18functionIFvNS3_6StatusEjEEE"
  }
  mangled_function_name: "_ZN7android8hardware5media3omx4V1_011BpHwOmxNode17getExtensionIndexERKNS0_11hidl_stringENSt3__18functionIFvNS3_6StatusEjEEE"
  source_file: "/data/aosp/out/soong/.intermediates/hardware/interfaces/media/omx/1.0/android.hardware.media.omx@1.0_genc++_headers/gen/android/hardware/media/omx/1.0/BpHwOmxNode.h"
  parameters {
    basic_abi {
      type_abi {
        name: "const android::hardware::hidl_string &"
      }
      name: "parameterName"
      access: public_access
      linker_set_key: "false"
    }
    default_arg: false
  }
  parameters {
    basic_abi {
      type_abi {
        name: "std::function<void (Status, unsigned int)>"
      }
      name: "_hidl_cb"
      access: public_access
      linker_set_key: "false"
    }
    default_arg: false
  }
}
functions {
  basic_abi {
    type_abi {
      name: "android::hardware::Return<android::hardware::media::omx::V1_0::Status>"
    }
    name: "android::hardware::media::omx::V1_0::BpHwOmxNode::dispatchMessage"
    access: public_access
    linker_set_key: "_ZN7android8hardware5media3omx4V1_011BpHwOmxNode15dispatchMessageERKNS3_7MessageE"
  }
  mangled_function_name: "_ZN7android8hardware5media3omx4V1_011BpHwOmxNode15dispatchMessageERKNS3_7MessageE"
  source_file: "/data/aosp/out/soong/.intermediates/hardware/interfaces/media/omx/1.0/android.hardware.media.omx@1.0_genc++_headers/gen/android/hardware/media/omx/1.0/BpHwOmxNode.h"
  parameters {
    basic_abi {
      type_abi {
        name: "const android::hardware::media::omx::V1_0::Message &"
      }
      name: "msg"
      access: public_access
      linker_set_key: "false"
    }
    default_arg: false
  }
}
functions {
  basic_abi {
    type_abi {
      name: "android::hardware::Return<void>"
    }
    name: "android::hardware::media::omx::V1_0::BpHwOmxNode::interfaceChain"
    access: public_access
    linker_set_key: "_ZN7android8hardware5media3omx4V1_011BpHwOmxNode14interfaceChainENSt3__18functionIFvRKNS0_8hidl_vecINS0_11hidl_stringEEEEEE"
  }
  mangled_function_name: "_ZN7android8hardware5media3omx4V1_011BpHwOmxNode14interfaceChainENSt3__18functionIFvRKNS0_8hidl_vecINS0_11hidl_stringEEEEEE"
  source_file: "/data/aosp/out/soong/.intermediates/hardware/interfaces/media/omx/1.0/android.hardware.media.omx@1.0_genc++_headers/gen/android/hardware/media/omx/1.0/BpHwOmxNode.h"
  parameters {
    basic_abi {
      type_abi {
        name: "std::function<void (const hidl_vec<hidl_string> &)>"
      }
      name: "_hidl_cb"
      access: public_access
      linker_set_key: "false"
    }
    default_arg: false
  }
}
functions {
  basic_abi {
    type_abi {
      name: "android::hardware::Return<void>"
    }
    name: "android::hardware::media::omx::V1_0::BpHwOmxNode::debug"
    access: public_access
    linker_set_key: "_ZN7android8hardware5media3omx4V1_011BpHwOmxNode5debugERKNS0_11hidl_handleERKNS0_8hidl_vecINS0_11hidl_stringEEE"
  }
  mangled_function_name: "_ZN7android8hardware5media3omx4V1_011BpHwOmxNode5debugERKNS0_11hidl_handleERKNS0_8hidl_vecINS0_11hidl_stringEEE"
  source_file: "/data/aosp/out/soong/.intermediates/hardware/interfaces/media/omx/1.0/android.hardware.media.omx@1.0_genc++_headers/gen/android/hardware/media/omx/1.0/BpHwOmxNode.h"
  parameters {
    basic_abi {
      type_abi {
        name: "const android::hardware::hidl_handle &"
      }
      name: "fd"
      access: public_access
      linker_set_key: "false"
    }
    default_arg: false
  }
  parameters {
    basic_abi {
      type_abi {
        name: "const android::hardware::hidl_vec<android::hardware::hidl_string> &"
      }
      name: "options"
      access: public_access
      linker_set_key: "false"
    }
    default_arg: false
  }
}
functions {
  basic_abi {
    type_abi {
      name: "android::hardware::Return<void>"
    }
    name: "android::hardware::media::omx::V1_0::BpHwOmxNode::interfaceDescriptor"
    access: public_access
    linker_set_key: "_ZN7android8hardware5media3omx4V1_011BpHwOmxNode19interfaceDescriptorENSt3__18functionIFvRKNS0_11hidl_stringEEEE"
  }
  mangled_function_name: "_ZN7android8hardware5media3omx4V1_011BpHwOmxNode19interfaceDescriptorENSt3__18functionIFvRKNS0_11hidl_stringEEEE"
  source_file: "/data/aosp/out/soong/.intermediates/hardware/interfaces/media/omx/1.0/android.hardware.media.omx@1.0_genc++_headers/gen/android/hardware/media/omx/1.0/BpHwOmxNode.h"
  parameters {
    basic_abi {
      type_abi {
        name: "std::function<void (const hidl_string &)>"
      }
      name: "_hidl_cb"
      access: public_access
      linker_set_key: "false"
    }
    default_arg: false
  }
}
functions {
  basic_abi {
    type_abi {
      name: "android::hardware::Return<void>"
    }
    name: "android::hardware::media::omx::V1_0::BpHwOmxNode::getHashChain"
    access: public_access
    linker_set_key: "_ZN7android8hardware5media3omx4V1_011BpHwOmxNode12getHashChainENSt3__18functionIFvRKNS0_8hidl_vecINS0_10hidl_arrayIhLj32EJEEEEEEEE"
  }
  mangled_function_name: "_ZN7android8hardware5media3omx4V1_011BpHwOmxNode12getHashChainENSt3__18functionIFvRKNS0_8hidl_vecINS0_10hidl_arrayIhLj32EJEEEEEEEE"
  source_file: "/data/aosp/out/soong/.intermediates/hardware/interfaces/media/omx/1.0/android.hardware.media.omx@1.0_genc++_headers/gen/android/hardware/media/omx/1.0/BpHwOmxNode.h"
  parameters {
    basic_abi {
      type_abi {
        name: "std::function<void (const hidl_vec<hidl_array<unsigned char, 32> > &)>"
      }
      name: "_hidl_cb"
      access: public_access
      linker_set_key: "false"
    }
    default_arg: false
  }
}
functions {
  basic_abi {
    type_abi {
      name: "android::hardware::Return<void>"
    }
    name: "android::hardware::media::omx::V1_0::BpHwOmxNode::setHALInstrumentation"
    access: public_access
    linker_set_key: "_ZN7android8hardware5media3omx4V1_011BpHwOmxNode21setHALInstrumentationEv"
  }
  mangled_function_name: "_ZN7android8hardware5media3omx4V1_011BpHwOmxNode21setHALInstrumentationEv"
  source_file: "/data/aosp/out/soong/.intermediates/hardware/interfaces/media/omx/1.0/android.hardware.media.omx@1.0_genc++_headers/gen/android/hardware/media/omx/1.0/BpHwOmxNode.h"
}
functions {
  basic_abi {
    type_abi {
      name: "android::hardware::Return<bool>"
    }
    name: "android::hardware::media::omx::V1_0::BpHwOmxNode::linkToDeath"
    access: public_access
    linker_set_key: "_ZN7android8hardware5media3omx4V1_011BpHwOmxNode11linkToDeathERKNS_2spINS0_20hidl_death_recipientEEEy"
  }
  mangled_function_name: "_ZN7android8hardware5media3omx4V1_011BpHwOmxNode11linkToDeathERKNS_2spINS0_20hidl_death_recipientEEEy"
  source_file: "/data/aosp/out/soong/.intermediates/hardware/interfaces/media/omx/1.0/android.hardware.media.omx@1.0_genc++_headers/gen/android/hardware/media/omx/1.0/BpHwOmxNode.h"
  parameters {
    basic_abi {
      type_abi {
        name: "const android::sp<android::hardware::hidl_death_recipient> &"
      }
      name: "recipient"
      access: public_access
      linker_set_key: "false"
    }
    default_arg: false
  }
  parameters {
    basic_abi {
      type_abi {
        name: "unsigned long long"
        size: 8
        alignment: 8
      }
      name: "cookie"
      access: public_access
      linker_set_key: "false"
    }
    default_arg: false
  }
}
functions {
  basic_abi {
    type_abi {
      name: "android::hardware::Return<void>"
    }
    name: "android::hardware::media::omx::V1_0::BpHwOmxNode::ping"
    access: public_access
    linker_set_key: "_ZN7android8hardware5media3omx4V1_011BpHwOmxNode4pingEv"
  }
  mangled_function_name: "_ZN7android8hardware5media3omx4V1_011BpHwOmxNode4pingEv"
  source_file: "/data/aosp/out/soong/.intermediates/hardware/interfaces/media/omx/1.0/android.hardware.media.omx@1.0_genc++_headers/gen/android/hardware/media/omx/1.0/BpHwOmxNode.h"
}
functions {
  basic_abi {
    type_abi {
      name: "android::hardware::Return<void>"
    }
    name: "android::hardware::media::omx::V1_0::BpHwOmxNode::getDebugInfo"
    access: public_access
    linker_set_key: "_ZN7android8hardware5media3omx4V1_011BpHwOmxNode12getDebugInfoENSt3__18functionIFvRKNS_4hidl4base4V1_09DebugInfoEEEE"
  }
  mangled_function_name: "_ZN7android8hardware5media3omx4V1_011BpHwOmxNode12getDebugInfoENSt3__18functionIFvRKNS_4hidl4base4V1_09DebugInfoEEEE"
  source_file: "/data/aosp/out/soong/.intermediates/hardware/interfaces/media/omx/1.0/android.hardware.media.omx@1.0_genc++_headers/gen/android/hardware/media/omx/1.0/BpHwOmxNode.h"
  parameters {
    basic_abi {
      type_abi {
        name: "std::function<void (const DebugInfo &)>"
      }
      name: "_hidl_cb"
      access: public_access
      linker_set_key: "false"
    }
    default_arg: false
  }
}
functions {
  basic_abi {
    type_abi {
      name: "android::hardware::Return<void>"
    }
    name: "android::hardware::media::omx::V1_0::BpHwOmxNode::notifySyspropsChanged"
    access: public_access
    linker_set_key: "_ZN7android8hardware5media3omx4V1_011BpHwOmxNode21notifySyspropsChangedEv"
  }
  mangled_function_name: "_ZN7android8hardware5media3omx4V1_011BpHwOmxNode21notifySyspropsChangedEv"
  source_file: "/data/aosp/out/soong/.intermediates/hardware/interfaces/media/omx/1.0/android.hardware.media.omx@1.0_genc++_headers/gen/android/hardware/media/omx/1.0/BpHwOmxNode.h"
}
functions {
  basic_abi {
    type_abi {
      name: "android::hardware::Return<bool>"
    }
    name: "android::hardware::media::omx::V1_0::BpHwOmxNode::unlinkToDeath"
    access: public_access
    linker_set_key: "_ZN7android8hardware5media3omx4V1_011BpHwOmxNode13unlinkToDeathERKNS_2spINS0_20hidl_death_recipientEEE"
  }
  mangled_function_name: "_ZN7android8hardware5media3omx4V1_011BpHwOmxNode13unlinkToDeathERKNS_2spINS0_20hidl_death_recipientEEE"
  source_file: "/data/aosp/out/soong/.intermediates/hardware/interfaces/media/omx/1.0/android.hardware.media.omx@1.0_genc++_headers/gen/android/hardware/media/omx/1.0/BpHwOmxNode.h"
  parameters {
    basic_abi {
      type_abi {
        name: "const android::sp<android::hardware::hidl_death_recipient> &"
      }
      name: "recipient"
      access: public_access
      linker_set_key: "false"
    }
    default_arg: false
  }
}
functions {
  basic_abi {
    type_abi {
      name: "void"
    }
    name: "android::hardware::media::omx::V1_0::BnHwOmxNode::BnHwOmxNode"
    access: public_access
    linker_set_key: "_ZN7android8hardware5media3omx4V1_011BnHwOmxNodeC2ERKNS_2spINS3_8IOmxNodeEEE"
  }
  mangled_function_name: "_ZN7android8hardware5media3omx4V1_011BnHwOmxNodeC2ERKNS_2spINS3_8IOmxNodeEEE"
  source_file: "/data/aosp/out/soong/.intermediates/hardware/interfaces/media/omx/1.0/android.hardware.media.omx@1.0_genc++_headers/gen/android/hardware/media/omx/1.0/BnHwOmxNode.h"
  parameters {
    basic_abi {
      type_abi {
        name: "const android::sp<android::hardware::media::omx::V1_0::IOmxNode> &"
      }
      name: "_hidl_impl"
      access: public_access
      linker_set_key: "false"
    }
    default_arg: false
  }
}
functions {
  basic_abi {
    type_abi {
      name: "void"
    }
    name: "android::hardware::media::omx::V1_0::BnHwOmxNode::BnHwOmxNode"
    access: public_access
    linker_set_key: "_ZN7android8hardware5media3omx4V1_011BnHwOmxNodeC1ERKNS_2spINS3_8IOmxNodeEEE"
  }
  mangled_function_name: "_ZN7android8hardware5media3omx4V1_011BnHwOmxNodeC1ERKNS_2spINS3_8IOmxNodeEEE"
  source_file: "/data/aosp/out/soong/.intermediates/hardware/interfaces/media/omx/1.0/android.hardware.media.omx@1.0_genc++_headers/gen/android/hardware/media/omx/1.0/BnHwOmxNode.h"
  parameters {
    basic_abi {
      type_abi {
        name: "const android::sp<android::hardware::media::omx::V1_0::IOmxNode> &"
      }
      name: "_hidl_impl"
      access: public_access
      linker_set_key: "false"
    }
    default_arg: false
  }
}
functions {
  basic_abi {
    type_abi {
      name: "void"
    }
    name: "android::hardware::media::omx::V1_0::BnHwOmxNode::BnHwOmxNode"
    access: public_access
    linker_set_key: "_ZN7android8hardware5media3omx4V1_011BnHwOmxNodeC2ERKNS_2spINS3_8IOmxNodeEEERKNSt3__112basic_stringIcNSA_11char_traitsIcEENSA_9allocatorIcEEEESI_"
  }
  mangled_function_name: "_ZN7android8hardware5media3omx4V1_011BnHwOmxNodeC2ERKNS_2spINS3_8IOmxNodeEEERKNSt3__112basic_stringIcNSA_11char_traitsIcEENSA_9allocatorIcEEEESI_"
  source_file: "/data/aosp/out/soong/.intermediates/hardware/interfaces/media/omx/1.0/android.hardware.media.omx@1.0_genc++_headers/gen/android/hardware/media/omx/1.0/BnHwOmxNode.h"
  parameters {
    basic_abi {
      type_abi {
        name: "const android::sp<android::hardware::media::omx::V1_0::IOmxNode> &"
      }
      name: "_hidl_impl"
      access: public_access
      linker_set_key: "false"
    }
    default_arg: false
  }
  parameters {
    basic_abi {
      type_abi {
        name: "const std::basic_string<char, std::char_traits<char>, std::allocator<char> > &"
      }
      name: "HidlInstrumentor_package"
      access: public_access
      linker_set_key: "false"
    }
    default_arg: false
  }
  parameters {
    basic_abi {
      type_abi {
        name: "const std::basic_string<char, std::char_traits<char>, std::allocator<char> > &"
      }
      name: "HidlInstrumentor_interface"
      access: public_access
      linker_set_key: "false"
    }
    default_arg: false
  }
}
functions {
  basic_abi {
    type_abi {
      name: "void"
    }
    name: "android::hardware::media::omx::V1_0::BnHwOmxNode::BnHwOmxNode"
    access: public_access
    linker_set_key: "_ZN7android8hardware5media3omx4V1_011BnHwOmxNodeC1ERKNS_2spINS3_8IOmxNodeEEERKNSt3__112basic_stringIcNSA_11char_traitsIcEENSA_9allocatorIcEEEESI_"
  }
  mangled_function_name: "_ZN7android8hardware5media3omx4V1_011BnHwOmxNodeC1ERKNS_2spINS3_8IOmxNodeEEERKNSt3__112basic_stringIcNSA_11char_traitsIcEENSA_9allocatorIcEEEESI_"
  source_file: "/data/aosp/out/soong/.intermediates/hardware/interfaces/media/omx/1.0/android.hardware.media.omx@1.0_genc++_headers/gen/android/hardware/media/omx/1.0/BnHwOmxNode.h"
  parameters {
    basic_abi {
      type_abi {
        name: "const android::sp<android::hardware::media::omx::V1_0::IOmxNode> &"
      }
      name: "_hidl_impl"
      access: public_access
      linker_set_key: "false"
    }
    default_arg: false
  }
  parameters {
    basic_abi {
      type_abi {
        name: "const std::basic_string<char, std::char_traits<char>, std::allocator<char> > &"
      }
      name: "HidlInstrumentor_package"
      access: public_access
      linker_set_key: "false"
    }
    default_arg: false
  }
  parameters {
    basic_abi {
      type_abi {
        name: "const std::basic_string<char, std::char_traits<char>, std::allocator<char> > &"
      }
      name: "HidlInstrumentor_interface"
      access: public_access
      linker_set_key: "false"
    }
    default_arg: false
  }
}
functions {
  basic_abi {
    type_abi {
      name: "void"
    }
    name: "android::hardware::media::omx::V1_0::BnHwOmxNode::~BnHwOmxNode"
    access: public_access
    linker_set_key: "_ZN7android8hardware5media3omx4V1_011BnHwOmxNodeD2Ev"
  }
  mangled_function_name: "_ZN7android8hardware5media3omx4V1_011BnHwOmxNodeD2Ev"
  source_file: "/data/aosp/out/soong/.intermediates/hardware/interfaces/media/omx/1.0/android.hardware.media.omx@1.0_genc++_headers/gen/android/hardware/media/omx/1.0/BnHwOmxNode.h"
}
functions {
  basic_abi {
    type_abi {
      name: "void"
    }
    name: "android::hardware::media::omx::V1_0::BnHwOmxNode::~BnHwOmxNode"
    access: public_access
    linker_set_key: "_ZN7android8hardware5media3omx4V1_011BnHwOmxNodeD1Ev"
  }
  mangled_function_name: "_ZN7android8hardware5media3omx4V1_011BnHwOmxNodeD1Ev"
  source_file: "/data/aosp/out/soong/.intermediates/hardware/interfaces/media/omx/1.0/android.hardware.media.omx@1.0_genc++_headers/gen/android/hardware/media/omx/1.0/BnHwOmxNode.h"
}
functions {
  basic_abi {
    type_abi {
      name: "void"
    }
    name: "android::hardware::media::omx::V1_0::BnHwOmxNode::~BnHwOmxNode"
    access: public_access
    linker_set_key: "_ZN7android8hardware5media3omx4V1_011BnHwOmxNodeD0Ev"
  }
  mangled_function_name: "_ZN7android8hardware5media3omx4V1_011BnHwOmxNodeD0Ev"
  source_file: "/data/aosp/out/soong/.intermediates/hardware/interfaces/media/omx/1.0/android.hardware.media.omx@1.0_genc++_headers/gen/android/hardware/media/omx/1.0/BnHwOmxNode.h"
}
functions {
  basic_abi {
    type_abi {
      name: "int"
      size: 4
      alignment: 4
    }
    name: "android::hardware::media::omx::V1_0::BnHwOmxNode::onTransact"
    access: public_access
    linker_set_key: "_ZN7android8hardware5media3omx4V1_011BnHwOmxNode10onTransactEjRKNS0_6ParcelEPS5_jNSt3__18functionIFvRS5_EEE"
  }
  mangled_function_name: "_ZN7android8hardware5media3omx4V1_011BnHwOmxNode10onTransactEjRKNS0_6ParcelEPS5_jNSt3__18functionIFvRS5_EEE"
  source_file: "/data/aosp/out/soong/.intermediates/hardware/interfaces/media/omx/1.0/android.hardware.media.omx@1.0_genc++_headers/gen/android/hardware/media/omx/1.0/BnHwOmxNode.h"
  parameters {
    basic_abi {
      type_abi {
        name: "unsigned int"
        size: 4
        alignment: 4
      }
      name: "_hidl_code"
      access: public_access
      linker_set_key: "false"
    }
    default_arg: false
  }
  parameters {
    basic_abi {
      type_abi {
        name: "const android::hardware::Parcel &"
      }
      name: "_hidl_data"
      access: public_access
      linker_set_key: "false"
    }
    default_arg: false
  }
  parameters {
    basic_abi {
      type_abi {
        name: "android::hardware::Parcel *"
        size: 4
        alignment: 4
      }
      name: "_hidl_reply"
      access: public_access
      linker_set_key: "false"
    }
    default_arg: false
  }
  parameters {
    basic_abi {
      type_abi {
        name: "unsigned int"
        size: 4
        alignment: 4
      }
      name: "_hidl_flags"
      access: public_access
      linker_set_key: "true"
    }
    default_arg: true
  }
  parameters {
    basic_abi {
      type_abi {
        name: "std::function<void (Parcel &)>"
      }
      name: "_hidl_cb"
      access: public_access
      linker_set_key: "true"
    }
    default_arg: true
  }
}
functions {
  basic_abi {
    type_abi {
      name: "android::sp<android::hardware::media::omx::V1_0::IOmxNode>"
    }
    name: "android::hardware::media::omx::V1_0::BnHwOmxNode::getImpl"
    access: public_access
    linker_set_key: "_ZN7android8hardware5media3omx4V1_011BnHwOmxNode7getImplEv"
  }
  mangled_function_name: "_ZN7android8hardware5media3omx4V1_011BnHwOmxNode7getImplEv"
  source_file: "/data/aosp/out/soong/.intermediates/hardware/interfaces/media/omx/1.0/android.hardware.media.omx@1.0_genc++_headers/gen/android/hardware/media/omx/1.0/BnHwOmxNode.h"
}
functions {
  basic_abi {
    type_abi {
      name: "int"
      size: 4
      alignment: 4
    }
    name: "android::hardware::media::omx::V1_0::BnHwOmxNode::_hidl_freeNode"
    access: public_access
    linker_set_key: "_ZN7android8hardware5media3omx4V1_011BnHwOmxNode14_hidl_freeNodeEPNS_4hidl4base4V1_08BnHwBaseERKNS0_6ParcelEPSA_NSt3__18functionIFvRSA_EEE"
  }
  mangled_function_name: "_ZN7android8hardware5media3omx4V1_011BnHwOmxNode14_hidl_freeNodeEPNS_4hidl4base4V1_08BnHwBaseERKNS0_6ParcelEPSA_NSt3__18functionIFvRSA_EEE"
  source_file: "/data/aosp/out/soong/.intermediates/hardware/interfaces/media/omx/1.0/android.hardware.media.omx@1.0_genc++_headers/gen/android/hardware/media/omx/1.0/BnHwOmxNode.h"
  parameters {
    basic_abi {
      type_abi {
        name: "android::hidl::base::V1_0::BnHwBase *"
        size: 4
        alignment: 4
      }
      name: "_hidl_this"
      access: public_access
      linker_set_key: "false"
    }
    default_arg: false
  }
  parameters {
    basic_abi {
      type_abi {
        name: "const android::hardware::Parcel &"
      }
      name: "_hidl_data"
      access: public_access
      linker_set_key: "false"
    }
    default_arg: false
  }
  parameters {
    basic_abi {
      type_abi {
        name: "android::hardware::Parcel *"
        size: 4
        alignment: 4
      }
      name: "_hidl_reply"
      access: public_access
      linker_set_key: "false"
    }
    default_arg: false
  }
  parameters {
    basic_abi {
      type_abi {
        name: "std::function<void (Parcel &)>"
      }
      name: "_hidl_cb"
      access: public_access
      linker_set_key: "false"
    }
    default_arg: false
  }
}
functions {
  basic_abi {
    type_abi {
      name: "int"
      size: 4
      alignment: 4
    }
    name: "android::hardware::media::omx::V1_0::BnHwOmxNode::_hidl_sendCommand"
    access: public_access
    linker_set_key: "_ZN7android8hardware5media3omx4V1_011BnHwOmxNode17_hidl_sendCommandEPNS_4hidl4base4V1_08BnHwBaseERKNS0_6ParcelEPSA_NSt3__18functionIFvRSA_EEE"
  }
  mangled_function_name: "_ZN7android8hardware5media3omx4V1_011BnHwOmxNode17_hidl_sendCommandEPNS_4hidl4base4V1_08BnHwBaseERKNS0_6ParcelEPSA_NSt3__18functionIFvRSA_EEE"
  source_file: "/data/aosp/out/soong/.intermediates/hardware/interfaces/media/omx/1.0/android.hardware.media.omx@1.0_genc++_headers/gen/android/hardware/media/omx/1.0/BnHwOmxNode.h"
  parameters {
    basic_abi {
      type_abi {
        name: "android::hidl::base::V1_0::BnHwBase *"
        size: 4
        alignment: 4
      }
      name: "_hidl_this"
      access: public_access
      linker_set_key: "false"
    }
    default_arg: false
  }
  parameters {
    basic_abi {
      type_abi {
        name: "const android::hardware::Parcel &"
      }
      name: "_hidl_data"
      access: public_access
      linker_set_key: "false"
    }
    default_arg: false
  }
  parameters {
    basic_abi {
      type_abi {
        name: "android::hardware::Parcel *"
        size: 4
        alignment: 4
      }
      name: "_hidl_reply"
      access: public_access
      linker_set_key: "false"
    }
    default_arg: false
  }
  parameters {
    basic_abi {
      type_abi {
        name: "std::function<void (Parcel &)>"
      }
      name: "_hidl_cb"
      access: public_access
      linker_set_key: "false"
    }
    default_arg: false
  }
}
functions {
  basic_abi {
    type_abi {
      name: "int"
      size: 4
      alignment: 4
    }
    name: "android::hardware::media::omx::V1_0::BnHwOmxNode::_hidl_getParameter"
    access: public_access
    linker_set_key: "_ZN7android8hardware5media3omx4V1_011BnHwOmxNode18_hidl_getParameterEPNS_4hidl4base4V1_08BnHwBaseERKNS0_6ParcelEPSA_NSt3__18functionIFvRSA_EEE"
  }
  mangled_function_name: "_ZN7android8hardware5media3omx4V1_011BnHwOmxNode18_hidl_getParameterEPNS_4hidl4base4V1_08BnHwBaseERKNS0_6ParcelEPSA_NSt3__18functionIFvRSA_EEE"
  source_file: "/data/aosp/out/soong/.intermediates/hardware/interfaces/media/omx/1.0/android.hardware.media.omx@1.0_genc++_headers/gen/android/hardware/media/omx/1.0/BnHwOmxNode.h"
  parameters {
    basic_abi {
      type_abi {
        name: "android::hidl::base::V1_0::BnHwBase *"
        size: 4
        alignment: 4
      }
      name: "_hidl_this"
      access: public_access
      linker_set_key: "false"
    }
    default_arg: false
  }
  parameters {
    basic_abi {
      type_abi {
        name: "const android::hardware::Parcel &"
      }
      name: "_hidl_data"
      access: public_access
      linker_set_key: "false"
    }
    default_arg: false
  }
  parameters {
    basic_abi {
      type_abi {
        name: "android::hardware::Parcel *"
        size: 4
        alignment: 4
      }
      name: "_hidl_reply"
      access: public_access
      linker_set_key: "false"
    }
    default_arg: false
  }
  parameters {
    basic_abi {
      type_abi {
        name: "std::function<void (Parcel &)>"
      }
      name: "_hidl_cb"
      access: public_access
      linker_set_key: "false"
    }
    default_arg: false
  }
}
functions {
  basic_abi {
    type_abi {
      name: "int"
      size: 4
      alignment: 4
    }
    name: "android::hardware::media::omx::V1_0::BnHwOmxNode::_hidl_setParameter"
    access: public_access
    linker_set_key: "_ZN7android8hardware5media3omx4V1_011BnHwOmxNode18_hidl_setParameterEPNS_4hidl4base4V1_08BnHwBaseERKNS0_6ParcelEPSA_NSt3__18functionIFvRSA_EEE"
  }
  mangled_function_name: "_ZN7android8hardware5media3omx4V1_011BnHwOmxNode18_hidl_setParameterEPNS_4hidl4base4V1_08BnHwBaseERKNS0_6ParcelEPSA_NSt3__18functionIFvRSA_EEE"
  source_file: "/data/aosp/out/soong/.intermediates/hardware/interfaces/media/omx/1.0/android.hardware.media.omx@1.0_genc++_headers/gen/android/hardware/media/omx/1.0/BnHwOmxNode.h"
  parameters {
    basic_abi {
      type_abi {
        name: "android::hidl::base::V1_0::BnHwBase *"
        size: 4
        alignment: 4
      }
      name: "_hidl_this"
      access: public_access
      linker_set_key: "false"
    }
    default_arg: false
  }
  parameters {
    basic_abi {
      type_abi {
        name: "const android::hardware::Parcel &"
      }
      name: "_hidl_data"
      access: public_access
      linker_set_key: "false"
    }
    default_arg: false
  }
  parameters {
    basic_abi {
      type_abi {
        name: "android::hardware::Parcel *"
        size: 4
        alignment: 4
      }
      name: "_hidl_reply"
      access: public_access
      linker_set_key: "false"
    }
    default_arg: false
  }
  parameters {
    basic_abi {
      type_abi {
        name: "std::function<void (Parcel &)>"
      }
      name: "_hidl_cb"
      access: public_access
      linker_set_key: "false"
    }
    default_arg: false
  }
}
functions {
  basic_abi {
    type_abi {
      name: "int"
      size: 4
      alignment: 4
    }
    name: "android::hardware::media::omx::V1_0::BnHwOmxNode::_hidl_getConfig"
    access: public_access
    linker_set_key: "_ZN7android8hardware5media3omx4V1_011BnHwOmxNode15_hidl_getConfigEPNS_4hidl4base4V1_08BnHwBaseERKNS0_6ParcelEPSA_NSt3__18functionIFvRSA_EEE"
  }
  mangled_function_name: "_ZN7android8hardware5media3omx4V1_011BnHwOmxNode15_hidl_getConfigEPNS_4hidl4base4V1_08BnHwBaseERKNS0_6ParcelEPSA_NSt3__18functionIFvRSA_EEE"
  source_file: "/data/aosp/out/soong/.intermediates/hardware/interfaces/media/omx/1.0/android.hardware.media.omx@1.0_genc++_headers/gen/android/hardware/media/omx/1.0/BnHwOmxNode.h"
  parameters {
    basic_abi {
      type_abi {
        name: "android::hidl::base::V1_0::BnHwBase *"
        size: 4
        alignment: 4
      }
      name: "_hidl_this"
      access: public_access
      linker_set_key: "false"
    }
    default_arg: false
  }
  parameters {
    basic_abi {
      type_abi {
        name: "const android::hardware::Parcel &"
      }
      name: "_hidl_data"
      access: public_access
      linker_set_key: "false"
    }
    default_arg: false
  }
  parameters {
    basic_abi {
      type_abi {
        name: "android::hardware::Parcel *"
        size: 4
        alignment: 4
      }
      name: "_hidl_reply"
      access: public_access
      linker_set_key: "false"
    }
    default_arg: false
  }
  parameters {
    basic_abi {
      type_abi {
        name: "std::function<void (Parcel &)>"
      }
      name: "_hidl_cb"
      access: public_access
      linker_set_key: "false"
    }
    default_arg: false
  }
}
functions {
  basic_abi {
    type_abi {
      name: "int"
      size: 4
      alignment: 4
    }
    name: "android::hardware::media::omx::V1_0::BnHwOmxNode::_hidl_setConfig"
    access: public_access
    linker_set_key: "_ZN7android8hardware5media3omx4V1_011BnHwOmxNode15_hidl_setConfigEPNS_4hidl4base4V1_08BnHwBaseERKNS0_6ParcelEPSA_NSt3__18functionIFvRSA_EEE"
  }
  mangled_function_name: "_ZN7android8hardware5media3omx4V1_011BnHwOmxNode15_hidl_setConfigEPNS_4hidl4base4V1_08BnHwBaseERKNS0_6ParcelEPSA_NSt3__18functionIFvRSA_EEE"
  source_file: "/data/aosp/out/soong/.intermediates/hardware/interfaces/media/omx/1.0/android.hardware.media.omx@1.0_genc++_headers/gen/android/hardware/media/omx/1.0/BnHwOmxNode.h"
  parameters {
    basic_abi {
      type_abi {
        name: "android::hidl::base::V1_0::BnHwBase *"
        size: 4
        alignment: 4
      }
      name: "_hidl_this"
      access: public_access
      linker_set_key: "false"
    }
    default_arg: false
  }
  parameters {
    basic_abi {
      type_abi {
        name: "const android::hardware::Parcel &"
      }
      name: "_hidl_data"
      access: public_access
      linker_set_key: "false"
    }
    default_arg: false
  }
  parameters {
    basic_abi {
      type_abi {
        name: "android::hardware::Parcel *"
        size: 4
        alignment: 4
      }
      name: "_hidl_reply"
      access: public_access
      linker_set_key: "false"
    }
    default_arg: false
  }
  parameters {
    basic_abi {
      type_abi {
        name: "std::function<void (Parcel &)>"
      }
      name: "_hidl_cb"
      access: public_access
      linker_set_key: "false"
    }
    default_arg: false
  }
}
functions {
  basic_abi {
    type_abi {
      name: "int"
      size: 4
      alignment: 4
    }
    name: "android::hardware::media::omx::V1_0::BnHwOmxNode::_hidl_setPortMode"
    access: public_access
    linker_set_key: "_ZN7android8hardware5media3omx4V1_011BnHwOmxNode17_hidl_setPortModeEPNS_4hidl4base4V1_08BnHwBaseERKNS0_6ParcelEPSA_NSt3__18functionIFvRSA_EEE"
  }
  mangled_function_name: "_ZN7android8hardware5media3omx4V1_011BnHwOmxNode17_hidl_setPortModeEPNS_4hidl4base4V1_08BnHwBaseERKNS0_6ParcelEPSA_NSt3__18functionIFvRSA_EEE"
  source_file: "/data/aosp/out/soong/.intermediates/hardware/interfaces/media/omx/1.0/android.hardware.media.omx@1.0_genc++_headers/gen/android/hardware/media/omx/1.0/BnHwOmxNode.h"
  parameters {
    basic_abi {
      type_abi {
        name: "android::hidl::base::V1_0::BnHwBase *"
        size: 4
        alignment: 4
      }
      name: "_hidl_this"
      access: public_access
      linker_set_key: "false"
    }
    default_arg: false
  }
  parameters {
    basic_abi {
      type_abi {
        name: "const android::hardware::Parcel &"
      }
      name: "_hidl_data"
      access: public_access
      linker_set_key: "false"
    }
    default_arg: false
  }
  parameters {
    basic_abi {
      type_abi {
        name: "android::hardware::Parcel *"
        size: 4
        alignment: 4
      }
      name: "_hidl_reply"
      access: public_access
      linker_set_key: "false"
    }
    default_arg: false
  }
  parameters {
    basic_abi {
      type_abi {
        name: "std::function<void (Parcel &)>"
      }
      name: "_hidl_cb"
      access: public_access
      linker_set_key: "false"
    }
    default_arg: false
  }
}
functions {
  basic_abi {
    type_abi {
      name: "int"
      size: 4
      alignment: 4
    }
    name: "android::hardware::media::omx::V1_0::BnHwOmxNode::_hidl_prepareForAdaptivePlayback"
    access: public_access
    linker_set_key: "_ZN7android8hardware5media3omx4V1_011BnHwOmxNode32_hidl_prepareForAdaptivePlaybackEPNS_4hidl4base4V1_08BnHwBaseERKNS0_6ParcelEPSA_NSt3__18functionIFvRSA_EEE"
  }
  mangled_function_name: "_ZN7android8hardware5media3omx4V1_011BnHwOmxNode32_hidl_prepareForAdaptivePlaybackEPNS_4hidl4base4V1_08BnHwBaseERKNS0_6ParcelEPSA_NSt3__18functionIFvRSA_EEE"
  source_file: "/data/aosp/out/soong/.intermediates/hardware/interfaces/media/omx/1.0/android.hardware.media.omx@1.0_genc++_headers/gen/android/hardware/media/omx/1.0/BnHwOmxNode.h"
  parameters {
    basic_abi {
      type_abi {
        name: "android::hidl::base::V1_0::BnHwBase *"
        size: 4
        alignment: 4
      }
      name: "_hidl_this"
      access: public_access
      linker_set_key: "false"
    }
    default_arg: false
  }
  parameters {
    basic_abi {
      type_abi {
        name: "const android::hardware::Parcel &"
      }
      name: "_hidl_data"
      access: public_access
      linker_set_key: "false"
    }
    default_arg: false
  }
  parameters {
    basic_abi {
      type_abi {
        name: "android::hardware::Parcel *"
        size: 4
        alignment: 4
      }
      name: "_hidl_reply"
      access: public_access
      linker_set_key: "false"
    }
    default_arg: false
  }
  parameters {
    basic_abi {
      type_abi {
        name: "std::function<void (Parcel &)>"
      }
      name: "_hidl_cb"
      access: public_access
      linker_set_key: "false"
    }
    default_arg: false
  }
}
functions {
  basic_abi {
    type_abi {
      name: "int"
      size: 4
      alignment: 4
    }
    name: "android::hardware::media::omx::V1_0::BnHwOmxNode::_hidl_configureVideoTunnelMode"
    access: public_access
    linker_set_key: "_ZN7android8hardware5media3omx4V1_011BnHwOmxNode30_hidl_configureVideoTunnelModeEPNS_4hidl4base4V1_08BnHwBaseERKNS0_6ParcelEPSA_NSt3__18functionIFvRSA_EEE"
  }
  mangled_function_name: "_ZN7android8hardware5media3omx4V1_011BnHwOmxNode30_hidl_configureVideoTunnelModeEPNS_4hidl4base4V1_08BnHwBaseERKNS0_6ParcelEPSA_NSt3__18functionIFvRSA_EEE"
  source_file: "/data/aosp/out/soong/.intermediates/hardware/interfaces/media/omx/1.0/android.hardware.media.omx@1.0_genc++_headers/gen/android/hardware/media/omx/1.0/BnHwOmxNode.h"
  parameters {
    basic_abi {
      type_abi {
        name: "android::hidl::base::V1_0::BnHwBase *"
        size: 4
        alignment: 4
      }
      name: "_hidl_this"
      access: public_access
      linker_set_key: "false"
    }
    default_arg: false
  }
  parameters {
    basic_abi {
      type_abi {
        name: "const android::hardware::Parcel &"
      }
      name: "_hidl_data"
      access: public_access
      linker_set_key: "false"
    }
    default_arg: false
  }
  parameters {
    basic_abi {
      type_abi {
        name: "android::hardware::Parcel *"
        size: 4
        alignment: 4
      }
      name: "_hidl_reply"
      access: public_access
      linker_set_key: "false"
    }
    default_arg: false
  }
  parameters {
    basic_abi {
      type_abi {
        name: "std::function<void (Parcel &)>"
      }
      name: "_hidl_cb"
      access: public_access
      linker_set_key: "false"
    }
    default_arg: false
  }
}
functions {
  basic_abi {
    type_abi {
      name: "int"
      size: 4
      alignment: 4
    }
    name: "android::hardware::media::omx::V1_0::BnHwOmxNode::_hidl_getGraphicBufferUsage"
    access: public_access
    linker_set_key: "_ZN7android8hardware5media3omx4V1_011BnHwOmxNode27_hidl_getGraphicBufferUsageEPNS_4hidl4base4V1_08BnHwBaseERKNS0_6ParcelEPSA_NSt3__18functionIFvRSA_EEE"
  }
  mangled_function_name: "_ZN7android8hardware5media3omx4V1_011BnHwOmxNode27_hidl_getGraphicBufferUsageEPNS_4hidl4base4V1_08BnHwBaseERKNS0_6ParcelEPSA_NSt3__18functionIFvRSA_EEE"
  source_file: "/data/aosp/out/soong/.intermediates/hardware/interfaces/media/omx/1.0/android.hardware.media.omx@1.0_genc++_headers/gen/android/hardware/media/omx/1.0/BnHwOmxNode.h"
  parameters {
    basic_abi {
      type_abi {
        name: "android::hidl::base::V1_0::BnHwBase *"
        size: 4
        alignment: 4
      }
      name: "_hidl_this"
      access: public_access
      linker_set_key: "false"
    }
    default_arg: false
  }
  parameters {
    basic_abi {
      type_abi {
        name: "const android::hardware::Parcel &"
      }
      name: "_hidl_data"
      access: public_access
      linker_set_key: "false"
    }
    default_arg: false
  }
  parameters {
    basic_abi {
      type_abi {
        name: "android::hardware::Parcel *"
        size: 4
        alignment: 4
      }
      name: "_hidl_reply"
      access: public_access
      linker_set_key: "false"
    }
    default_arg: false
  }
  parameters {
    basic_abi {
      type_abi {
        name: "std::function<void (Parcel &)>"
      }
      name: "_hidl_cb"
      access: public_access
      linker_set_key: "false"
    }
    default_arg: false
  }
}
functions {
  basic_abi {
    type_abi {
      name: "int"
      size: 4
      alignment: 4
    }
    name: "android::hardware::media::omx::V1_0::BnHwOmxNode::_hidl_setInputSurface"
    access: public_access
    linker_set_key: "_ZN7android8hardware5media3omx4V1_011BnHwOmxNode21_hidl_setInputSurfaceEPNS_4hidl4base4V1_08BnHwBaseERKNS0_6ParcelEPSA_NSt3__18functionIFvRSA_EEE"
  }
  mangled_function_name: "_ZN7android8hardware5media3omx4V1_011BnHwOmxNode21_hidl_setInputSurfaceEPNS_4hidl4base4V1_08BnHwBaseERKNS0_6ParcelEPSA_NSt3__18functionIFvRSA_EEE"
  source_file: "/data/aosp/out/soong/.intermediates/hardware/interfaces/media/omx/1.0/android.hardware.media.omx@1.0_genc++_headers/gen/android/hardware/media/omx/1.0/BnHwOmxNode.h"
  parameters {
    basic_abi {
      type_abi {
        name: "android::hidl::base::V1_0::BnHwBase *"
        size: 4
        alignment: 4
      }
      name: "_hidl_this"
      access: public_access
      linker_set_key: "false"
    }
    default_arg: false
  }
  parameters {
    basic_abi {
      type_abi {
        name: "const android::hardware::Parcel &"
      }
      name: "_hidl_data"
      access: public_access
      linker_set_key: "false"
    }
    default_arg: false
  }
  parameters {
    basic_abi {
      type_abi {
        name: "android::hardware::Parcel *"
        size: 4
        alignment: 4
      }
      name: "_hidl_reply"
      access: public_access
      linker_set_key: "false"
    }
    default_arg: false
  }
  parameters {
    basic_abi {
      type_abi {
        name: "std::function<void (Parcel &)>"
      }
      name: "_hidl_cb"
      access: public_access
      linker_set_key: "false"
    }
    default_arg: false
  }
}
functions {
  basic_abi {
    type_abi {
      name: "int"
      size: 4
      alignment: 4
    }
    name: "android::hardware::media::omx::V1_0::BnHwOmxNode::_hidl_allocateSecureBuffer"
    access: public_access
    linker_set_key: "_ZN7android8hardware5media3omx4V1_011BnHwOmxNode26_hidl_allocateSecureBufferEPNS_4hidl4base4V1_08BnHwBaseERKNS0_6ParcelEPSA_NSt3__18functionIFvRSA_EEE"
  }
  mangled_function_name: "_ZN7android8hardware5media3omx4V1_011BnHwOmxNode26_hidl_allocateSecureBufferEPNS_4hidl4base4V1_08BnHwBaseERKNS0_6ParcelEPSA_NSt3__18functionIFvRSA_EEE"
  source_file: "/data/aosp/out/soong/.intermediates/hardware/interfaces/media/omx/1.0/android.hardware.media.omx@1.0_genc++_headers/gen/android/hardware/media/omx/1.0/BnHwOmxNode.h"
  parameters {
    basic_abi {
      type_abi {
        name: "android::hidl::base::V1_0::BnHwBase *"
        size: 4
        alignment: 4
      }
      name: "_hidl_this"
      access: public_access
      linker_set_key: "false"
    }
    default_arg: false
  }
  parameters {
    basic_abi {
      type_abi {
        name: "const android::hardware::Parcel &"
      }
      name: "_hidl_data"
      access: public_access
      linker_set_key: "false"
    }
    default_arg: false
  }
  parameters {
    basic_abi {
      type_abi {
        name: "android::hardware::Parcel *"
        size: 4
        alignment: 4
      }
      name: "_hidl_reply"
      access: public_access
      linker_set_key: "false"
    }
    default_arg: false
  }
  parameters {
    basic_abi {
      type_abi {
        name: "std::function<void (Parcel &)>"
      }
      name: "_hidl_cb"
      access: public_access
      linker_set_key: "false"
    }
    default_arg: false
  }
}
functions {
  basic_abi {
    type_abi {
      name: "int"
      size: 4
      alignment: 4
    }
    name: "android::hardware::media::omx::V1_0::BnHwOmxNode::_hidl_useBuffer"
    access: public_access
    linker_set_key: "_ZN7android8hardware5media3omx4V1_011BnHwOmxNode15_hidl_useBufferEPNS_4hidl4base4V1_08BnHwBaseERKNS0_6ParcelEPSA_NSt3__18functionIFvRSA_EEE"
  }
  mangled_function_name: "_ZN7android8hardware5media3omx4V1_011BnHwOmxNode15_hidl_useBufferEPNS_4hidl4base4V1_08BnHwBaseERKNS0_6ParcelEPSA_NSt3__18functionIFvRSA_EEE"
  source_file: "/data/aosp/out/soong/.intermediates/hardware/interfaces/media/omx/1.0/android.hardware.media.omx@1.0_genc++_headers/gen/android/hardware/media/omx/1.0/BnHwOmxNode.h"
  parameters {
    basic_abi {
      type_abi {
        name: "android::hidl::base::V1_0::BnHwBase *"
        size: 4
        alignment: 4
      }
      name: "_hidl_this"
      access: public_access
      linker_set_key: "false"
    }
    default_arg: false
  }
  parameters {
    basic_abi {
      type_abi {
        name: "const android::hardware::Parcel &"
      }
      name: "_hidl_data"
      access: public_access
      linker_set_key: "false"
    }
    default_arg: false
  }
  parameters {
    basic_abi {
      type_abi {
        name: "android::hardware::Parcel *"
        size: 4
        alignment: 4
      }
      name: "_hidl_reply"
      access: public_access
      linker_set_key: "false"
    }
    default_arg: false
  }
  parameters {
    basic_abi {
      type_abi {
        name: "std::function<void (Parcel &)>"
      }
      name: "_hidl_cb"
      access: public_access
      linker_set_key: "false"
    }
    default_arg: false
  }
}
functions {
  basic_abi {
    type_abi {
      name: "int"
      size: 4
      alignment: 4
    }
    name: "android::hardware::media::omx::V1_0::BnHwOmxNode::_hidl_freeBuffer"
    access: public_access
    linker_set_key: "_ZN7android8hardware5media3omx4V1_011BnHwOmxNode16_hidl_freeBufferEPNS_4hidl4base4V1_08BnHwBaseERKNS0_6ParcelEPSA_NSt3__18functionIFvRSA_EEE"
  }
  mangled_function_name: "_ZN7android8hardware5media3omx4V1_011BnHwOmxNode16_hidl_freeBufferEPNS_4hidl4base4V1_08BnHwBaseERKNS0_6ParcelEPSA_NSt3__18functionIFvRSA_EEE"
  source_file: "/data/aosp/out/soong/.intermediates/hardware/interfaces/media/omx/1.0/android.hardware.media.omx@1.0_genc++_headers/gen/android/hardware/media/omx/1.0/BnHwOmxNode.h"
  parameters {
    basic_abi {
      type_abi {
        name: "android::hidl::base::V1_0::BnHwBase *"
        size: 4
        alignment: 4
      }
      name: "_hidl_this"
      access: public_access
      linker_set_key: "false"
    }
    default_arg: false
  }
  parameters {
    basic_abi {
      type_abi {
        name: "const android::hardware::Parcel &"
      }
      name: "_hidl_data"
      access: public_access
      linker_set_key: "false"
    }
    default_arg: false
  }
  parameters {
    basic_abi {
      type_abi {
        name: "android::hardware::Parcel *"
        size: 4
        alignment: 4
      }
      name: "_hidl_reply"
      access: public_access
      linker_set_key: "false"
    }
    default_arg: false
  }
  parameters {
    basic_abi {
      type_abi {
        name: "std::function<void (Parcel &)>"
      }
      name: "_hidl_cb"
      access: public_access
      linker_set_key: "false"
    }
    default_arg: false
  }
}
functions {
  basic_abi {
    type_abi {
      name: "int"
      size: 4
      alignment: 4
    }
    name: "android::hardware::media::omx::V1_0::BnHwOmxNode::_hidl_fillBuffer"
    access: public_access
    linker_set_key: "_ZN7android8hardware5media3omx4V1_011BnHwOmxNode16_hidl_fillBufferEPNS_4hidl4base4V1_08BnHwBaseERKNS0_6ParcelEPSA_NSt3__18functionIFvRSA_EEE"
  }
  mangled_function_name: "_ZN7android8hardware5media3omx4V1_011BnHwOmxNode16_hidl_fillBufferEPNS_4hidl4base4V1_08BnHwBaseERKNS0_6ParcelEPSA_NSt3__18functionIFvRSA_EEE"
  source_file: "/data/aosp/out/soong/.intermediates/hardware/interfaces/media/omx/1.0/android.hardware.media.omx@1.0_genc++_headers/gen/android/hardware/media/omx/1.0/BnHwOmxNode.h"
  parameters {
    basic_abi {
      type_abi {
        name: "android::hidl::base::V1_0::BnHwBase *"
        size: 4
        alignment: 4
      }
      name: "_hidl_this"
      access: public_access
      linker_set_key: "false"
    }
    default_arg: false
  }
  parameters {
    basic_abi {
      type_abi {
        name: "const android::hardware::Parcel &"
      }
      name: "_hidl_data"
      access: public_access
      linker_set_key: "false"
    }
    default_arg: false
  }
  parameters {
    basic_abi {
      type_abi {
        name: "android::hardware::Parcel *"
        size: 4
        alignment: 4
      }
      name: "_hidl_reply"
      access: public_access
      linker_set_key: "false"
    }
    default_arg: false
  }
  parameters {
    basic_abi {
      type_abi {
        name: "std::function<void (Parcel &)>"
      }
      name: "_hidl_cb"
      access: public_access
      linker_set_key: "false"
    }
    default_arg: false
  }
}
functions {
  basic_abi {
    type_abi {
      name: "int"
      size: 4
      alignment: 4
    }
    name: "android::hardware::media::omx::V1_0::BnHwOmxNode::_hidl_emptyBuffer"
    access: public_access
    linker_set_key: "_ZN7android8hardware5media3omx4V1_011BnHwOmxNode17_hidl_emptyBufferEPNS_4hidl4base4V1_08BnHwBaseERKNS0_6ParcelEPSA_NSt3__18functionIFvRSA_EEE"
  }
  mangled_function_name: "_ZN7android8hardware5media3omx4V1_011BnHwOmxNode17_hidl_emptyBufferEPNS_4hidl4base4V1_08BnHwBaseERKNS0_6ParcelEPSA_NSt3__18functionIFvRSA_EEE"
  source_file: "/data/aosp/out/soong/.intermediates/hardware/interfaces/media/omx/1.0/android.hardware.media.omx@1.0_genc++_headers/gen/android/hardware/media/omx/1.0/BnHwOmxNode.h"
  parameters {
    basic_abi {
      type_abi {
        name: "android::hidl::base::V1_0::BnHwBase *"
        size: 4
        alignment: 4
      }
      name: "_hidl_this"
      access: public_access
      linker_set_key: "false"
    }
    default_arg: false
  }
  parameters {
    basic_abi {
      type_abi {
        name: "const android::hardware::Parcel &"
      }
      name: "_hidl_data"
      access: public_access
      linker_set_key: "false"
    }
    default_arg: false
  }
  parameters {
    basic_abi {
      type_abi {
        name: "android::hardware::Parcel *"
        size: 4
        alignment: 4
      }
      name: "_hidl_reply"
      access: public_access
      linker_set_key: "false"
    }
    default_arg: false
  }
  parameters {
    basic_abi {
      type_abi {
        name: "std::function<void (Parcel &)>"
      }
      name: "_hidl_cb"
      access: public_access
      linker_set_key: "false"
    }
    default_arg: false
  }
}
functions {
  basic_abi {
    type_abi {
      name: "int"
      size: 4
      alignment: 4
    }
    name: "android::hardware::media::omx::V1_0::BnHwOmxNode::_hidl_getExtensionIndex"
    access: public_access
    linker_set_key: "_ZN7android8hardware5media3omx4V1_011BnHwOmxNode23_hidl_getExtensionIndexEPNS_4hidl4base4V1_08BnHwBaseERKNS0_6ParcelEPSA_NSt3__18functionIFvRSA_EEE"
  }
  mangled_function_name: "_ZN7android8hardware5media3omx4V1_011BnHwOmxNode23_hidl_getExtensionIndexEPNS_4hidl4base4V1_08BnHwBaseERKNS0_6ParcelEPSA_NSt3__18functionIFvRSA_EEE"
  source_file: "/data/aosp/out/soong/.intermediates/hardware/interfaces/media/omx/1.0/android.hardware.media.omx@1.0_genc++_headers/gen/android/hardware/media/omx/1.0/BnHwOmxNode.h"
  parameters {
    basic_abi {
      type_abi {
        name: "android::hidl::base::V1_0::BnHwBase *"
        size: 4
        alignment: 4
      }
      name: "_hidl_this"
      access: public_access
      linker_set_key: "false"
    }
    default_arg: false
  }
  parameters {
    basic_abi {
      type_abi {
        name: "const android::hardware::Parcel &"
      }
      name: "_hidl_data"
      access: public_access
      linker_set_key: "false"
    }
    default_arg: false
  }
  parameters {
    basic_abi {
      type_abi {
        name: "android::hardware::Parcel *"
        size: 4
        alignment: 4
      }
      name: "_hidl_reply"
      access: public_access
      linker_set_key: "false"
    }
    default_arg: false
  }
  parameters {
    basic_abi {
      type_abi {
        name: "std::function<void (Parcel &)>"
      }
      name: "_hidl_cb"
      access: public_access
      linker_set_key: "false"
    }
    default_arg: false
  }
}
functions {
  basic_abi {
    type_abi {
      name: "int"
      size: 4
      alignment: 4
    }
    name: "android::hardware::media::omx::V1_0::BnHwOmxNode::_hidl_dispatchMessage"
    access: public_access
    linker_set_key: "_ZN7android8hardware5media3omx4V1_011BnHwOmxNode21_hidl_dispatchMessageEPNS_4hidl4base4V1_08BnHwBaseERKNS0_6ParcelEPSA_NSt3__18functionIFvRSA_EEE"
  }
  mangled_function_name: "_ZN7android8hardware5media3omx4V1_011BnHwOmxNode21_hidl_dispatchMessageEPNS_4hidl4base4V1_08BnHwBaseERKNS0_6ParcelEPSA_NSt3__18functionIFvRSA_EEE"
  source_file: "/data/aosp/out/soong/.intermediates/hardware/interfaces/media/omx/1.0/android.hardware.media.omx@1.0_genc++_headers/gen/android/hardware/media/omx/1.0/BnHwOmxNode.h"
  parameters {
    basic_abi {
      type_abi {
        name: "android::hidl::base::V1_0::BnHwBase *"
        size: 4
        alignment: 4
      }
      name: "_hidl_this"
      access: public_access
      linker_set_key: "false"
    }
    default_arg: false
  }
  parameters {
    basic_abi {
      type_abi {
        name: "const android::hardware::Parcel &"
      }
      name: "_hidl_data"
      access: public_access
      linker_set_key: "false"
    }
    default_arg: false
  }
  parameters {
    basic_abi {
      type_abi {
        name: "android::hardware::Parcel *"
        size: 4
        alignment: 4
      }
      name: "_hidl_reply"
      access: public_access
      linker_set_key: "false"
    }
    default_arg: false
  }
  parameters {
    basic_abi {
      type_abi {
        name: "std::function<void (Parcel &)>"
      }
      name: "_hidl_cb"
      access: public_access
      linker_set_key: "false"
    }
    default_arg: false
  }
}
functions {
  basic_abi {
    type_abi {
      name: "android::hardware::Return<void>"
    }
    name: "android::hardware::media::omx::V1_0::BnHwOmxNode::ping"
    access: private_access
    linker_set_key: "_ZN7android8hardware5media3omx4V1_011BnHwOmxNode4pingEv"
  }
  mangled_function_name: "_ZN7android8hardware5media3omx4V1_011BnHwOmxNode4pingEv"
  source_file: "/data/aosp/out/soong/.intermediates/hardware/interfaces/media/omx/1.0/android.hardware.media.omx@1.0_genc++_headers/gen/android/hardware/media/omx/1.0/BnHwOmxNode.h"
}
functions {
  basic_abi {
    type_abi {
      name: "android::hardware::Return<void>"
    }
    name: "android::hardware::media::omx::V1_0::BnHwOmxNode::getDebugInfo"
    access: private_access
    linker_set_key: "_ZN7android8hardware5media3omx4V1_011BnHwOmxNode12getDebugInfoENSt3__18functionIFvRKNS_4hidl4base4V1_09DebugInfoEEEE"
  }
  mangled_function_name: "_ZN7android8hardware5media3omx4V1_011BnHwOmxNode12getDebugInfoENSt3__18functionIFvRKNS_4hidl4base4V1_09DebugInfoEEEE"
  source_file: "/data/aosp/out/soong/.intermediates/hardware/interfaces/media/omx/1.0/android.hardware.media.omx@1.0_genc++_headers/gen/android/hardware/media/omx/1.0/BnHwOmxNode.h"
  parameters {
    basic_abi {
      type_abi {
        name: "std::function<void (const DebugInfo &)>"
      }
      name: "_hidl_cb"
      access: public_access
      linker_set_key: "false"
    }
    default_arg: false
  }
}
functions {
  basic_abi {
    type_abi {
      name: "void"
    }
    name: "android::hardware::media::omx::V1_0::BsOmxNode::BsOmxNode"
    access: public_access
    linker_set_key: "_ZN7android8hardware5media3omx4V1_09BsOmxNodeC2ENS_2spINS3_8IOmxNodeEEE"
  }
  mangled_function_name: "_ZN7android8hardware5media3omx4V1_09BsOmxNodeC2ENS_2spINS3_8IOmxNodeEEE"
  source_file: "/data/aosp/out/soong/.intermediates/hardware/interfaces/media/omx/1.0/android.hardware.media.omx@1.0_genc++_headers/gen/android/hardware/media/omx/1.0/BsOmxNode.h"
  parameters {
    basic_abi {
      type_abi {
        name: "const android::sp<android::hardware::media::omx::V1_0::IOmxNode>"
      }
      name: "impl"
      access: public_access
      linker_set_key: "false"
    }
    default_arg: false
  }
}
functions {
  basic_abi {
    type_abi {
      name: "void"
    }
    name: "android::hardware::media::omx::V1_0::BsOmxNode::BsOmxNode"
    access: public_access
    linker_set_key: "_ZN7android8hardware5media3omx4V1_09BsOmxNodeC1ENS_2spINS3_8IOmxNodeEEE"
  }
  mangled_function_name: "_ZN7android8hardware5media3omx4V1_09BsOmxNodeC1ENS_2spINS3_8IOmxNodeEEE"
  source_file: "/data/aosp/out/soong/.intermediates/hardware/interfaces/media/omx/1.0/android.hardware.media.omx@1.0_genc++_headers/gen/android/hardware/media/omx/1.0/BsOmxNode.h"
  parameters {
    basic_abi {
      type_abi {
        name: "const android::sp<android::hardware::media::omx::V1_0::IOmxNode>"
      }
      name: "impl"
      access: public_access
      linker_set_key: "false"
    }
    default_arg: false
  }
}
functions {
  basic_abi {
    type_abi {
      name: "android::hardware::Return<android::hardware::media::omx::V1_0::Status>"
    }
    name: "android::hardware::media::omx::V1_0::BsOmxNode::freeNode"
    access: public_access
    linker_set_key: "_ZN7android8hardware5media3omx4V1_09BsOmxNode8freeNodeEv"
  }
  mangled_function_name: "_ZN7android8hardware5media3omx4V1_09BsOmxNode8freeNodeEv"
  source_file: "/data/aosp/out/soong/.intermediates/hardware/interfaces/media/omx/1.0/android.hardware.media.omx@1.0_genc++_headers/gen/android/hardware/media/omx/1.0/BsOmxNode.h"
}
functions {
  basic_abi {
    type_abi {
      name: "android::hardware::Return<android::hardware::media::omx::V1_0::Status>"
    }
    name: "android::hardware::media::omx::V1_0::BsOmxNode::sendCommand"
    access: public_access
    linker_set_key: "_ZN7android8hardware5media3omx4V1_09BsOmxNode11sendCommandEji"
  }
  mangled_function_name: "_ZN7android8hardware5media3omx4V1_09BsOmxNode11sendCommandEji"
  source_file: "/data/aosp/out/soong/.intermediates/hardware/interfaces/media/omx/1.0/android.hardware.media.omx@1.0_genc++_headers/gen/android/hardware/media/omx/1.0/BsOmxNode.h"
  parameters {
    basic_abi {
      type_abi {
        name: "unsigned int"
        size: 4
        alignment: 4
      }
      name: "cmd"
      access: public_access
      linker_set_key: "false"
    }
    default_arg: false
  }
  parameters {
    basic_abi {
      type_abi {
        name: "int"
        size: 4
        alignment: 4
      }
      name: "param"
      access: public_access
      linker_set_key: "false"
    }
    default_arg: false
  }
}
functions {
  basic_abi {
    type_abi {
      name: "android::hardware::Return<void>"
    }
    name: "android::hardware::media::omx::V1_0::BsOmxNode::getParameter"
    access: public_access
    linker_set_key: "_ZN7android8hardware5media3omx4V1_09BsOmxNode12getParameterEjRKNS0_8hidl_vecIhEENSt3__18functionIFvNS3_6StatusES8_EEE"
  }
  mangled_function_name: "_ZN7android8hardware5media3omx4V1_09BsOmxNode12getParameterEjRKNS0_8hidl_vecIhEENSt3__18functionIFvNS3_6StatusES8_EEE"
  source_file: "/data/aosp/out/soong/.intermediates/hardware/interfaces/media/omx/1.0/android.hardware.media.omx@1.0_genc++_headers/gen/android/hardware/media/omx/1.0/BsOmxNode.h"
  parameters {
    basic_abi {
      type_abi {
        name: "unsigned int"
        size: 4
        alignment: 4
      }
      name: "index"
      access: public_access
      linker_set_key: "false"
    }
    default_arg: false
  }
  parameters {
    basic_abi {
      type_abi {
        name: "const android::hardware::hidl_vec<unsigned char> &"
      }
      name: "inParams"
      access: public_access
      linker_set_key: "false"
    }
    default_arg: false
  }
  parameters {
    basic_abi {
      type_abi {
        name: "std::function<void (Status, const hidl_vec<unsigned char> &)>"
      }
      name: "_hidl_cb"
      access: public_access
      linker_set_key: "false"
    }
    default_arg: false
  }
}
functions {
  basic_abi {
    type_abi {
      name: "android::hardware::Return<android::hardware::media::omx::V1_0::Status>"
    }
    name: "android::hardware::media::omx::V1_0::BsOmxNode::setParameter"
    access: public_access
    linker_set_key: "_ZN7android8hardware5media3omx4V1_09BsOmxNode12setParameterEjRKNS0_8hidl_vecIhEE"
  }
  mangled_function_name: "_ZN7android8hardware5media3omx4V1_09BsOmxNode12setParameterEjRKNS0_8hidl_vecIhEE"
  source_file: "/data/aosp/out/soong/.intermediates/hardware/interfaces/media/omx/1.0/android.hardware.media.omx@1.0_genc++_headers/gen/android/hardware/media/omx/1.0/BsOmxNode.h"
  parameters {
    basic_abi {
      type_abi {
        name: "unsigned int"
        size: 4
        alignment: 4
      }
      name: "index"
      access: public_access
      linker_set_key: "false"
    }
    default_arg: false
  }
  parameters {
    basic_abi {
      type_abi {
        name: "const android::hardware::hidl_vec<unsigned char> &"
      }
      name: "params"
      access: public_access
      linker_set_key: "false"
    }
    default_arg: false
  }
}
functions {
  basic_abi {
    type_abi {
      name: "android::hardware::Return<void>"
    }
    name: "android::hardware::media::omx::V1_0::BsOmxNode::getConfig"
    access: public_access
    linker_set_key: "_ZN7android8hardware5media3omx4V1_09BsOmxNode9getConfigEjRKNS0_8hidl_vecIhEENSt3__18functionIFvNS3_6StatusES8_EEE"
  }
  mangled_function_name: "_ZN7android8hardware5media3omx4V1_09BsOmxNode9getConfigEjRKNS0_8hidl_vecIhEENSt3__18functionIFvNS3_6StatusES8_EEE"
  source_file: "/data/aosp/out/soong/.intermediates/hardware/interfaces/media/omx/1.0/android.hardware.media.omx@1.0_genc++_headers/gen/android/hardware/media/omx/1.0/BsOmxNode.h"
  parameters {
    basic_abi {
      type_abi {
        name: "unsigned int"
        size: 4
        alignment: 4
      }
      name: "index"
      access: public_access
      linker_set_key: "false"
    }
    default_arg: false
  }
  parameters {
    basic_abi {
      type_abi {
        name: "const android::hardware::hidl_vec<unsigned char> &"
      }
      name: "inConfig"
      access: public_access
      linker_set_key: "false"
    }
    default_arg: false
  }
  parameters {
    basic_abi {
      type_abi {
        name: "std::function<void (Status, const hidl_vec<unsigned char> &)>"
      }
      name: "_hidl_cb"
      access: public_access
      linker_set_key: "false"
    }
    default_arg: false
  }
}
functions {
  basic_abi {
    type_abi {
      name: "android::hardware::Return<android::hardware::media::omx::V1_0::Status>"
    }
    name: "android::hardware::media::omx::V1_0::BsOmxNode::setConfig"
    access: public_access
    linker_set_key: "_ZN7android8hardware5media3omx4V1_09BsOmxNode9setConfigEjRKNS0_8hidl_vecIhEE"
  }
  mangled_function_name: "_ZN7android8hardware5media3omx4V1_09BsOmxNode9setConfigEjRKNS0_8hidl_vecIhEE"
  source_file: "/data/aosp/out/soong/.intermediates/hardware/interfaces/media/omx/1.0/android.hardware.media.omx@1.0_genc++_headers/gen/android/hardware/media/omx/1.0/BsOmxNode.h"
  parameters {
    basic_abi {
      type_abi {
        name: "unsigned int"
        size: 4
        alignment: 4
      }
      name: "index"
      access: public_access
      linker_set_key: "false"
    }
    default_arg: false
  }
  parameters {
    basic_abi {
      type_abi {
        name: "const android::hardware::hidl_vec<unsigned char> &"
      }
      name: "config"
      access: public_access
      linker_set_key: "false"
    }
    default_arg: false
  }
}
functions {
  basic_abi {
    type_abi {
      name: "android::hardware::Return<android::hardware::media::omx::V1_0::Status>"
    }
    name: "android::hardware::media::omx::V1_0::BsOmxNode::setPortMode"
    access: public_access
    linker_set_key: "_ZN7android8hardware5media3omx4V1_09BsOmxNode11setPortModeEjNS3_8PortModeE"
  }
  mangled_function_name: "_ZN7android8hardware5media3omx4V1_09BsOmxNode11setPortModeEjNS3_8PortModeE"
  source_file: "/data/aosp/out/soong/.intermediates/hardware/interfaces/media/omx/1.0/android.hardware.media.omx@1.0_genc++_headers/gen/android/hardware/media/omx/1.0/BsOmxNode.h"
  parameters {
    basic_abi {
      type_abi {
        name: "unsigned int"
        size: 4
        alignment: 4
      }
      name: "portIndex"
      access: public_access
      linker_set_key: "false"
    }
    default_arg: false
  }
  parameters {
    basic_abi {
      type_abi {
        name: "android::hardware::media::omx::V1_0::PortMode"
      }
      name: "mode"
      access: public_access
      linker_set_key: "false"
    }
    default_arg: false
  }
}
functions {
  basic_abi {
    type_abi {
      name: "android::hardware::Return<android::hardware::media::omx::V1_0::Status>"
    }
    name: "android::hardware::media::omx::V1_0::BsOmxNode::prepareForAdaptivePlayback"
    access: public_access
    linker_set_key: "_ZN7android8hardware5media3omx4V1_09BsOmxNode26prepareForAdaptivePlaybackEjbjj"
  }
  mangled_function_name: "_ZN7android8hardware5media3omx4V1_09BsOmxNode26prepareForAdaptivePlaybackEjbjj"
  source_file: "/data/aosp/out/soong/.intermediates/hardware/interfaces/media/omx/1.0/android.hardware.media.omx@1.0_genc++_headers/gen/android/hardware/media/omx/1.0/BsOmxNode.h"
  parameters {
    basic_abi {
      type_abi {
        name: "unsigned int"
        size: 4
        alignment: 4
      }
      name: "portIndex"
      access: public_access
      linker_set_key: "false"
    }
    default_arg: false
  }
  parameters {
    basic_abi {
      type_abi {
        name: "bool"
        size: 1
        alignment: 1
      }
      name: "enable"
      access: public_access
      linker_set_key: "false"
    }
    default_arg: false
  }
  parameters {
    basic_abi {
      type_abi {
        name: "unsigned int"
        size: 4
        alignment: 4
      }
      name: "maxFrameWidth"
      access: public_access
      linker_set_key: "false"
    }
    default_arg: false
  }
  parameters {
    basic_abi {
      type_abi {
        name: "unsigned int"
        size: 4
        alignment: 4
      }
      name: "maxFrameHeight"
      access: public_access
      linker_set_key: "false"
    }
    default_arg: false
  }
}
functions {
  basic_abi {
    type_abi {
      name: "android::hardware::Return<void>"
    }
    name: "android::hardware::media::omx::V1_0::BsOmxNode::configureVideoTunnelMode"
    access: public_access
    linker_set_key: "_ZN7android8hardware5media3omx4V1_09BsOmxNode24configureVideoTunnelModeEjbjNSt3__18functionIFvNS3_6StatusERKNS0_11hidl_handleEEEE"
  }
  mangled_function_name: "_ZN7android8hardware5media3omx4V1_09BsOmxNode24configureVideoTunnelModeEjbjNSt3__18functionIFvNS3_6StatusERKNS0_11hidl_handleEEEE"
  source_file: "/data/aosp/out/soong/.intermediates/hardware/interfaces/media/omx/1.0/android.hardware.media.omx@1.0_genc++_headers/gen/android/hardware/media/omx/1.0/BsOmxNode.h"
  parameters {
    basic_abi {
      type_abi {
        name: "unsigned int"
        size: 4
        alignment: 4
      }
      name: "portIndex"
      access: public_access
      linker_set_key: "false"
    }
    default_arg: false
  }
  parameters {
    basic_abi {
      type_abi {
        name: "bool"
        size: 1
        alignment: 1
      }
      name: "tunneled"
      access: public_access
      linker_set_key: "false"
    }
    default_arg: false
  }
  parameters {
    basic_abi {
      type_abi {
        name: "unsigned int"
        size: 4
        alignment: 4
      }
      name: "audioHwSync"
      access: public_access
      linker_set_key: "false"
    }
    default_arg: false
  }
  parameters {
    basic_abi {
      type_abi {
        name: "std::function<void (Status, const hidl_handle &)>"
      }
      name: "_hidl_cb"
      access: public_access
      linker_set_key: "false"
    }
    default_arg: false
  }
}
functions {
  basic_abi {
    type_abi {
      name: "android::hardware::Return<void>"
    }
    name: "android::hardware::media::omx::V1_0::BsOmxNode::getGraphicBufferUsage"
    access: public_access
    linker_set_key: "_ZN7android8hardware5media3omx4V1_09BsOmxNode21getGraphicBufferUsageEjNSt3__18functionIFvNS3_6StatusEjEEE"
  }
  mangled_function_name: "_ZN7android8hardware5media3omx4V1_09BsOmxNode21getGraphicBufferUsageEjNSt3__18functionIFvNS3_6StatusEjEEE"
  source_file: "/data/aosp/out/soong/.intermediates/hardware/interfaces/media/omx/1.0/android.hardware.media.omx@1.0_genc++_headers/gen/android/hardware/media/omx/1.0/BsOmxNode.h"
  parameters {
    basic_abi {
      type_abi {
        name: "unsigned int"
        size: 4
        alignment: 4
      }
      name: "portIndex"
      access: public_access
      linker_set_key: "false"
    }
    default_arg: false
  }
  parameters {
    basic_abi {
      type_abi {
        name: "std::function<void (Status, unsigned int)>"
      }
      name: "_hidl_cb"
      access: public_access
      linker_set_key: "false"
    }
    default_arg: false
  }
}
functions {
  basic_abi {
    type_abi {
      name: "android::hardware::Return<android::hardware::media::omx::V1_0::Status>"
    }
    name: "android::hardware::media::omx::V1_0::BsOmxNode::setInputSurface"
    access: public_access
    linker_set_key: "_ZN7android8hardware5media3omx4V1_09BsOmxNode15setInputSurfaceERKNS_2spINS3_16IOmxBufferSourceEEE"
  }
  mangled_function_name: "_ZN7android8hardware5media3omx4V1_09BsOmxNode15setInputSurfaceERKNS_2spINS3_16IOmxBufferSourceEEE"
  source_file: "/data/aosp/out/soong/.intermediates/hardware/interfaces/media/omx/1.0/android.hardware.media.omx@1.0_genc++_headers/gen/android/hardware/media/omx/1.0/BsOmxNode.h"
  parameters {
    basic_abi {
      type_abi {
        name: "const android::sp<android::hardware::media::omx::V1_0::IOmxBufferSource> &"
      }
      name: "bufferSource"
      access: public_access
      linker_set_key: "false"
    }
    default_arg: false
  }
}
functions {
  basic_abi {
    type_abi {
      name: "android::hardware::Return<void>"
    }
    name: "android::hardware::media::omx::V1_0::BsOmxNode::allocateSecureBuffer"
    access: public_access
    linker_set_key: "_ZN7android8hardware5media3omx4V1_09BsOmxNode20allocateSecureBufferEjyNSt3__18functionIFvNS3_6StatusEjRKNS0_11hidl_handleEEEE"
  }
  mangled_function_name: "_ZN7android8hardware5media3omx4V1_09BsOmxNode20allocateSecureBufferEjyNSt3__18functionIFvNS3_6StatusEjRKNS0_11hidl_handleEEEE"
  source_file: "/data/aosp/out/soong/.intermediates/hardware/interfaces/media/omx/1.0/android.hardware.media.omx@1.0_genc++_headers/gen/android/hardware/media/omx/1.0/BsOmxNode.h"
  parameters {
    basic_abi {
      type_abi {
        name: "unsigned int"
        size: 4
        alignment: 4
      }
      name: "portIndex"
      access: public_access
      linker_set_key: "false"
    }
    default_arg: false
  }
  parameters {
    basic_abi {
      type_abi {
        name: "unsigned long long"
        size: 8
        alignment: 8
      }
      name: "size"
      access: public_access
      linker_set_key: "false"
    }
    default_arg: false
  }
  parameters {
    basic_abi {
      type_abi {
        name: "std::function<void (Status, unsigned int, const hidl_handle &)>"
      }
      name: "_hidl_cb"
      access: public_access
      linker_set_key: "false"
    }
    default_arg: false
  }
}
functions {
  basic_abi {
    type_abi {
      name: "android::hardware::Return<void>"
    }
    name: "android::hardware::media::omx::V1_0::BsOmxNode::useBuffer"
    access: public_access
    linker_set_key: "_ZN7android8hardware5media3omx4V1_09BsOmxNode9useBufferEjRKNS3_11CodecBufferENSt3__18functionIFvNS3_6StatusEjEEE"
  }
  mangled_function_name: "_ZN7android8hardware5media3omx4V1_09BsOmxNode9useBufferEjRKNS3_11CodecBufferENSt3__18functionIFvNS3_6StatusEjEEE"
  source_file: "/data/aosp/out/soong/.intermediates/hardware/interfaces/media/omx/1.0/android.hardware.media.omx@1.0_genc++_headers/gen/android/hardware/media/omx/1.0/BsOmxNode.h"
  parameters {
    basic_abi {
      type_abi {
        name: "unsigned int"
        size: 4
        alignment: 4
      }
      name: "portIndex"
      access: public_access
      linker_set_key: "false"
    }
    default_arg: false
  }
  parameters {
    basic_abi {
      type_abi {
        name: "const android::hardware::media::omx::V1_0::CodecBuffer &"
      }
      name: "omxBuffer"
      access: public_access
      linker_set_key: "false"
    }
    default_arg: false
  }
  parameters {
    basic_abi {
      type_abi {
        name: "std::function<void (Status, unsigned int)>"
      }
      name: "_hidl_cb"
      access: public_access
      linker_set_key: "false"
    }
    default_arg: false
  }
}
functions {
  basic_abi {
    type_abi {
      name: "android::hardware::Return<android::hardware::media::omx::V1_0::Status>"
    }
    name: "android::hardware::media::omx::V1_0::BsOmxNode::freeBuffer"
    access: public_access
    linker_set_key: "_ZN7android8hardware5media3omx4V1_09BsOmxNode10freeBufferEjj"
  }
  mangled_function_name: "_ZN7android8hardware5media3omx4V1_09BsOmxNode10freeBufferEjj"
  source_file: "/data/aosp/out/soong/.intermediates/hardware/interfaces/media/omx/1.0/android.hardware.media.omx@1.0_genc++_headers/gen/android/hardware/media/omx/1.0/BsOmxNode.h"
  parameters {
    basic_abi {
      type_abi {
        name: "unsigned int"
        size: 4
        alignment: 4
      }
      name: "portIndex"
      access: public_access
      linker_set_key: "false"
    }
    default_arg: false
  }
  parameters {
    basic_abi {
      type_abi {
        name: "unsigned int"
        size: 4
        alignment: 4
      }
      name: "buffer"
      access: public_access
      linker_set_key: "false"
    }
    default_arg: false
  }
}
functions {
  basic_abi {
    type_abi {
      name: "android::hardware::Return<android::hardware::media::omx::V1_0::Status>"
    }
    name: "android::hardware::media::omx::V1_0::BsOmxNode::fillBuffer"
    access: public_access
    linker_set_key: "_ZN7android8hardware5media3omx4V1_09BsOmxNode10fillBufferEjRKNS3_11CodecBufferERKNS0_11hidl_handleE"
  }
  mangled_function_name: "_ZN7android8hardware5media3omx4V1_09BsOmxNode10fillBufferEjRKNS3_11CodecBufferERKNS0_11hidl_handleE"
  source_file: "/data/aosp/out/soong/.intermediates/hardware/interfaces/media/omx/1.0/android.hardware.media.omx@1.0_genc++_headers/gen/android/hardware/media/omx/1.0/BsOmxNode.h"
  parameters {
    basic_abi {
      type_abi {
        name: "unsigned int"
        size: 4
        alignment: 4
      }
      name: "buffer"
      access: public_access
      linker_set_key: "false"
    }
    default_arg: false
  }
  parameters {
    basic_abi {
      type_abi {
        name: "const android::hardware::media::omx::V1_0::CodecBuffer &"
      }
      name: "omxBuffer"
      access: public_access
      linker_set_key: "false"
    }
    default_arg: false
  }
  parameters {
    basic_abi {
      type_abi {
        name: "const android::hardware::hidl_handle &"
      }
      name: "fence"
      access: public_access
      linker_set_key: "false"
    }
    default_arg: false
  }
}
functions {
  basic_abi {
    type_abi {
      name: "android::hardware::Return<android::hardware::media::omx::V1_0::Status>"
    }
    name: "android::hardware::media::omx::V1_0::BsOmxNode::emptyBuffer"
    access: public_access
    linker_set_key: "_ZN7android8hardware5media3omx4V1_09BsOmxNode11emptyBufferEjRKNS3_11CodecBufferEjyRKNS0_11hidl_handleE"
  }
  mangled_function_name: "_ZN7android8hardware5media3omx4V1_09BsOmxNode11emptyBufferEjRKNS3_11CodecBufferEjyRKNS0_11hidl_handleE"
  source_file: "/data/aosp/out/soong/.intermediates/hardware/interfaces/media/omx/1.0/android.hardware.media.omx@1.0_genc++_headers/gen/android/hardware/media/omx/1.0/BsOmxNode.h"
  parameters {
    basic_abi {
      type_abi {
        name: "unsigned int"
        size: 4
        alignment: 4
      }
      name: "buffer"
      access: public_access
      linker_set_key: "false"
    }
    default_arg: false
  }
  parameters {
    basic_abi {
      type_abi {
        name: "const android::hardware::media::omx::V1_0::CodecBuffer &"
      }
      name: "omxBuffer"
      access: public_access
      linker_set_key: "false"
    }
    default_arg: false
  }
  parameters {
    basic_abi {
      type_abi {
        name: "unsigned int"
        size: 4
        alignment: 4
      }
      name: "flags"
      access: public_access
      linker_set_key: "false"
    }
    default_arg: false
  }
  parameters {
    basic_abi {
      type_abi {
        name: "unsigned long long"
        size: 8
        alignment: 8
      }
      name: "timestampUs"
      access: public_access
      linker_set_key: "false"
    }
    default_arg: false
  }
  parameters {
    basic_abi {
      type_abi {
        name: "const android::hardware::hidl_handle &"
      }
      name: "fence"
      access: public_access
      linker_set_key: "false"
    }
    default_arg: false
  }
}
functions {
  basic_abi {
    type_abi {
      name: "android::hardware::Return<void>"
    }
    name: "android::hardware::media::omx::V1_0::BsOmxNode::getExtensionIndex"
    access: public_access
    linker_set_key: "_ZN7android8hardware5media3omx4V1_09BsOmxNode17getExtensionIndexERKNS0_11hidl_stringENSt3__18functionIFvNS3_6StatusEjEEE"
  }
  mangled_function_name: "_ZN7android8hardware5media3omx4V1_09BsOmxNode17getExtensionIndexERKNS0_11hidl_stringENSt3__18functionIFvNS3_6StatusEjEEE"
  source_file: "/data/aosp/out/soong/.intermediates/hardware/interfaces/media/omx/1.0/android.hardware.media.omx@1.0_genc++_headers/gen/android/hardware/media/omx/1.0/BsOmxNode.h"
  parameters {
    basic_abi {
      type_abi {
        name: "const android::hardware::hidl_string &"
      }
      name: "parameterName"
      access: public_access
      linker_set_key: "false"
    }
    default_arg: false
  }
  parameters {
    basic_abi {
      type_abi {
        name: "std::function<void (Status, unsigned int)>"
      }
      name: "_hidl_cb"
      access: public_access
      linker_set_key: "false"
    }
    default_arg: false
  }
}
functions {
  basic_abi {
    type_abi {
      name: "android::hardware::Return<android::hardware::media::omx::V1_0::Status>"
    }
    name: "android::hardware::media::omx::V1_0::BsOmxNode::dispatchMessage"
    access: public_access
    linker_set_key: "_ZN7android8hardware5media3omx4V1_09BsOmxNode15dispatchMessageERKNS3_7MessageE"
  }
  mangled_function_name: "_ZN7android8hardware5media3omx4V1_09BsOmxNode15dispatchMessageERKNS3_7MessageE"
  source_file: "/data/aosp/out/soong/.intermediates/hardware/interfaces/media/omx/1.0/android.hardware.media.omx@1.0_genc++_headers/gen/android/hardware/media/omx/1.0/BsOmxNode.h"
  parameters {
    basic_abi {
      type_abi {
        name: "const android::hardware::media::omx::V1_0::Message &"
      }
      name: "msg"
      access: public_access
      linker_set_key: "false"
    }
    default_arg: false
  }
}
functions {
  basic_abi {
    type_abi {
      name: "android::hardware::Return<void>"
    }
    name: "android::hardware::media::omx::V1_0::BsOmxNode::interfaceChain"
    access: public_access
    linker_set_key: "_ZN7android8hardware5media3omx4V1_09BsOmxNode14interfaceChainENSt3__18functionIFvRKNS0_8hidl_vecINS0_11hidl_stringEEEEEE"
  }
  mangled_function_name: "_ZN7android8hardware5media3omx4V1_09BsOmxNode14interfaceChainENSt3__18functionIFvRKNS0_8hidl_vecINS0_11hidl_stringEEEEEE"
  source_file: "/data/aosp/out/soong/.intermediates/hardware/interfaces/media/omx/1.0/android.hardware.media.omx@1.0_genc++_headers/gen/android/hardware/media/omx/1.0/BsOmxNode.h"
  parameters {
    basic_abi {
      type_abi {
        name: "std::function<void (const hidl_vec<hidl_string> &)>"
      }
      name: "_hidl_cb"
      access: public_access
      linker_set_key: "false"
    }
    default_arg: false
  }
}
functions {
  basic_abi {
    type_abi {
      name: "android::hardware::Return<void>"
    }
    name: "android::hardware::media::omx::V1_0::BsOmxNode::debug"
    access: public_access
    linker_set_key: "_ZN7android8hardware5media3omx4V1_09BsOmxNode5debugERKNS0_11hidl_handleERKNS0_8hidl_vecINS0_11hidl_stringEEE"
  }
  mangled_function_name: "_ZN7android8hardware5media3omx4V1_09BsOmxNode5debugERKNS0_11hidl_handleERKNS0_8hidl_vecINS0_11hidl_stringEEE"
  source_file: "/data/aosp/out/soong/.intermediates/hardware/interfaces/media/omx/1.0/android.hardware.media.omx@1.0_genc++_headers/gen/android/hardware/media/omx/1.0/BsOmxNode.h"
  parameters {
    basic_abi {
      type_abi {
        name: "const android::hardware::hidl_handle &"
      }
      name: "fd"
      access: public_access
      linker_set_key: "false"
    }
    default_arg: false
  }
  parameters {
    basic_abi {
      type_abi {
        name: "const android::hardware::hidl_vec<android::hardware::hidl_string> &"
      }
      name: "options"
      access: public_access
      linker_set_key: "false"
    }
    default_arg: false
  }
}
functions {
  basic_abi {
    type_abi {
      name: "android::hardware::Return<void>"
    }
    name: "android::hardware::media::omx::V1_0::BsOmxNode::interfaceDescriptor"
    access: public_access
    linker_set_key: "_ZN7android8hardware5media3omx4V1_09BsOmxNode19interfaceDescriptorENSt3__18functionIFvRKNS0_11hidl_stringEEEE"
  }
  mangled_function_name: "_ZN7android8hardware5media3omx4V1_09BsOmxNode19interfaceDescriptorENSt3__18functionIFvRKNS0_11hidl_stringEEEE"
  source_file: "/data/aosp/out/soong/.intermediates/hardware/interfaces/media/omx/1.0/android.hardware.media.omx@1.0_genc++_headers/gen/android/hardware/media/omx/1.0/BsOmxNode.h"
  parameters {
    basic_abi {
      type_abi {
        name: "std::function<void (const hidl_string &)>"
      }
      name: "_hidl_cb"
      access: public_access
      linker_set_key: "false"
    }
    default_arg: false
  }
}
functions {
  basic_abi {
    type_abi {
      name: "android::hardware::Return<void>"
    }
    name: "android::hardware::media::omx::V1_0::BsOmxNode::getHashChain"
    access: public_access
    linker_set_key: "_ZN7android8hardware5media3omx4V1_09BsOmxNode12getHashChainENSt3__18functionIFvRKNS0_8hidl_vecINS0_10hidl_arrayIhLj32EJEEEEEEEE"
  }
  mangled_function_name: "_ZN7android8hardware5media3omx4V1_09BsOmxNode12getHashChainENSt3__18functionIFvRKNS0_8hidl_vecINS0_10hidl_arrayIhLj32EJEEEEEEEE"
  source_file: "/data/aosp/out/soong/.intermediates/hardware/interfaces/media/omx/1.0/android.hardware.media.omx@1.0_genc++_headers/gen/android/hardware/media/omx/1.0/BsOmxNode.h"
  parameters {
    basic_abi {
      type_abi {
        name: "std::function<void (const hidl_vec<hidl_array<unsigned char, 32> > &)>"
      }
      name: "_hidl_cb"
      access: public_access
      linker_set_key: "false"
    }
    default_arg: false
  }
}
functions {
  basic_abi {
    type_abi {
      name: "android::hardware::Return<void>"
    }
    name: "android::hardware::media::omx::V1_0::BsOmxNode::setHALInstrumentation"
    access: public_access
    linker_set_key: "_ZN7android8hardware5media3omx4V1_09BsOmxNode21setHALInstrumentationEv"
  }
  mangled_function_name: "_ZN7android8hardware5media3omx4V1_09BsOmxNode21setHALInstrumentationEv"
  source_file: "/data/aosp/out/soong/.intermediates/hardware/interfaces/media/omx/1.0/android.hardware.media.omx@1.0_genc++_headers/gen/android/hardware/media/omx/1.0/BsOmxNode.h"
}
functions {
  basic_abi {
    type_abi {
      name: "android::hardware::Return<bool>"
    }
    name: "android::hardware::media::omx::V1_0::BsOmxNode::linkToDeath"
    access: public_access
    linker_set_key: "_ZN7android8hardware5media3omx4V1_09BsOmxNode11linkToDeathERKNS_2spINS0_20hidl_death_recipientEEEy"
  }
  mangled_function_name: "_ZN7android8hardware5media3omx4V1_09BsOmxNode11linkToDeathERKNS_2spINS0_20hidl_death_recipientEEEy"
  source_file: "/data/aosp/out/soong/.intermediates/hardware/interfaces/media/omx/1.0/android.hardware.media.omx@1.0_genc++_headers/gen/android/hardware/media/omx/1.0/BsOmxNode.h"
  parameters {
    basic_abi {
      type_abi {
        name: "const android::sp<android::hardware::hidl_death_recipient> &"
      }
      name: "recipient"
      access: public_access
      linker_set_key: "false"
    }
    default_arg: false
  }
  parameters {
    basic_abi {
      type_abi {
        name: "unsigned long long"
        size: 8
        alignment: 8
      }
      name: "cookie"
      access: public_access
      linker_set_key: "false"
    }
    default_arg: false
  }
}
functions {
  basic_abi {
    type_abi {
      name: "android::hardware::Return<void>"
    }
    name: "android::hardware::media::omx::V1_0::BsOmxNode::ping"
    access: public_access
    linker_set_key: "_ZN7android8hardware5media3omx4V1_09BsOmxNode4pingEv"
  }
  mangled_function_name: "_ZN7android8hardware5media3omx4V1_09BsOmxNode4pingEv"
  source_file: "/data/aosp/out/soong/.intermediates/hardware/interfaces/media/omx/1.0/android.hardware.media.omx@1.0_genc++_headers/gen/android/hardware/media/omx/1.0/BsOmxNode.h"
}
functions {
  basic_abi {
    type_abi {
      name: "android::hardware::Return<void>"
    }
    name: "android::hardware::media::omx::V1_0::BsOmxNode::getDebugInfo"
    access: public_access
    linker_set_key: "_ZN7android8hardware5media3omx4V1_09BsOmxNode12getDebugInfoENSt3__18functionIFvRKNS_4hidl4base4V1_09DebugInfoEEEE"
  }
  mangled_function_name: "_ZN7android8hardware5media3omx4V1_09BsOmxNode12getDebugInfoENSt3__18functionIFvRKNS_4hidl4base4V1_09DebugInfoEEEE"
  source_file: "/data/aosp/out/soong/.intermediates/hardware/interfaces/media/omx/1.0/android.hardware.media.omx@1.0_genc++_headers/gen/android/hardware/media/omx/1.0/BsOmxNode.h"
  parameters {
    basic_abi {
      type_abi {
        name: "std::function<void (const DebugInfo &)>"
      }
      name: "_hidl_cb"
      access: public_access
      linker_set_key: "false"
    }
    default_arg: false
  }
}
functions {
  basic_abi {
    type_abi {
      name: "android::hardware::Return<void>"
    }
    name: "android::hardware::media::omx::V1_0::BsOmxNode::notifySyspropsChanged"
    access: public_access
    linker_set_key: "_ZN7android8hardware5media3omx4V1_09BsOmxNode21notifySyspropsChangedEv"
  }
  mangled_function_name: "_ZN7android8hardware5media3omx4V1_09BsOmxNode21notifySyspropsChangedEv"
  source_file: "/data/aosp/out/soong/.intermediates/hardware/interfaces/media/omx/1.0/android.hardware.media.omx@1.0_genc++_headers/gen/android/hardware/media/omx/1.0/BsOmxNode.h"
}
functions {
  basic_abi {
    type_abi {
      name: "android::hardware::Return<bool>"
    }
    name: "android::hardware::media::omx::V1_0::BsOmxNode::unlinkToDeath"
    access: public_access
    linker_set_key: "_ZN7android8hardware5media3omx4V1_09BsOmxNode13unlinkToDeathERKNS_2spINS0_20hidl_death_recipientEEE"
  }
  mangled_function_name: "_ZN7android8hardware5media3omx4V1_09BsOmxNode13unlinkToDeathERKNS_2spINS0_20hidl_death_recipientEEE"
  source_file: "/data/aosp/out/soong/.intermediates/hardware/interfaces/media/omx/1.0/android.hardware.media.omx@1.0_genc++_headers/gen/android/hardware/media/omx/1.0/BsOmxNode.h"
  parameters {
    basic_abi {
      type_abi {
        name: "const android::sp<android::hardware::hidl_death_recipient> &"
      }
      name: "recipient"
      access: public_access
      linker_set_key: "false"
    }
    default_arg: false
  }
}
functions {
  basic_abi {
    type_abi {
      name: "android::hardware::Return<void>"
    }
    name: "android::hardware::media::omx::V1_0::BsOmxNode::addOnewayTask"
    access: private_access
    linker_set_key: "_ZN7android8hardware5media3omx4V1_09BsOmxNode13addOnewayTaskENSt3__18functionIFvvEEE"
  }
  mangled_function_name: "_ZN7android8hardware5media3omx4V1_09BsOmxNode13addOnewayTaskENSt3__18functionIFvvEEE"
  source_file: "/data/aosp/out/soong/.intermediates/hardware/interfaces/media/omx/1.0/android.hardware.media.omx@1.0_genc++_headers/gen/android/hardware/media/omx/1.0/BsOmxNode.h"
  parameters {
    basic_abi {
      type_abi {
        name: "std::function<void ()>"
      }
      name: ""
      access: public_access
      linker_set_key: "false"
    }
    default_arg: false
  }
}
enums {
  basic_abi {
    type_abi {
      name: "int"
      size: 4
      alignment: 4
    }
    name: "android::hardware::media::omx::V1_0::Status"
    access: public_access
    linker_set_key: "android::hardware::media::omx::V1_0::Status"
  }
  enum_fields {
    basic_abi {
      type_abi {
        name: "android::hardware::media::omx::V1_0::Status"
        size: 4
        alignment: 4
      }
      name: "android::hardware::media::omx::V1_0::Status::OK"
      access: public_access
      linker_set_key: "0"
    }
    enum_field_value: 0
  }
  enum_fields {
    basic_abi {
      type_abi {
        name: "android::hardware::media::omx::V1_0::Status"
        size: 4
        alignment: 4
      }
      name: "android::hardware::media::omx::V1_0::Status::NO_ERROR"
      access: public_access
      linker_set_key: "0"
    }
    enum_field_value: 0
  }
  enum_fields {
    basic_abi {
      type_abi {
        name: "android::hardware::media::omx::V1_0::Status"
        size: 4
        alignment: 4
      }
      name: "android::hardware::media::omx::V1_0::Status::NAME_NOT_FOUND"
      access: public_access
      linker_set_key: "18446744073709551614"
    }
    enum_field_value: -2
  }
  enum_fields {
    basic_abi {
      type_abi {
        name: "android::hardware::media::omx::V1_0::Status"
        size: 4
        alignment: 4
      }
      name: "android::hardware::media::omx::V1_0::Status::WOULD_BLOCK"
      access: public_access
      linker_set_key: "18446744073709551605"
    }
    enum_field_value: -11
  }
  enum_fields {
    basic_abi {
      type_abi {
        name: "android::hardware::media::omx::V1_0::Status"
        size: 4
        alignment: 4
      }
      name: "android::hardware::media::omx::V1_0::Status::NO_MEMORY"
      access: public_access
      linker_set_key: "18446744073709551604"
    }
    enum_field_value: -12
  }
  enum_fields {
    basic_abi {
      type_abi {
        name: "android::hardware::media::omx::V1_0::Status"
        size: 4
        alignment: 4
      }
      name: "android::hardware::media::omx::V1_0::Status::ALREADY_EXISTS"
      access: public_access
      linker_set_key: "18446744073709551599"
    }
    enum_field_value: -17
  }
  enum_fields {
    basic_abi {
      type_abi {
        name: "android::hardware::media::omx::V1_0::Status"
        size: 4
        alignment: 4
      }
      name: "android::hardware::media::omx::V1_0::Status::NO_INIT"
      access: public_access
      linker_set_key: "18446744073709551597"
    }
    enum_field_value: -19
  }
  enum_fields {
    basic_abi {
      type_abi {
        name: "android::hardware::media::omx::V1_0::Status"
        size: 4
        alignment: 4
      }
      name: "android::hardware::media::omx::V1_0::Status::BAD_VALUE"
      access: public_access
      linker_set_key: "18446744073709551594"
    }
    enum_field_value: -22
  }
  enum_fields {
    basic_abi {
      type_abi {
        name: "android::hardware::media::omx::V1_0::Status"
        size: 4
        alignment: 4
      }
      name: "android::hardware::media::omx::V1_0::Status::DEAD_OBJECT"
      access: public_access
      linker_set_key: "18446744073709551584"
    }
    enum_field_value: -32
  }
  enum_fields {
    basic_abi {
      type_abi {
        name: "android::hardware::media::omx::V1_0::Status"
        size: 4
        alignment: 4
      }
      name: "android::hardware::media::omx::V1_0::Status::INVALID_OPERATION"
      access: public_access
      linker_set_key: "18446744073709551578"
    }
    enum_field_value: -38
  }
  enum_fields {
    basic_abi {
      type_abi {
        name: "android::hardware::media::omx::V1_0::Status"
        size: 4
        alignment: 4
      }
      name: "android::hardware::media::omx::V1_0::Status::TIMED_OUT"
      access: public_access
      linker_set_key: "18446744073709551506"
    }
    enum_field_value: -110
  }
  enum_fields {
    basic_abi {
      type_abi {
        name: "android::hardware::media::omx::V1_0::Status"
        size: 4
        alignment: 4
      }
      name: "android::hardware::media::omx::V1_0::Status::ERROR_UNSUPPORTED"
      access: public_access
      linker_set_key: "18446744073709550606"
    }
    enum_field_value: -1010
  }
  enum_fields {
    basic_abi {
      type_abi {
        name: "android::hardware::media::omx::V1_0::Status"
        size: 4
        alignment: 4
      }
      name: "android::hardware::media::omx::V1_0::Status::UNKNOWN_ERROR"
      access: public_access
      linker_set_key: "18446744071562067968"
    }
    enum_field_value: -2147483648
  }
  enum_fields {
    basic_abi {
      type_abi {
        name: "android::hardware::media::omx::V1_0::Status"
        size: 4
        alignment: 4
      }
      name: "android::hardware::media::omx::V1_0::Status::BUFFER_NEEDS_REALLOCATION"
      access: public_access
      linker_set_key: "1"
    }
    enum_field_value: 1
  }
  enum_fields {
    basic_abi {
      type_abi {
        name: "android::hardware::media::omx::V1_0::Status"
        size: 4
        alignment: 4
      }
      name: "android::hardware::media::omx::V1_0::Status::RELEASE_ALL_BUFFERS"
      access: public_access
      linker_set_key: "2"
    }
    enum_field_value: 2
  }
  source_file: "/data/aosp/out/soong/.intermediates/hardware/interfaces/media/omx/1.0/android.hardware.media.omx@1.0_genc++_headers/gen/android/hardware/media/omx/1.0/types.h"
}
enums {
  basic_abi {
    type_abi {
      name: "unsigned int"
      size: 4
      alignment: 4
    }
    name: "android::hardware::media::omx::V1_0::Message::Type"
    access: public_access
    linker_set_key: "android::hardware::media::omx::V1_0::Message::Type"
  }
  enum_fields {
    basic_abi {
      type_abi {
        name: "android::hardware::media::omx::V1_0::Message::Type"
        size: 4
        alignment: 4
      }
      name: "android::hardware::media::omx::V1_0::Message::Type::EVENT"
      access: public_access
      linker_set_key: "0"
    }
    enum_field_value: 0
  }
  enum_fields {
    basic_abi {
      type_abi {
        name: "android::hardware::media::omx::V1_0::Message::Type"
        size: 4
        alignment: 4
      }
      name: "android::hardware::media::omx::V1_0::Message::Type::EMPTY_BUFFER_DONE"
      access: public_access
      linker_set_key: "1"
    }
    enum_field_value: 1
  }
  enum_fields {
    basic_abi {
      type_abi {
        name: "android::hardware::media::omx::V1_0::Message::Type"
        size: 4
        alignment: 4
      }
      name: "android::hardware::media::omx::V1_0::Message::Type::FILL_BUFFER_DONE"
      access: public_access
      linker_set_key: "2"
    }
    enum_field_value: 2
  }
  enum_fields {
    basic_abi {
      type_abi {
        name: "android::hardware::media::omx::V1_0::Message::Type"
        size: 4
        alignment: 4
      }
      name: "android::hardware::media::omx::V1_0::Message::Type::FRAME_RENDERED"
      access: public_access
      linker_set_key: "3"
    }
    enum_field_value: 3
  }
  source_file: "/data/aosp/out/soong/.intermediates/hardware/interfaces/media/omx/1.0/android.hardware.media.omx@1.0_genc++_headers/gen/android/hardware/media/omx/1.0/types.h"
}
enums {
  basic_abi {
    type_abi {
      name: "int"
      size: 4
      alignment: 4
    }
    name: "android::hardware::media::omx::V1_0::CodecBuffer::Type"
    access: public_access
    linker_set_key: "android::hardware::media::omx::V1_0::CodecBuffer::Type"
  }
  enum_fields {
    basic_abi {
      type_abi {
        name: "android::hardware::media::omx::V1_0::CodecBuffer::Type"
        size: 4
        alignment: 4
      }
      name: "android::hardware::media::omx::V1_0::CodecBuffer::Type::INVALID"
      access: public_access
      linker_set_key: "0"
    }
    enum_field_value: 0
  }
  enum_fields {
    basic_abi {
      type_abi {
        name: "android::hardware::media::omx::V1_0::CodecBuffer::Type"
        size: 4
        alignment: 4
      }
      name: "android::hardware::media::omx::V1_0::CodecBuffer::Type::PRESET"
      access: public_access
      linker_set_key: "1"
    }
    enum_field_value: 1
  }
  enum_fields {
    basic_abi {
      type_abi {
        name: "android::hardware::media::omx::V1_0::CodecBuffer::Type"
        size: 4
        alignment: 4
      }
      name: "android::hardware::media::omx::V1_0::CodecBuffer::Type::SHARED_MEM"
      access: public_access
      linker_set_key: "2"
    }
    enum_field_value: 2
  }
  enum_fields {
    basic_abi {
      type_abi {
        name: "android::hardware::media::omx::V1_0::CodecBuffer::Type"
        size: 4
        alignment: 4
      }
      name: "android::hardware::media::omx::V1_0::CodecBuffer::Type::ANW_BUFFER"
      access: public_access
      linker_set_key: "3"
    }
    enum_field_value: 3
  }
  enum_fields {
    basic_abi {
      type_abi {
        name: "android::hardware::media::omx::V1_0::CodecBuffer::Type"
        size: 4
        alignment: 4
      }
      name: "android::hardware::media::omx::V1_0::CodecBuffer::Type::NATIVE_HANDLE"
      access: public_access
      linker_set_key: "4"
    }
    enum_field_value: 4
  }
  source_file: "/data/aosp/out/soong/.intermediates/hardware/interfaces/media/omx/1.0/android.hardware.media.omx@1.0_genc++_headers/gen/android/hardware/media/omx/1.0/types.h"
}
enums {
  basic_abi {
    type_abi {
      name: "int"
      size: 4
      alignment: 4
    }
    name: "android::hardware::media::omx::V1_0::PortMode"
    access: public_access
    linker_set_key: "android::hardware::media::omx::V1_0::PortMode"
  }
  enum_fields {
    basic_abi {
      type_abi {
        name: "android::hardware::media::omx::V1_0::PortMode"
        size: 4
        alignment: 4
      }
      name: "android::hardware::media::omx::V1_0::PortMode::PRESET_START"
      access: public_access
      linker_set_key: "0"
    }
    enum_field_value: 0
  }
  enum_fields {
    basic_abi {
      type_abi {
        name: "android::hardware::media::omx::V1_0::PortMode"
        size: 4
        alignment: 4
      }
      name: "android::hardware::media::omx::V1_0::PortMode::PRESET_BYTE_BUFFER"
      access: public_access
      linker_set_key: "1"
    }
    enum_field_value: 1
  }
  enum_fields {
    basic_abi {
      type_abi {
        name: "android::hardware::media::omx::V1_0::PortMode"
        size: 4
        alignment: 4
      }
      name: "android::hardware::media::omx::V1_0::PortMode::PRESET_ANW_BUFFER"
      access: public_access
      linker_set_key: "2"
    }
    enum_field_value: 2
  }
  enum_fields {
    basic_abi {
      type_abi {
        name: "android::hardware::media::omx::V1_0::PortMode"
        size: 4
        alignment: 4
      }
      name: "android::hardware::media::omx::V1_0::PortMode::PRESET_SECURE_BUFFER"
      access: public_access
      linker_set_key: "3"
    }
    enum_field_value: 3
  }
  enum_fields {
    basic_abi {
      type_abi {
        name: "android::hardware::media::omx::V1_0::PortMode"
        size: 4
        alignment: 4
      }
      name: "android::hardware::media::omx::V1_0::PortMode::PRESET_END"
      access: public_access
      linker_set_key: "4"
    }
    enum_field_value: 4
  }
  enum_fields {
    basic_abi {
      type_abi {
        name: "android::hardware::media::omx::V1_0::PortMode"
        size: 4
        alignment: 4
      }
      name: "android::hardware::media::omx::V1_0::PortMode::DYNAMIC_START"
      access: public_access
      linker_set_key: "100"
    }
    enum_field_value: 100
  }
  enum_fields {
    basic_abi {
      type_abi {
        name: "android::hardware::media::omx::V1_0::PortMode"
        size: 4
        alignment: 4
      }
      name: "android::hardware::media::omx::V1_0::PortMode::DYNAMIC_ANW_BUFFER"
      access: public_access
      linker_set_key: "101"
    }
    enum_field_value: 101
  }
  enum_fields {
    basic_abi {
      type_abi {
        name: "android::hardware::media::omx::V1_0::PortMode"
        size: 4
        alignment: 4
      }
      name: "android::hardware::media::omx::V1_0::PortMode::DYNAMIC_NATIVE_HANDLE"
      access: public_access
      linker_set_key: "102"
    }
    enum_field_value: 102
  }
  enum_fields {
    basic_abi {
      type_abi {
        name: "android::hardware::media::omx::V1_0::PortMode"
        size: 4
        alignment: 4
      }
      name: "android::hardware::media::omx::V1_0::PortMode::DYNAMIC_END"
      access: public_access
      linker_set_key: "103"
    }
    enum_field_value: 103
  }
  source_file: "/data/aosp/out/soong/.intermediates/hardware/interfaces/media/omx/1.0/android.hardware.media.omx@1.0_genc++_headers/gen/android/hardware/media/omx/1.0/types.h"
}
enums {
  basic_abi {
    type_abi {
      name: "unsigned int"
      size: 4
      alignment: 4
    }
    name: "android::hardware::media::omx::V1_0::ColorAspects::Range"
    access: public_access
    linker_set_key: "android::hardware::media::omx::V1_0::ColorAspects::Range"
  }
  enum_fields {
    basic_abi {
      type_abi {
        name: "android::hardware::media::omx::V1_0::ColorAspects::Range"
        size: 4
        alignment: 4
      }
      name: "android::hardware::media::omx::V1_0::ColorAspects::Range::UNSPECIFIED"
      access: public_access
      linker_set_key: "0"
    }
    enum_field_value: 0
  }
  enum_fields {
    basic_abi {
      type_abi {
        name: "android::hardware::media::omx::V1_0::ColorAspects::Range"
        size: 4
        alignment: 4
      }
      name: "android::hardware::media::omx::V1_0::ColorAspects::Range::FULL"
      access: public_access
      linker_set_key: "1"
    }
    enum_field_value: 1
  }
  enum_fields {
    basic_abi {
      type_abi {
        name: "android::hardware::media::omx::V1_0::ColorAspects::Range"
        size: 4
        alignment: 4
      }
      name: "android::hardware::media::omx::V1_0::ColorAspects::Range::LIMITED"
      access: public_access
      linker_set_key: "2"
    }
    enum_field_value: 2
  }
  enum_fields {
    basic_abi {
      type_abi {
        name: "android::hardware::media::omx::V1_0::ColorAspects::Range"
        size: 4
        alignment: 4
      }
      name: "android::hardware::media::omx::V1_0::ColorAspects::Range::OTHER"
      access: public_access
      linker_set_key: "255"
    }
    enum_field_value: 255
  }
  source_file: "/data/aosp/out/soong/.intermediates/hardware/interfaces/media/omx/1.0/android.hardware.media.omx@1.0_genc++_headers/gen/android/hardware/media/omx/1.0/types.h"
}
enums {
  basic_abi {
    type_abi {
      name: "unsigned int"
      size: 4
      alignment: 4
    }
    name: "android::hardware::media::omx::V1_0::ColorAspects::Primaries"
    access: public_access
    linker_set_key: "android::hardware::media::omx::V1_0::ColorAspects::Primaries"
  }
  enum_fields {
    basic_abi {
      type_abi {
        name: "android::hardware::media::omx::V1_0::ColorAspects::Primaries"
        size: 4
        alignment: 4
      }
      name: "android::hardware::media::omx::V1_0::ColorAspects::Primaries::UNSPECIFIED"
      access: public_access
      linker_set_key: "0"
    }
    enum_field_value: 0
  }
  enum_fields {
    basic_abi {
      type_abi {
        name: "android::hardware::media::omx::V1_0::ColorAspects::Primaries"
        size: 4
        alignment: 4
      }
      name: "android::hardware::media::omx::V1_0::ColorAspects::Primaries::BT709_5"
      access: public_access
      linker_set_key: "1"
    }
    enum_field_value: 1
  }
  enum_fields {
    basic_abi {
      type_abi {
        name: "android::hardware::media::omx::V1_0::ColorAspects::Primaries"
        size: 4
        alignment: 4
      }
      name: "android::hardware::media::omx::V1_0::ColorAspects::Primaries::BT470_6M"
      access: public_access
      linker_set_key: "2"
    }
    enum_field_value: 2
  }
  enum_fields {
    basic_abi {
      type_abi {
        name: "android::hardware::media::omx::V1_0::ColorAspects::Primaries"
        size: 4
        alignment: 4
      }
      name: "android::hardware::media::omx::V1_0::ColorAspects::Primaries::BT601_6_625"
      access: public_access
      linker_set_key: "3"
    }
    enum_field_value: 3
  }
  enum_fields {
    basic_abi {
      type_abi {
        name: "android::hardware::media::omx::V1_0::ColorAspects::Primaries"
        size: 4
        alignment: 4
      }
      name: "android::hardware::media::omx::V1_0::ColorAspects::Primaries::BT601_6_525"
      access: public_access
      linker_set_key: "4"
    }
    enum_field_value: 4
  }
  enum_fields {
    basic_abi {
      type_abi {
        name: "android::hardware::media::omx::V1_0::ColorAspects::Primaries"
        size: 4
        alignment: 4
      }
      name: "android::hardware::media::omx::V1_0::ColorAspects::Primaries::GENERIC_FILM"
      access: public_access
      linker_set_key: "5"
    }
    enum_field_value: 5
  }
  enum_fields {
    basic_abi {
      type_abi {
        name: "android::hardware::media::omx::V1_0::ColorAspects::Primaries"
        size: 4
        alignment: 4
      }
      name: "android::hardware::media::omx::V1_0::ColorAspects::Primaries::BT2020"
      access: public_access
      linker_set_key: "6"
    }
    enum_field_value: 6
  }
  enum_fields {
    basic_abi {
      type_abi {
        name: "android::hardware::media::omx::V1_0::ColorAspects::Primaries"
        size: 4
        alignment: 4
      }
      name: "android::hardware::media::omx::V1_0::ColorAspects::Primaries::OTHER"
      access: public_access
      linker_set_key: "255"
    }
    enum_field_value: 255
  }
  source_file: "/data/aosp/out/soong/.intermediates/hardware/interfaces/media/omx/1.0/android.hardware.media.omx@1.0_genc++_headers/gen/android/hardware/media/omx/1.0/types.h"
}
enums {
  basic_abi {
    type_abi {
      name: "unsigned int"
      size: 4
      alignment: 4
    }
    name: "android::hardware::media::omx::V1_0::ColorAspects::Transfer"
    access: public_access
    linker_set_key: "android::hardware::media::omx::V1_0::ColorAspects::Transfer"
  }
  enum_fields {
    basic_abi {
      type_abi {
        name: "android::hardware::media::omx::V1_0::ColorAspects::Transfer"
        size: 4
        alignment: 4
      }
      name: "android::hardware::media::omx::V1_0::ColorAspects::Transfer::UNSPECIFIED"
      access: public_access
      linker_set_key: "0"
    }
    enum_field_value: 0
  }
  enum_fields {
    basic_abi {
      type_abi {
        name: "android::hardware::media::omx::V1_0::ColorAspects::Transfer"
        size: 4
        alignment: 4
      }
      name: "android::hardware::media::omx::V1_0::ColorAspects::Transfer::LINEAR"
      access: public_access
      linker_set_key: "1"
    }
    enum_field_value: 1
  }
  enum_fields {
    basic_abi {
      type_abi {
        name: "android::hardware::media::omx::V1_0::ColorAspects::Transfer"
        size: 4
        alignment: 4
      }
      name: "android::hardware::media::omx::V1_0::ColorAspects::Transfer::SRGB"
      access: public_access
      linker_set_key: "2"
    }
    enum_field_value: 2
  }
  enum_fields {
    basic_abi {
      type_abi {
        name: "android::hardware::media::omx::V1_0::ColorAspects::Transfer"
        size: 4
        alignment: 4
      }
      name: "android::hardware::media::omx::V1_0::ColorAspects::Transfer::SMPTE170M"
      access: public_access
      linker_set_key: "3"
    }
    enum_field_value: 3
  }
  enum_fields {
    basic_abi {
      type_abi {
        name: "android::hardware::media::omx::V1_0::ColorAspects::Transfer"
        size: 4
        alignment: 4
      }
      name: "android::hardware::media::omx::V1_0::ColorAspects::Transfer::GAMMA22"
      access: public_access
      linker_set_key: "4"
    }
    enum_field_value: 4
  }
  enum_fields {
    basic_abi {
      type_abi {
        name: "android::hardware::media::omx::V1_0::ColorAspects::Transfer"
        size: 4
        alignment: 4
      }
      name: "android::hardware::media::omx::V1_0::ColorAspects::Transfer::GAMMA28"
      access: public_access
      linker_set_key: "5"
    }
    enum_field_value: 5
  }
  enum_fields {
    basic_abi {
      type_abi {
        name: "android::hardware::media::omx::V1_0::ColorAspects::Transfer"
        size: 4
        alignment: 4
      }
      name: "android::hardware::media::omx::V1_0::ColorAspects::Transfer::ST2084"
      access: public_access
      linker_set_key: "6"
    }
    enum_field_value: 6
  }
  enum_fields {
    basic_abi {
      type_abi {
        name: "android::hardware::media::omx::V1_0::ColorAspects::Transfer"
        size: 4
        alignment: 4
      }
      name: "android::hardware::media::omx::V1_0::ColorAspects::Transfer::HLG"
      access: public_access
      linker_set_key: "7"
    }
    enum_field_value: 7
  }
  enum_fields {
    basic_abi {
      type_abi {
        name: "android::hardware::media::omx::V1_0::ColorAspects::Transfer"
        size: 4
        alignment: 4
      }
      name: "android::hardware::media::omx::V1_0::ColorAspects::Transfer::SMPTE240M"
      access: public_access
      linker_set_key: "64"
    }
    enum_field_value: 64
  }
  enum_fields {
    basic_abi {
      type_abi {
        name: "android::hardware::media::omx::V1_0::ColorAspects::Transfer"
        size: 4
        alignment: 4
      }
      name: "android::hardware::media::omx::V1_0::ColorAspects::Transfer::XVYCC"
      access: public_access
      linker_set_key: "65"
    }
    enum_field_value: 65
  }
  enum_fields {
    basic_abi {
      type_abi {
        name: "android::hardware::media::omx::V1_0::ColorAspects::Transfer"
        size: 4
        alignment: 4
      }
      name: "android::hardware::media::omx::V1_0::ColorAspects::Transfer::BT1361"
      access: public_access
      linker_set_key: "66"
    }
    enum_field_value: 66
  }
  enum_fields {
    basic_abi {
      type_abi {
        name: "android::hardware::media::omx::V1_0::ColorAspects::Transfer"
        size: 4
        alignment: 4
      }
      name: "android::hardware::media::omx::V1_0::ColorAspects::Transfer::ST428"
      access: public_access
      linker_set_key: "67"
    }
    enum_field_value: 67
  }
  enum_fields {
    basic_abi {
      type_abi {
        name: "android::hardware::media::omx::V1_0::ColorAspects::Transfer"
        size: 4
        alignment: 4
      }
      name: "android::hardware::media::omx::V1_0::ColorAspects::Transfer::OTHER"
      access: public_access
      linker_set_key: "255"
    }
    enum_field_value: 255
  }
  source_file: "/data/aosp/out/soong/.intermediates/hardware/interfaces/media/omx/1.0/android.hardware.media.omx@1.0_genc++_headers/gen/android/hardware/media/omx/1.0/types.h"
}
enums {
  basic_abi {
    type_abi {
      name: "unsigned int"
      size: 4
      alignment: 4
    }
    name: "android::hardware::media::omx::V1_0::ColorAspects::MatrixCoeffs"
    access: public_access
    linker_set_key: "android::hardware::media::omx::V1_0::ColorAspects::MatrixCoeffs"
  }
  enum_fields {
    basic_abi {
      type_abi {
        name: "android::hardware::media::omx::V1_0::ColorAspects::MatrixCoeffs"
        size: 4
        alignment: 4
      }
      name: "android::hardware::media::omx::V1_0::ColorAspects::MatrixCoeffs::UNSPECIFIED"
      access: public_access
      linker_set_key: "0"
    }
    enum_field_value: 0
  }
  enum_fields {
    basic_abi {
      type_abi {
        name: "android::hardware::media::omx::V1_0::ColorAspects::MatrixCoeffs"
        size: 4
        alignment: 4
      }
      name: "android::hardware::media::omx::V1_0::ColorAspects::MatrixCoeffs::BT709_5"
      access: public_access
      linker_set_key: "1"
    }
    enum_field_value: 1
  }
  enum_fields {
    basic_abi {
      type_abi {
        name: "android::hardware::media::omx::V1_0::ColorAspects::MatrixCoeffs"
        size: 4
        alignment: 4
      }
      name: "android::hardware::media::omx::V1_0::ColorAspects::MatrixCoeffs::BT470_6M"
      access: public_access
      linker_set_key: "2"
    }
    enum_field_value: 2
  }
  enum_fields {
    basic_abi {
      type_abi {
        name: "android::hardware::media::omx::V1_0::ColorAspects::MatrixCoeffs"
        size: 4
        alignment: 4
      }
      name: "android::hardware::media::omx::V1_0::ColorAspects::MatrixCoeffs::BT601_6"
      access: public_access
      linker_set_key: "3"
    }
    enum_field_value: 3
  }
  enum_fields {
    basic_abi {
      type_abi {
        name: "android::hardware::media::omx::V1_0::ColorAspects::MatrixCoeffs"
        size: 4
        alignment: 4
      }
      name: "android::hardware::media::omx::V1_0::ColorAspects::MatrixCoeffs::SMPTE240M"
      access: public_access
      linker_set_key: "4"
    }
    enum_field_value: 4
  }
  enum_fields {
    basic_abi {
      type_abi {
        name: "android::hardware::media::omx::V1_0::ColorAspects::MatrixCoeffs"
        size: 4
        alignment: 4
      }
      name: "android::hardware::media::omx::V1_0::ColorAspects::MatrixCoeffs::BT2020"
      access: public_access
      linker_set_key: "5"
    }
    enum_field_value: 5
  }
  enum_fields {
    basic_abi {
      type_abi {
        name: "android::hardware::media::omx::V1_0::ColorAspects::MatrixCoeffs"
        size: 4
        alignment: 4
      }
      name: "android::hardware::media::omx::V1_0::ColorAspects::MatrixCoeffs::BT2020CONSTANT"
      access: public_access
      linker_set_key: "6"
    }
    enum_field_value: 6
  }
  enum_fields {
    basic_abi {
      type_abi {
        name: "android::hardware::media::omx::V1_0::ColorAspects::MatrixCoeffs"
        size: 4
        alignment: 4
      }
      name: "android::hardware::media::omx::V1_0::ColorAspects::MatrixCoeffs::OTHER"
      access: public_access
      linker_set_key: "255"
    }
    enum_field_value: 255
  }
  source_file: "/data/aosp/out/soong/.intermediates/hardware/interfaces/media/omx/1.0/android.hardware.media.omx@1.0_genc++_headers/gen/android/hardware/media/omx/1.0/types.h"
}
global_vars {
  basic_abi {
    type_abi {
      name: "const char *"
      size: 4
      alignment: 4
    }
    name: "android::hardware::media::omx::V1_0::IOmxBufferSource::descriptor"
    access: public_access
    linker_set_key: "_ZN7android8hardware5media3omx4V1_016IOmxBufferSource10descriptorE"
  }
  source_file: "/data/aosp/out/soong/.intermediates/hardware/interfaces/media/omx/1.0/android.hardware.media.omx@1.0_genc++_headers/gen/android/hardware/media/omx/1.0/IOmxBufferSource.h"
}
global_vars {
  basic_abi {
    type_abi {
      name: "const char *"
      size: 4
      alignment: 4
    }
    name: "android::hardware::media::omx::V1_0::IOmxNode::descriptor"
    access: public_access
    linker_set_key: "_ZN7android8hardware5media3omx4V1_08IOmxNode10descriptorE"
  }
  source_file: "/data/aosp/out/soong/.intermediates/hardware/interfaces/media/omx/1.0/android.hardware.media.omx@1.0_genc++_headers/gen/android/hardware/media/omx/1.0/IOmxNode.h"
}
